ARM GAS  /var/folders/p7/nwmyw04531jbkqkgv59cx10h0000gn/T//ccVTZlkz.s 			page 1


   1              		.cpu cortex-m4
   2              		.eabi_attribute 27, 1
   3              		.eabi_attribute 28, 1
   4              		.eabi_attribute 20, 1
   5              		.eabi_attribute 21, 1
   6              		.eabi_attribute 23, 3
   7              		.eabi_attribute 24, 1
   8              		.eabi_attribute 25, 1
   9              		.eabi_attribute 26, 1
  10              		.eabi_attribute 30, 1
  11              		.eabi_attribute 34, 1
  12              		.eabi_attribute 18, 4
  13              		.file	"adc.c"
  14              		.text
  15              	.Ltext0:
  16              		.cfi_sections	.debug_frame
  17              		.section	.text.MX_ADC1_Init,"ax",%progbits
  18              		.align	1
  19              		.global	MX_ADC1_Init
  20              		.syntax unified
  21              		.thumb
  22              		.thumb_func
  23              		.fpu fpv4-sp-d16
  25              	MX_ADC1_Init:
  26              	.LFB124:
  27              		.file 1 "Src/adc.c"
   1:Src/adc.c     **** /**
   2:Src/adc.c     ****   ******************************************************************************
   3:Src/adc.c     ****   * File Name          : ADC.c
   4:Src/adc.c     ****   * Description        : This file provides code for the configuration
   5:Src/adc.c     ****   *                      of the ADC instances.
   6:Src/adc.c     ****   ******************************************************************************
   7:Src/adc.c     **** */
   8:Src/adc.c     **** #include "adc.h"
   9:Src/adc.c     **** 
  10:Src/adc.c     **** #include "gpio.h"
  11:Src/adc.c     **** #include "dma.h"
  12:Src/adc.c     **** 
  13:Src/adc.c     **** ADC_HandleTypeDef hadc1;
  14:Src/adc.c     **** ADC_HandleTypeDef hadc2;
  15:Src/adc.c     **** DMA_HandleTypeDef hdma_adc1;
  16:Src/adc.c     **** 
  17:Src/adc.c     **** /* ADC1 init function */
  18:Src/adc.c     **** void MX_ADC1_Init(void)
  19:Src/adc.c     **** {
  28              		.loc 1 19 0
  29              		.cfi_startproc
  30              		@ args = 0, pretend = 0, frame = 40
  31              		@ frame_needed = 0, uses_anonymous_args = 0
  32 0000 00B5     		push	{lr}
  33              	.LCFI0:
  34              		.cfi_def_cfa_offset 4
  35              		.cfi_offset 14, -4
  36 0002 8BB0     		sub	sp, sp, #44
  37              	.LCFI1:
  38              		.cfi_def_cfa_offset 48
  20:Src/adc.c     ****   ADC_MultiModeTypeDef multimode;
ARM GAS  /var/folders/p7/nwmyw04531jbkqkgv59cx10h0000gn/T//ccVTZlkz.s 			page 2


  21:Src/adc.c     ****   ADC_ChannelConfTypeDef sConfig;
  22:Src/adc.c     **** 
  23:Src/adc.c     ****     /**Common config 
  24:Src/adc.c     ****     */
  25:Src/adc.c     ****   hadc1.Instance = ADC1;
  39              		.loc 1 25 0
  40 0004 1F48     		ldr	r0, .L9
  41 0006 4FF0A043 		mov	r3, #1342177280
  42 000a 0360     		str	r3, [r0]
  26:Src/adc.c     ****   hadc1.Init.ClockPrescaler = ADC_CLOCK_ASYNC_DIV1;
  43              		.loc 1 26 0
  44 000c 0023     		movs	r3, #0
  45 000e 4360     		str	r3, [r0, #4]
  27:Src/adc.c     ****   hadc1.Init.Resolution = ADC_RESOLUTION_12B;
  46              		.loc 1 27 0
  47 0010 8360     		str	r3, [r0, #8]
  28:Src/adc.c     ****   hadc1.Init.ScanConvMode = ADC_SCAN_DISABLE;
  48              		.loc 1 28 0
  49 0012 0361     		str	r3, [r0, #16]
  29:Src/adc.c     ****   hadc1.Init.ContinuousConvMode = DISABLE;
  50              		.loc 1 29 0
  51 0014 C361     		str	r3, [r0, #28]
  30:Src/adc.c     ****   hadc1.Init.DiscontinuousConvMode = DISABLE;
  52              		.loc 1 30 0
  53 0016 4362     		str	r3, [r0, #36]
  31:Src/adc.c     ****   hadc1.Init.ExternalTrigConvEdge = ADC_EXTERNALTRIGCONVEDGE_NONE;
  54              		.loc 1 31 0
  55 0018 0363     		str	r3, [r0, #48]
  32:Src/adc.c     ****   hadc1.Init.ExternalTrigConv = ADC_SOFTWARE_START;
  56              		.loc 1 32 0
  57 001a 0122     		movs	r2, #1
  58 001c C262     		str	r2, [r0, #44]
  33:Src/adc.c     ****   hadc1.Init.DataAlign = ADC_DATAALIGN_RIGHT;
  59              		.loc 1 33 0
  60 001e C360     		str	r3, [r0, #12]
  34:Src/adc.c     ****   hadc1.Init.NbrOfConversion = 1;
  61              		.loc 1 34 0
  62 0020 0262     		str	r2, [r0, #32]
  35:Src/adc.c     ****   hadc1.Init.DMAContinuousRequests = DISABLE;
  63              		.loc 1 35 0
  64 0022 4363     		str	r3, [r0, #52]
  36:Src/adc.c     ****   hadc1.Init.EOCSelection = ADC_EOC_SINGLE_CONV;
  65              		.loc 1 36 0
  66 0024 0422     		movs	r2, #4
  67 0026 4261     		str	r2, [r0, #20]
  37:Src/adc.c     ****   hadc1.Init.LowPowerAutoWait = DISABLE;
  68              		.loc 1 37 0
  69 0028 8361     		str	r3, [r0, #24]
  38:Src/adc.c     ****   hadc1.Init.Overrun = ADC_OVR_DATA_OVERWRITTEN;
  70              		.loc 1 38 0
  71 002a 8363     		str	r3, [r0, #56]
  39:Src/adc.c     ****   if (HAL_ADC_Init(&hadc1) != HAL_OK)
  72              		.loc 1 39 0
  73 002c FFF7FEFF 		bl	HAL_ADC_Init
  74              	.LVL0:
  75 0030 C0B9     		cbnz	r0, .L6
  76              	.L2:
ARM GAS  /var/folders/p7/nwmyw04531jbkqkgv59cx10h0000gn/T//ccVTZlkz.s 			page 3


  40:Src/adc.c     ****   {
  41:Src/adc.c     ****     _Error_Handler(__FILE__, __LINE__);
  42:Src/adc.c     ****   }
  43:Src/adc.c     **** 
  44:Src/adc.c     ****     /**Configure the ADC multi-mode 
  45:Src/adc.c     ****     */
  46:Src/adc.c     ****   multimode.Mode = ADC_MODE_INDEPENDENT;
  77              		.loc 1 46 0
  78 0032 0AA9     		add	r1, sp, #40
  79 0034 0023     		movs	r3, #0
  80 0036 41F80C3D 		str	r3, [r1, #-12]!
  47:Src/adc.c     ****   if (HAL_ADCEx_MultiModeConfigChannel(&hadc1, &multimode) != HAL_OK)
  81              		.loc 1 47 0
  82 003a 1248     		ldr	r0, .L9
  83 003c FFF7FEFF 		bl	HAL_ADCEx_MultiModeConfigChannel
  84              	.LVL1:
  85 0040 A8B9     		cbnz	r0, .L7
  86              	.L3:
  48:Src/adc.c     ****   {
  49:Src/adc.c     ****     _Error_Handler(__FILE__, __LINE__);
  50:Src/adc.c     ****   }
  51:Src/adc.c     **** 
  52:Src/adc.c     ****     /**Configure Regular Channel 
  53:Src/adc.c     ****     */
  54:Src/adc.c     ****   sConfig.Channel = ADC_CHANNEL_6;
  87              		.loc 1 54 0
  88 0042 0623     		movs	r3, #6
  89 0044 0193     		str	r3, [sp, #4]
  55:Src/adc.c     ****   sConfig.Rank = 1;
  90              		.loc 1 55 0
  91 0046 0123     		movs	r3, #1
  92 0048 0293     		str	r3, [sp, #8]
  56:Src/adc.c     ****   sConfig.SingleDiff = ADC_SINGLE_ENDED;
  93              		.loc 1 56 0
  94 004a 0023     		movs	r3, #0
  95 004c 0493     		str	r3, [sp, #16]
  57:Src/adc.c     ****   sConfig.SamplingTime = ADC_SAMPLETIME_1CYCLE_5;
  96              		.loc 1 57 0
  97 004e 0393     		str	r3, [sp, #12]
  58:Src/adc.c     ****   sConfig.OffsetNumber = ADC_OFFSET_NONE;
  98              		.loc 1 58 0
  99 0050 0593     		str	r3, [sp, #20]
  59:Src/adc.c     ****   sConfig.Offset = 0;
 100              		.loc 1 59 0
 101 0052 0693     		str	r3, [sp, #24]
  60:Src/adc.c     ****   if (HAL_ADC_ConfigChannel(&hadc1, &sConfig) != HAL_OK)
 102              		.loc 1 60 0
 103 0054 01A9     		add	r1, sp, #4
 104 0056 0B48     		ldr	r0, .L9
 105 0058 FFF7FEFF 		bl	HAL_ADC_ConfigChannel
 106              	.LVL2:
 107 005c 60B9     		cbnz	r0, .L8
 108              	.L1:
  61:Src/adc.c     ****   {
  62:Src/adc.c     ****     _Error_Handler(__FILE__, __LINE__);
  63:Src/adc.c     ****   }
  64:Src/adc.c     **** 
ARM GAS  /var/folders/p7/nwmyw04531jbkqkgv59cx10h0000gn/T//ccVTZlkz.s 			page 4


  65:Src/adc.c     **** }
 109              		.loc 1 65 0
 110 005e 0BB0     		add	sp, sp, #44
 111              	.LCFI2:
 112              		.cfi_remember_state
 113              		.cfi_def_cfa_offset 4
 114              		@ sp needed
 115 0060 5DF804FB 		ldr	pc, [sp], #4
 116              	.L6:
 117              	.LCFI3:
 118              		.cfi_restore_state
  41:Src/adc.c     ****   }
 119              		.loc 1 41 0
 120 0064 2921     		movs	r1, #41
 121 0066 0848     		ldr	r0, .L9+4
 122 0068 FFF7FEFF 		bl	_Error_Handler
 123              	.LVL3:
 124 006c E1E7     		b	.L2
 125              	.L7:
  49:Src/adc.c     ****   }
 126              		.loc 1 49 0
 127 006e 3121     		movs	r1, #49
 128 0070 0548     		ldr	r0, .L9+4
 129 0072 FFF7FEFF 		bl	_Error_Handler
 130              	.LVL4:
 131 0076 E4E7     		b	.L3
 132              	.L8:
  62:Src/adc.c     ****   }
 133              		.loc 1 62 0
 134 0078 3E21     		movs	r1, #62
 135 007a 0348     		ldr	r0, .L9+4
 136 007c FFF7FEFF 		bl	_Error_Handler
 137              	.LVL5:
 138              		.loc 1 65 0
 139 0080 EDE7     		b	.L1
 140              	.L10:
 141 0082 00BF     		.align	2
 142              	.L9:
 143 0084 00000000 		.word	hadc1
 144 0088 00000000 		.word	.LC0
 145              		.cfi_endproc
 146              	.LFE124:
 148              		.section	.text.MX_ADC2_Init,"ax",%progbits
 149              		.align	1
 150              		.global	MX_ADC2_Init
 151              		.syntax unified
 152              		.thumb
 153              		.thumb_func
 154              		.fpu fpv4-sp-d16
 156              	MX_ADC2_Init:
 157              	.LFB125:
  66:Src/adc.c     **** /* ADC2 init function */
  67:Src/adc.c     **** void MX_ADC2_Init(void)
  68:Src/adc.c     **** {
 158              		.loc 1 68 0
 159              		.cfi_startproc
 160              		@ args = 0, pretend = 0, frame = 24
ARM GAS  /var/folders/p7/nwmyw04531jbkqkgv59cx10h0000gn/T//ccVTZlkz.s 			page 5


 161              		@ frame_needed = 0, uses_anonymous_args = 0
 162 0000 00B5     		push	{lr}
 163              	.LCFI4:
 164              		.cfi_def_cfa_offset 4
 165              		.cfi_offset 14, -4
 166 0002 87B0     		sub	sp, sp, #28
 167              	.LCFI5:
 168              		.cfi_def_cfa_offset 32
  69:Src/adc.c     ****   ADC_ChannelConfTypeDef sConfig;
  70:Src/adc.c     **** 
  71:Src/adc.c     ****     /**Common config 
  72:Src/adc.c     ****     */
  73:Src/adc.c     ****   hadc2.Instance = ADC2;
 169              		.loc 1 73 0
 170 0004 1748     		ldr	r0, .L17
 171 0006 184B     		ldr	r3, .L17+4
 172 0008 0360     		str	r3, [r0]
  74:Src/adc.c     ****   hadc2.Init.ClockPrescaler = ADC_CLOCK_ASYNC_DIV1;
 173              		.loc 1 74 0
 174 000a 0023     		movs	r3, #0
 175 000c 4360     		str	r3, [r0, #4]
  75:Src/adc.c     ****   hadc2.Init.Resolution = ADC_RESOLUTION_12B;
 176              		.loc 1 75 0
 177 000e 8360     		str	r3, [r0, #8]
  76:Src/adc.c     ****   hadc2.Init.ScanConvMode = ADC_SCAN_DISABLE;
 178              		.loc 1 76 0
 179 0010 0361     		str	r3, [r0, #16]
  77:Src/adc.c     ****   hadc2.Init.ContinuousConvMode = DISABLE;
 180              		.loc 1 77 0
 181 0012 C361     		str	r3, [r0, #28]
  78:Src/adc.c     ****   hadc2.Init.DiscontinuousConvMode = DISABLE;
 182              		.loc 1 78 0
 183 0014 4362     		str	r3, [r0, #36]
  79:Src/adc.c     ****   hadc2.Init.ExternalTrigConvEdge = ADC_EXTERNALTRIGCONVEDGE_NONE;
 184              		.loc 1 79 0
 185 0016 0363     		str	r3, [r0, #48]
  80:Src/adc.c     ****   hadc2.Init.ExternalTrigConv = ADC_SOFTWARE_START;
 186              		.loc 1 80 0
 187 0018 0122     		movs	r2, #1
 188 001a C262     		str	r2, [r0, #44]
  81:Src/adc.c     ****   hadc2.Init.DataAlign = ADC_DATAALIGN_RIGHT;
 189              		.loc 1 81 0
 190 001c C360     		str	r3, [r0, #12]
  82:Src/adc.c     ****   hadc2.Init.NbrOfConversion = 1;
 191              		.loc 1 82 0
 192 001e 0262     		str	r2, [r0, #32]
  83:Src/adc.c     ****   hadc2.Init.DMAContinuousRequests = DISABLE;
 193              		.loc 1 83 0
 194 0020 4363     		str	r3, [r0, #52]
  84:Src/adc.c     ****   hadc2.Init.EOCSelection = ADC_EOC_SINGLE_CONV;
 195              		.loc 1 84 0
 196 0022 0422     		movs	r2, #4
 197 0024 4261     		str	r2, [r0, #20]
  85:Src/adc.c     ****   hadc2.Init.LowPowerAutoWait = DISABLE;
 198              		.loc 1 85 0
 199 0026 8361     		str	r3, [r0, #24]
  86:Src/adc.c     ****   hadc2.Init.Overrun = ADC_OVR_DATA_OVERWRITTEN;
ARM GAS  /var/folders/p7/nwmyw04531jbkqkgv59cx10h0000gn/T//ccVTZlkz.s 			page 6


 200              		.loc 1 86 0
 201 0028 8363     		str	r3, [r0, #56]
  87:Src/adc.c     ****   if (HAL_ADC_Init(&hadc2) != HAL_OK)
 202              		.loc 1 87 0
 203 002a FFF7FEFF 		bl	HAL_ADC_Init
 204              	.LVL6:
 205 002e 78B9     		cbnz	r0, .L15
 206              	.L12:
  88:Src/adc.c     ****   {
  89:Src/adc.c     ****     _Error_Handler(__FILE__, __LINE__);
  90:Src/adc.c     ****   }
  91:Src/adc.c     **** 
  92:Src/adc.c     ****     /**Configure Regular Channel 
  93:Src/adc.c     ****     */
  94:Src/adc.c     ****   sConfig.Channel = ADC_CHANNEL_1;
 207              		.loc 1 94 0
 208 0030 0123     		movs	r3, #1
 209 0032 0093     		str	r3, [sp]
  95:Src/adc.c     ****   sConfig.Rank = 1;
 210              		.loc 1 95 0
 211 0034 0193     		str	r3, [sp, #4]
  96:Src/adc.c     ****   sConfig.SingleDiff = ADC_SINGLE_ENDED;
 212              		.loc 1 96 0
 213 0036 0023     		movs	r3, #0
 214 0038 0393     		str	r3, [sp, #12]
  97:Src/adc.c     ****   sConfig.SamplingTime = ADC_SAMPLETIME_1CYCLE_5;
 215              		.loc 1 97 0
 216 003a 0293     		str	r3, [sp, #8]
  98:Src/adc.c     ****   sConfig.OffsetNumber = ADC_OFFSET_NONE;
 217              		.loc 1 98 0
 218 003c 0493     		str	r3, [sp, #16]
  99:Src/adc.c     ****   sConfig.Offset = 0;
 219              		.loc 1 99 0
 220 003e 0593     		str	r3, [sp, #20]
 100:Src/adc.c     ****   if (HAL_ADC_ConfigChannel(&hadc2, &sConfig) != HAL_OK)
 221              		.loc 1 100 0
 222 0040 6946     		mov	r1, sp
 223 0042 0848     		ldr	r0, .L17
 224 0044 FFF7FEFF 		bl	HAL_ADC_ConfigChannel
 225              	.LVL7:
 226 0048 38B9     		cbnz	r0, .L16
 227              	.L11:
 101:Src/adc.c     ****   {
 102:Src/adc.c     ****     _Error_Handler(__FILE__, __LINE__);
 103:Src/adc.c     ****   }
 104:Src/adc.c     **** 
 105:Src/adc.c     **** }
 228              		.loc 1 105 0
 229 004a 07B0     		add	sp, sp, #28
 230              	.LCFI6:
 231              		.cfi_remember_state
 232              		.cfi_def_cfa_offset 4
 233              		@ sp needed
 234 004c 5DF804FB 		ldr	pc, [sp], #4
 235              	.L15:
 236              	.LCFI7:
 237              		.cfi_restore_state
ARM GAS  /var/folders/p7/nwmyw04531jbkqkgv59cx10h0000gn/T//ccVTZlkz.s 			page 7


  89:Src/adc.c     ****   }
 238              		.loc 1 89 0
 239 0050 5921     		movs	r1, #89
 240 0052 0648     		ldr	r0, .L17+8
 241 0054 FFF7FEFF 		bl	_Error_Handler
 242              	.LVL8:
 243 0058 EAE7     		b	.L12
 244              	.L16:
 102:Src/adc.c     ****   }
 245              		.loc 1 102 0
 246 005a 6621     		movs	r1, #102
 247 005c 0348     		ldr	r0, .L17+8
 248 005e FFF7FEFF 		bl	_Error_Handler
 249              	.LVL9:
 250              		.loc 1 105 0
 251 0062 F2E7     		b	.L11
 252              	.L18:
 253              		.align	2
 254              	.L17:
 255 0064 00000000 		.word	hadc2
 256 0068 00010050 		.word	1342177536
 257 006c 00000000 		.word	.LC0
 258              		.cfi_endproc
 259              	.LFE125:
 261              		.section	.text.HAL_ADC_MspInit,"ax",%progbits
 262              		.align	1
 263              		.global	HAL_ADC_MspInit
 264              		.syntax unified
 265              		.thumb
 266              		.thumb_func
 267              		.fpu fpv4-sp-d16
 269              	HAL_ADC_MspInit:
 270              	.LFB126:
 106:Src/adc.c     **** 
 107:Src/adc.c     **** static uint32_t HAL_RCC_ADC12_CLK_ENABLED=0;
 108:Src/adc.c     **** 
 109:Src/adc.c     **** void HAL_ADC_MspInit(ADC_HandleTypeDef* adcHandle)
 110:Src/adc.c     **** {
 271              		.loc 1 110 0
 272              		.cfi_startproc
 273              		@ args = 0, pretend = 0, frame = 32
 274              		@ frame_needed = 0, uses_anonymous_args = 0
 275              	.LVL10:
 276 0000 30B5     		push	{r4, r5, lr}
 277              	.LCFI8:
 278              		.cfi_def_cfa_offset 12
 279              		.cfi_offset 4, -12
 280              		.cfi_offset 5, -8
 281              		.cfi_offset 14, -4
 282 0002 89B0     		sub	sp, sp, #36
 283              	.LCFI9:
 284              		.cfi_def_cfa_offset 48
 111:Src/adc.c     **** 
 112:Src/adc.c     ****   GPIO_InitTypeDef GPIO_InitStruct;
 113:Src/adc.c     ****   if(adcHandle->Instance==ADC1)
 285              		.loc 1 113 0
 286 0004 0368     		ldr	r3, [r0]
ARM GAS  /var/folders/p7/nwmyw04531jbkqkgv59cx10h0000gn/T//ccVTZlkz.s 			page 8


 287 0006 B3F1A04F 		cmp	r3, #1342177280
 288 000a 04D0     		beq	.L26
 114:Src/adc.c     ****   {
 115:Src/adc.c     ****   /* USER CODE BEGIN ADC1_MspInit 0 */
 116:Src/adc.c     **** 
 117:Src/adc.c     ****   /* USER CODE END ADC1_MspInit 0 */
 118:Src/adc.c     ****     /* Peripheral clock enable */
 119:Src/adc.c     ****     HAL_RCC_ADC12_CLK_ENABLED++;
 120:Src/adc.c     ****     if(HAL_RCC_ADC12_CLK_ENABLED==1){
 121:Src/adc.c     ****       __HAL_RCC_ADC12_CLK_ENABLE();
 122:Src/adc.c     ****     }
 123:Src/adc.c     ****   
 124:Src/adc.c     ****     /**ADC1 GPIO Configuration    
 125:Src/adc.c     ****     PC0     ------> ADC1_IN6
 126:Src/adc.c     ****     PC1     ------> ADC1_IN7
 127:Src/adc.c     ****     PC2     ------> ADC1_IN8 
 128:Src/adc.c     ****     */
 129:Src/adc.c     ****     GPIO_InitStruct.Pin = GPIO_PIN_0|GPIO_PIN_1|GPIO_PIN_2;
 130:Src/adc.c     ****     GPIO_InitStruct.Mode = GPIO_MODE_ANALOG;
 131:Src/adc.c     ****     GPIO_InitStruct.Pull = GPIO_NOPULL;
 132:Src/adc.c     ****     HAL_GPIO_Init(GPIOC, &GPIO_InitStruct);
 133:Src/adc.c     **** 
 134:Src/adc.c     ****     /* ADC1 DMA Init */
 135:Src/adc.c     ****     /* ADC1 Init */
 136:Src/adc.c     ****     hdma_adc1.Instance = DMA1_Channel1;
 137:Src/adc.c     ****     hdma_adc1.Init.Direction = DMA_PERIPH_TO_MEMORY;
 138:Src/adc.c     ****     hdma_adc1.Init.PeriphInc = DMA_PINC_DISABLE;
 139:Src/adc.c     ****     hdma_adc1.Init.MemInc = DMA_MINC_ENABLE;
 140:Src/adc.c     ****     hdma_adc1.Init.PeriphDataAlignment = DMA_PDATAALIGN_HALFWORD;
 141:Src/adc.c     ****     hdma_adc1.Init.MemDataAlignment = DMA_MDATAALIGN_HALFWORD;
 142:Src/adc.c     ****     hdma_adc1.Init.Mode = DMA_NORMAL;
 143:Src/adc.c     ****     hdma_adc1.Init.Priority = DMA_PRIORITY_LOW;
 144:Src/adc.c     ****     if (HAL_DMA_Init(&hdma_adc1) != HAL_OK)
 145:Src/adc.c     ****     {
 146:Src/adc.c     ****       _Error_Handler(__FILE__, __LINE__);
 147:Src/adc.c     ****     }
 148:Src/adc.c     **** 
 149:Src/adc.c     ****     __HAL_LINKDMA(adcHandle,DMA_Handle,hdma_adc1);
 150:Src/adc.c     **** 
 151:Src/adc.c     ****   /* USER CODE BEGIN ADC1_MspInit 1 */
 152:Src/adc.c     **** 
 153:Src/adc.c     ****   /* USER CODE END ADC1_MspInit 1 */
 154:Src/adc.c     ****   }
 155:Src/adc.c     ****   else if(adcHandle->Instance==ADC2)
 289              		.loc 1 155 0
 290 000c 2C4A     		ldr	r2, .L31
 291 000e 9342     		cmp	r3, r2
 292 0010 38D0     		beq	.L27
 293              	.LVL11:
 294              	.L19:
 156:Src/adc.c     ****   {
 157:Src/adc.c     ****   /* USER CODE BEGIN ADC2_MspInit 0 */
 158:Src/adc.c     **** 
 159:Src/adc.c     ****   /* USER CODE END ADC2_MspInit 0 */
 160:Src/adc.c     ****     /* Peripheral clock enable */
 161:Src/adc.c     ****     HAL_RCC_ADC12_CLK_ENABLED++;
 162:Src/adc.c     ****     if(HAL_RCC_ADC12_CLK_ENABLED==1){
ARM GAS  /var/folders/p7/nwmyw04531jbkqkgv59cx10h0000gn/T//ccVTZlkz.s 			page 9


 163:Src/adc.c     ****       __HAL_RCC_ADC12_CLK_ENABLE();
 164:Src/adc.c     ****     }
 165:Src/adc.c     ****   
 166:Src/adc.c     ****     /**ADC2 GPIO Configuration    
 167:Src/adc.c     ****     PA4     ------> ADC2_IN1 
 168:Src/adc.c     ****     */
 169:Src/adc.c     ****     GPIO_InitStruct.Pin = GPIO_PIN_4;
 170:Src/adc.c     ****     GPIO_InitStruct.Mode = GPIO_MODE_ANALOG;
 171:Src/adc.c     ****     GPIO_InitStruct.Pull = GPIO_NOPULL;
 172:Src/adc.c     ****     HAL_GPIO_Init(GPIOA, &GPIO_InitStruct);
 173:Src/adc.c     **** 
 174:Src/adc.c     ****   /* USER CODE BEGIN ADC2_MspInit 1 */
 175:Src/adc.c     **** 
 176:Src/adc.c     ****   /* USER CODE END ADC2_MspInit 1 */
 177:Src/adc.c     ****   }
 178:Src/adc.c     **** }
 295              		.loc 1 178 0
 296 0012 09B0     		add	sp, sp, #36
 297              	.LCFI10:
 298              		.cfi_remember_state
 299              		.cfi_def_cfa_offset 12
 300              		@ sp needed
 301 0014 30BD     		pop	{r4, r5, pc}
 302              	.LVL12:
 303              	.L26:
 304              	.LCFI11:
 305              		.cfi_restore_state
 306 0016 0446     		mov	r4, r0
 119:Src/adc.c     ****     if(HAL_RCC_ADC12_CLK_ENABLED==1){
 307              		.loc 1 119 0
 308 0018 2A4A     		ldr	r2, .L31+4
 309 001a 1368     		ldr	r3, [r2]
 310 001c 0133     		adds	r3, r3, #1
 311 001e 1360     		str	r3, [r2]
 120:Src/adc.c     ****       __HAL_RCC_ADC12_CLK_ENABLE();
 312              		.loc 1 120 0
 313 0020 012B     		cmp	r3, #1
 314 0022 1FD0     		beq	.L28
 315              	.L21:
 129:Src/adc.c     ****     GPIO_InitStruct.Mode = GPIO_MODE_ANALOG;
 316              		.loc 1 129 0
 317 0024 0723     		movs	r3, #7
 318 0026 0393     		str	r3, [sp, #12]
 130:Src/adc.c     ****     GPIO_InitStruct.Pull = GPIO_NOPULL;
 319              		.loc 1 130 0
 320 0028 0323     		movs	r3, #3
 321 002a 0493     		str	r3, [sp, #16]
 131:Src/adc.c     ****     HAL_GPIO_Init(GPIOC, &GPIO_InitStruct);
 322              		.loc 1 131 0
 323 002c 0025     		movs	r5, #0
 324 002e 0595     		str	r5, [sp, #20]
 132:Src/adc.c     **** 
 325              		.loc 1 132 0
 326 0030 03A9     		add	r1, sp, #12
 327 0032 2548     		ldr	r0, .L31+8
 328              	.LVL13:
 329 0034 FFF7FEFF 		bl	HAL_GPIO_Init
ARM GAS  /var/folders/p7/nwmyw04531jbkqkgv59cx10h0000gn/T//ccVTZlkz.s 			page 10


 330              	.LVL14:
 136:Src/adc.c     ****     hdma_adc1.Init.Direction = DMA_PERIPH_TO_MEMORY;
 331              		.loc 1 136 0
 332 0038 2448     		ldr	r0, .L31+12
 333 003a 254B     		ldr	r3, .L31+16
 334 003c 0360     		str	r3, [r0]
 137:Src/adc.c     ****     hdma_adc1.Init.PeriphInc = DMA_PINC_DISABLE;
 335              		.loc 1 137 0
 336 003e 4560     		str	r5, [r0, #4]
 138:Src/adc.c     ****     hdma_adc1.Init.MemInc = DMA_MINC_ENABLE;
 337              		.loc 1 138 0
 338 0040 8560     		str	r5, [r0, #8]
 139:Src/adc.c     ****     hdma_adc1.Init.PeriphDataAlignment = DMA_PDATAALIGN_HALFWORD;
 339              		.loc 1 139 0
 340 0042 8023     		movs	r3, #128
 341 0044 C360     		str	r3, [r0, #12]
 140:Src/adc.c     ****     hdma_adc1.Init.MemDataAlignment = DMA_MDATAALIGN_HALFWORD;
 342              		.loc 1 140 0
 343 0046 4FF48073 		mov	r3, #256
 344 004a 0361     		str	r3, [r0, #16]
 141:Src/adc.c     ****     hdma_adc1.Init.Mode = DMA_NORMAL;
 345              		.loc 1 141 0
 346 004c 4FF48063 		mov	r3, #1024
 347 0050 4361     		str	r3, [r0, #20]
 142:Src/adc.c     ****     hdma_adc1.Init.Priority = DMA_PRIORITY_LOW;
 348              		.loc 1 142 0
 349 0052 8561     		str	r5, [r0, #24]
 143:Src/adc.c     ****     if (HAL_DMA_Init(&hdma_adc1) != HAL_OK)
 350              		.loc 1 143 0
 351 0054 C561     		str	r5, [r0, #28]
 144:Src/adc.c     ****     {
 352              		.loc 1 144 0
 353 0056 FFF7FEFF 		bl	HAL_DMA_Init
 354              	.LVL15:
 355 005a 70B9     		cbnz	r0, .L29
 356              	.L22:
 149:Src/adc.c     **** 
 357              		.loc 1 149 0
 358 005c 1B4B     		ldr	r3, .L31+12
 359 005e E363     		str	r3, [r4, #60]
 360 0060 5C62     		str	r4, [r3, #36]
 361 0062 D6E7     		b	.L19
 362              	.LVL16:
 363              	.L28:
 364              	.LBB2:
 121:Src/adc.c     ****     }
 365              		.loc 1 121 0
 366 0064 1B4B     		ldr	r3, .L31+20
 367 0066 5A69     		ldr	r2, [r3, #20]
 368 0068 42F08052 		orr	r2, r2, #268435456
 369 006c 5A61     		str	r2, [r3, #20]
 370 006e 5B69     		ldr	r3, [r3, #20]
 371 0070 03F08053 		and	r3, r3, #268435456
 372 0074 0193     		str	r3, [sp, #4]
 373 0076 019B     		ldr	r3, [sp, #4]
 374 0078 D4E7     		b	.L21
 375              	.LVL17:
ARM GAS  /var/folders/p7/nwmyw04531jbkqkgv59cx10h0000gn/T//ccVTZlkz.s 			page 11


 376              	.L29:
 377              	.LBE2:
 146:Src/adc.c     ****     }
 378              		.loc 1 146 0
 379 007a 9221     		movs	r1, #146
 380 007c 1648     		ldr	r0, .L31+24
 381 007e FFF7FEFF 		bl	_Error_Handler
 382              	.LVL18:
 383 0082 EBE7     		b	.L22
 384              	.LVL19:
 385              	.L27:
 161:Src/adc.c     ****     if(HAL_RCC_ADC12_CLK_ENABLED==1){
 386              		.loc 1 161 0
 387 0084 0F4A     		ldr	r2, .L31+4
 388 0086 1368     		ldr	r3, [r2]
 389 0088 0133     		adds	r3, r3, #1
 390 008a 1360     		str	r3, [r2]
 162:Src/adc.c     ****       __HAL_RCC_ADC12_CLK_ENABLE();
 391              		.loc 1 162 0
 392 008c 012B     		cmp	r3, #1
 393 008e 0BD0     		beq	.L30
 394              	.L24:
 169:Src/adc.c     ****     GPIO_InitStruct.Mode = GPIO_MODE_ANALOG;
 395              		.loc 1 169 0
 396 0090 1023     		movs	r3, #16
 397 0092 0393     		str	r3, [sp, #12]
 170:Src/adc.c     ****     GPIO_InitStruct.Pull = GPIO_NOPULL;
 398              		.loc 1 170 0
 399 0094 0323     		movs	r3, #3
 400 0096 0493     		str	r3, [sp, #16]
 171:Src/adc.c     ****     HAL_GPIO_Init(GPIOA, &GPIO_InitStruct);
 401              		.loc 1 171 0
 402 0098 0023     		movs	r3, #0
 403 009a 0593     		str	r3, [sp, #20]
 172:Src/adc.c     **** 
 404              		.loc 1 172 0
 405 009c 03A9     		add	r1, sp, #12
 406 009e 4FF09040 		mov	r0, #1207959552
 407              	.LVL20:
 408 00a2 FFF7FEFF 		bl	HAL_GPIO_Init
 409              	.LVL21:
 410              		.loc 1 178 0
 411 00a6 B4E7     		b	.L19
 412              	.LVL22:
 413              	.L30:
 414              	.LBB3:
 163:Src/adc.c     ****     }
 415              		.loc 1 163 0
 416 00a8 0A4B     		ldr	r3, .L31+20
 417 00aa 5A69     		ldr	r2, [r3, #20]
 418 00ac 42F08052 		orr	r2, r2, #268435456
 419 00b0 5A61     		str	r2, [r3, #20]
 420 00b2 5B69     		ldr	r3, [r3, #20]
 421 00b4 03F08053 		and	r3, r3, #268435456
 422 00b8 0293     		str	r3, [sp, #8]
 423 00ba 029B     		ldr	r3, [sp, #8]
 424 00bc E8E7     		b	.L24
ARM GAS  /var/folders/p7/nwmyw04531jbkqkgv59cx10h0000gn/T//ccVTZlkz.s 			page 12


 425              	.L32:
 426 00be 00BF     		.align	2
 427              	.L31:
 428 00c0 00010050 		.word	1342177536
 429 00c4 00000000 		.word	.LANCHOR0
 430 00c8 00080048 		.word	1207961600
 431 00cc 00000000 		.word	hdma_adc1
 432 00d0 08000240 		.word	1073872904
 433 00d4 00100240 		.word	1073876992
 434 00d8 00000000 		.word	.LC0
 435              	.LBE3:
 436              		.cfi_endproc
 437              	.LFE126:
 439              		.section	.text.HAL_ADC_MspDeInit,"ax",%progbits
 440              		.align	1
 441              		.global	HAL_ADC_MspDeInit
 442              		.syntax unified
 443              		.thumb
 444              		.thumb_func
 445              		.fpu fpv4-sp-d16
 447              	HAL_ADC_MspDeInit:
 448              	.LFB127:
 179:Src/adc.c     **** 
 180:Src/adc.c     **** void HAL_ADC_MspDeInit(ADC_HandleTypeDef* adcHandle)
 181:Src/adc.c     **** {
 449              		.loc 1 181 0
 450              		.cfi_startproc
 451              		@ args = 0, pretend = 0, frame = 0
 452              		@ frame_needed = 0, uses_anonymous_args = 0
 453              	.LVL23:
 454 0000 10B5     		push	{r4, lr}
 455              	.LCFI12:
 456              		.cfi_def_cfa_offset 8
 457              		.cfi_offset 4, -8
 458              		.cfi_offset 14, -4
 182:Src/adc.c     **** 
 183:Src/adc.c     ****   if(adcHandle->Instance==ADC1)
 459              		.loc 1 183 0
 460 0002 0368     		ldr	r3, [r0]
 461 0004 B3F1A04F 		cmp	r3, #1342177280
 462 0008 03D0     		beq	.L37
 184:Src/adc.c     ****   {
 185:Src/adc.c     ****   /* USER CODE BEGIN ADC1_MspDeInit 0 */
 186:Src/adc.c     **** 
 187:Src/adc.c     ****   /* USER CODE END ADC1_MspDeInit 0 */
 188:Src/adc.c     ****     /* Peripheral clock disable */
 189:Src/adc.c     ****     /* Be sure that all peripheral instances that share the same clock need to be disabled */
 190:Src/adc.c     ****     /**  HAL_RCC_ADC12_CLK_ENABLED--;
 191:Src/adc.c     ****     *  if(HAL_RCC_ADC12_CLK_ENABLED==0){
 192:Src/adc.c     ****     *    __HAL_RCC_ADC12_CLK_DISABLE();
 193:Src/adc.c     ****     **/
 194:Src/adc.c     ****   
 195:Src/adc.c     ****     /**ADC1 GPIO Configuration    
 196:Src/adc.c     ****     PC0     ------> ADC1_IN6
 197:Src/adc.c     ****     PC1     ------> ADC1_IN7
 198:Src/adc.c     ****     PC2     ------> ADC1_IN8 
 199:Src/adc.c     ****     */
ARM GAS  /var/folders/p7/nwmyw04531jbkqkgv59cx10h0000gn/T//ccVTZlkz.s 			page 13


 200:Src/adc.c     ****     HAL_GPIO_DeInit(GPIOC, GPIO_PIN_0|GPIO_PIN_1|GPIO_PIN_2);
 201:Src/adc.c     **** 
 202:Src/adc.c     ****     /* ADC1 DMA DeInit */
 203:Src/adc.c     ****     HAL_DMA_DeInit(adcHandle->DMA_Handle);
 204:Src/adc.c     ****   /* USER CODE BEGIN ADC1_MspDeInit 1 */
 205:Src/adc.c     **** 
 206:Src/adc.c     ****   /* USER CODE END ADC1_MspDeInit 1 */
 207:Src/adc.c     ****   }
 208:Src/adc.c     ****   else if(adcHandle->Instance==ADC2)
 463              		.loc 1 208 0
 464 000a 094A     		ldr	r2, .L39
 465 000c 9342     		cmp	r3, r2
 466 000e 09D0     		beq	.L38
 467              	.LVL24:
 468              	.L33:
 469 0010 10BD     		pop	{r4, pc}
 470              	.LVL25:
 471              	.L37:
 472 0012 0446     		mov	r4, r0
 200:Src/adc.c     **** 
 473              		.loc 1 200 0
 474 0014 0721     		movs	r1, #7
 475 0016 0748     		ldr	r0, .L39+4
 476              	.LVL26:
 477 0018 FFF7FEFF 		bl	HAL_GPIO_DeInit
 478              	.LVL27:
 203:Src/adc.c     ****   /* USER CODE BEGIN ADC1_MspDeInit 1 */
 479              		.loc 1 203 0
 480 001c E06B     		ldr	r0, [r4, #60]
 481 001e FFF7FEFF 		bl	HAL_DMA_DeInit
 482              	.LVL28:
 483 0022 10BD     		pop	{r4, pc}
 484              	.LVL29:
 485              	.L38:
 209:Src/adc.c     ****   {
 210:Src/adc.c     ****   /* USER CODE BEGIN ADC2_MspDeInit 0 */
 211:Src/adc.c     **** 
 212:Src/adc.c     ****   /* USER CODE END ADC2_MspDeInit 0 */
 213:Src/adc.c     ****     /* Peripheral clock disable */
 214:Src/adc.c     ****     /* Be sure that all peripheral instances that share the same clock need to be disabled */
 215:Src/adc.c     ****     /**  HAL_RCC_ADC12_CLK_ENABLED--;
 216:Src/adc.c     ****     *  if(HAL_RCC_ADC12_CLK_ENABLED==0){
 217:Src/adc.c     ****     *    __HAL_RCC_ADC12_CLK_DISABLE();
 218:Src/adc.c     ****     **/
 219:Src/adc.c     ****   
 220:Src/adc.c     ****     /**ADC2 GPIO Configuration    
 221:Src/adc.c     ****     PA4     ------> ADC2_IN1 
 222:Src/adc.c     ****     */
 223:Src/adc.c     ****     HAL_GPIO_DeInit(GPIOA, GPIO_PIN_4);
 486              		.loc 1 223 0
 487 0024 1021     		movs	r1, #16
 488 0026 4FF09040 		mov	r0, #1207959552
 489              	.LVL30:
 490 002a FFF7FEFF 		bl	HAL_GPIO_DeInit
 491              	.LVL31:
 224:Src/adc.c     **** 
 225:Src/adc.c     ****   }
ARM GAS  /var/folders/p7/nwmyw04531jbkqkgv59cx10h0000gn/T//ccVTZlkz.s 			page 14


 226:Src/adc.c     **** } 
 492              		.loc 1 226 0
 493 002e EFE7     		b	.L33
 494              	.L40:
 495              		.align	2
 496              	.L39:
 497 0030 00010050 		.word	1342177536
 498 0034 00080048 		.word	1207961600
 499              		.cfi_endproc
 500              	.LFE127:
 502              		.comm	hdma_adc1,68,4
 503              		.comm	hadc2,84,4
 504              		.comm	hadc1,84,4
 505              		.section	.bss.HAL_RCC_ADC12_CLK_ENABLED,"aw",%nobits
 506              		.align	2
 507              		.set	.LANCHOR0,. + 0
 510              	HAL_RCC_ADC12_CLK_ENABLED:
 511 0000 00000000 		.space	4
 512              		.section	.rodata.MX_ADC1_Init.str1.4,"aMS",%progbits,1
 513              		.align	2
 514              	.LC0:
 515 0000 5372632F 		.ascii	"Src/adc.c\000"
 515      6164632E 
 515      6300
 516              		.text
 517              	.Letext0:
 518              		.file 2 "/usr/local/Caskroom/gcc-arm-embedded/6-2017-q1-update/gcc-arm-none-eabi-6-2017-q1-update/
 519              		.file 3 "/usr/local/Caskroom/gcc-arm-embedded/6-2017-q1-update/gcc-arm-none-eabi-6-2017-q1-update/
 520              		.file 4 "Drivers/CMSIS/Include/core_cm4.h"
 521              		.file 5 "Drivers/CMSIS/Device/ST/STM32F3xx/Include/system_stm32f3xx.h"
 522              		.file 6 "Drivers/CMSIS/Device/ST/STM32F3xx/Include/stm32f334x8.h"
 523              		.file 7 "/usr/local/Caskroom/gcc-arm-embedded/6-2017-q1-update/gcc-arm-none-eabi-6-2017-q1-update/
 524              		.file 8 "/usr/local/Caskroom/gcc-arm-embedded/6-2017-q1-update/gcc-arm-none-eabi-6-2017-q1-update/
 525              		.file 9 "/usr/local/Caskroom/gcc-arm-embedded/6-2017-q1-update/gcc-arm-none-eabi-6-2017-q1-update/
 526              		.file 10 "/usr/local/Caskroom/gcc-arm-embedded/6-2017-q1-update/gcc-arm-none-eabi-6-2017-q1-update
 527              		.file 11 "Drivers/CMSIS/Device/ST/STM32F3xx/Include/stm32f3xx.h"
 528              		.file 12 "Drivers/STM32F3xx_HAL_Driver/Inc/stm32f3xx_hal_def.h"
 529              		.file 13 "Drivers/STM32F3xx_HAL_Driver/Inc/stm32f3xx_hal_gpio.h"
 530              		.file 14 "Drivers/STM32F3xx_HAL_Driver/Inc/stm32f3xx_hal_dma.h"
 531              		.file 15 "Drivers/STM32F3xx_HAL_Driver/Inc/stm32f3xx_hal_adc_ex.h"
 532              		.file 16 "Drivers/STM32F3xx_HAL_Driver/Inc/stm32f3xx_hal_adc.h"
 533              		.file 17 "Inc/adc.h"
 534              		.file 18 "Inc/dma.h"
ARM GAS  /var/folders/p7/nwmyw04531jbkqkgv59cx10h0000gn/T//ccVTZlkz.s 			page 15

