ARM GAS  /var/folders/p7/nwmyw04531jbkqkgv59cx10h0000gn/T//ccQnBvAQ.s 			page 1


   1              		.cpu cortex-m4
   2              		.eabi_attribute 27, 1
   3              		.eabi_attribute 28, 1
   4              		.eabi_attribute 20, 1
   5              		.eabi_attribute 21, 1
   6              		.eabi_attribute 23, 3
   7              		.eabi_attribute 24, 1
   8              		.eabi_attribute 25, 1
   9              		.eabi_attribute 26, 1
  10              		.eabi_attribute 30, 1
  11              		.eabi_attribute 34, 1
  12              		.eabi_attribute 18, 4
  13              		.file	"gpio.c"
  14              		.text
  15              	.Ltext0:
  16              		.cfi_sections	.debug_frame
  17              		.section	.text.MX_GPIO_Init,"ax",%progbits
  18              		.align	1
  19              		.global	MX_GPIO_Init
  20              		.syntax unified
  21              		.thumb
  22              		.thumb_func
  23              		.fpu fpv4-sp-d16
  25              	MX_GPIO_Init:
  26              	.LFB124:
  27              		.file 1 "Src/gpio.c"
   1:Src/gpio.c    **** /**
   2:Src/gpio.c    ****   ******************************************************************************
   3:Src/gpio.c    ****   * File Name          : gpio.c
   4:Src/gpio.c    ****   * Description        : This file provides code for the configuration
   5:Src/gpio.c    ****   *                      of all used GPIO pins.
   6:Src/gpio.c    ****   ******************************************************************************
   7:Src/gpio.c    **** */
   8:Src/gpio.c    **** #include "gpio.h"
   9:Src/gpio.c    **** /*----------------------------------------------------------------------------*/
  10:Src/gpio.c    **** /* Configure GPIO                                                             */
  11:Src/gpio.c    **** /*----------------------------------------------------------------------------*/
  12:Src/gpio.c    **** /* USER CODE BEGIN 1 */
  13:Src/gpio.c    **** 
  14:Src/gpio.c    **** /* USER CODE END 1 */
  15:Src/gpio.c    **** 
  16:Src/gpio.c    **** /** Configure pins as 
  17:Src/gpio.c    ****         * Analog 
  18:Src/gpio.c    ****         * Input 
  19:Src/gpio.c    ****         * Output
  20:Src/gpio.c    ****         * EVENT_OUT
  21:Src/gpio.c    ****         * EXTI
  22:Src/gpio.c    **** */
  23:Src/gpio.c    **** void MX_GPIO_Init(void)
  24:Src/gpio.c    **** {
  28              		.loc 1 24 0
  29              		.cfi_startproc
  30              		@ args = 0, pretend = 0, frame = 40
  31              		@ frame_needed = 0, uses_anonymous_args = 0
  32 0000 2DE9F041 		push	{r4, r5, r6, r7, r8, lr}
  33              	.LCFI0:
  34              		.cfi_def_cfa_offset 24
ARM GAS  /var/folders/p7/nwmyw04531jbkqkgv59cx10h0000gn/T//ccQnBvAQ.s 			page 2


  35              		.cfi_offset 4, -24
  36              		.cfi_offset 5, -20
  37              		.cfi_offset 6, -16
  38              		.cfi_offset 7, -12
  39              		.cfi_offset 8, -8
  40              		.cfi_offset 14, -4
  41 0004 8AB0     		sub	sp, sp, #40
  42              	.LCFI1:
  43              		.cfi_def_cfa_offset 64
  44              	.LBB2:
  25:Src/gpio.c    **** 
  26:Src/gpio.c    ****   GPIO_InitTypeDef GPIO_InitStruct;
  27:Src/gpio.c    **** 
  28:Src/gpio.c    ****   /* GPIO Ports Clock Enable */
  29:Src/gpio.c    ****   __HAL_RCC_GPIOC_CLK_ENABLE();
  45              		.loc 1 29 0
  46 0006 404B     		ldr	r3, .L3
  47 0008 5A69     		ldr	r2, [r3, #20]
  48 000a 42F40022 		orr	r2, r2, #524288
  49 000e 5A61     		str	r2, [r3, #20]
  50 0010 5A69     		ldr	r2, [r3, #20]
  51 0012 02F40022 		and	r2, r2, #524288
  52 0016 0092     		str	r2, [sp]
  53 0018 009A     		ldr	r2, [sp]
  54              	.LBE2:
  55              	.LBB3:
  30:Src/gpio.c    ****   __HAL_RCC_GPIOF_CLK_ENABLE();
  56              		.loc 1 30 0
  57 001a 5A69     		ldr	r2, [r3, #20]
  58 001c 42F48002 		orr	r2, r2, #4194304
  59 0020 5A61     		str	r2, [r3, #20]
  60 0022 5A69     		ldr	r2, [r3, #20]
  61 0024 02F48002 		and	r2, r2, #4194304
  62 0028 0192     		str	r2, [sp, #4]
  63 002a 019A     		ldr	r2, [sp, #4]
  64              	.LBE3:
  65              	.LBB4:
  31:Src/gpio.c    ****   __HAL_RCC_GPIOA_CLK_ENABLE();
  66              		.loc 1 31 0
  67 002c 5A69     		ldr	r2, [r3, #20]
  68 002e 42F40032 		orr	r2, r2, #131072
  69 0032 5A61     		str	r2, [r3, #20]
  70 0034 5A69     		ldr	r2, [r3, #20]
  71 0036 02F40032 		and	r2, r2, #131072
  72 003a 0292     		str	r2, [sp, #8]
  73 003c 029A     		ldr	r2, [sp, #8]
  74              	.LBE4:
  75              	.LBB5:
  32:Src/gpio.c    ****   __HAL_RCC_GPIOB_CLK_ENABLE();
  76              		.loc 1 32 0
  77 003e 5A69     		ldr	r2, [r3, #20]
  78 0040 42F48022 		orr	r2, r2, #262144
  79 0044 5A61     		str	r2, [r3, #20]
  80 0046 5A69     		ldr	r2, [r3, #20]
  81 0048 02F48022 		and	r2, r2, #262144
  82 004c 0392     		str	r2, [sp, #12]
  83 004e 039A     		ldr	r2, [sp, #12]
ARM GAS  /var/folders/p7/nwmyw04531jbkqkgv59cx10h0000gn/T//ccQnBvAQ.s 			page 3


  84              	.LBE5:
  85              	.LBB6:
  33:Src/gpio.c    ****   __HAL_RCC_GPIOD_CLK_ENABLE();
  86              		.loc 1 33 0
  87 0050 5A69     		ldr	r2, [r3, #20]
  88 0052 42F48012 		orr	r2, r2, #1048576
  89 0056 5A61     		str	r2, [r3, #20]
  90 0058 5B69     		ldr	r3, [r3, #20]
  91 005a 03F48013 		and	r3, r3, #1048576
  92 005e 0493     		str	r3, [sp, #16]
  93 0060 049B     		ldr	r3, [sp, #16]
  94              	.LBE6:
  34:Src/gpio.c    **** 
  35:Src/gpio.c    ****   /*Configure GPIO pin Output Level */
  36:Src/gpio.c    ****   HAL_GPIO_WritePin(GPIOC, LED3_Pin|GLED1_Pin|GLED2_Pin|RLED1_Pin 
  95              		.loc 1 36 0
  96 0062 2A4F     		ldr	r7, .L3+4
  97 0064 0022     		movs	r2, #0
  98 0066 43F6A051 		movw	r1, #15776
  99 006a 3846     		mov	r0, r7
 100 006c FFF7FEFF 		bl	HAL_GPIO_WritePin
 101              	.LVL0:
  37:Src/gpio.c    ****                           |LED0_Pin|LED1_Pin|LED2_Pin, GPIO_PIN_RESET);
  38:Src/gpio.c    **** 
  39:Src/gpio.c    ****   /*Configure GPIO pin Output Level */
  40:Src/gpio.c    ****   HAL_GPIO_WritePin(GPIOA, PA0_Pin|PA1_Pin|SS1_Pin, GPIO_PIN_RESET);
 102              		.loc 1 40 0
 103 0070 0022     		movs	r2, #0
 104 0072 41F20301 		movw	r1, #4099
 105 0076 4FF09040 		mov	r0, #1207959552
 106 007a FFF7FEFF 		bl	HAL_GPIO_WritePin
 107              	.LVL1:
  41:Src/gpio.c    **** 
  42:Src/gpio.c    ****   /*Configure GPIO pin Output Level */
  43:Src/gpio.c    ****   HAL_GPIO_WritePin(GPIOB, SS3_Pin|SWTEN_Pin|WDT_Pin|SS0_Pin 
 108              		.loc 1 43 0
 109 007e DFF89480 		ldr	r8, .L3+12
 110 0082 0022     		movs	r2, #0
 111 0084 4CF2C401 		movw	r1, #49348
 112 0088 4046     		mov	r0, r8
 113 008a FFF7FEFF 		bl	HAL_GPIO_WritePin
 114              	.LVL2:
  44:Src/gpio.c    ****                           |SDA_Pin, GPIO_PIN_RESET);
  45:Src/gpio.c    **** 
  46:Src/gpio.c    ****   /*Configure GPIO pin Output Level */
  47:Src/gpio.c    ****   HAL_GPIO_WritePin(RLED2_GPIO_Port, RLED2_Pin, GPIO_PIN_RESET);
 115              		.loc 1 47 0
 116 008e 204E     		ldr	r6, .L3+8
 117 0090 0022     		movs	r2, #0
 118 0092 0421     		movs	r1, #4
 119 0094 3046     		mov	r0, r6
 120 0096 FFF7FEFF 		bl	HAL_GPIO_WritePin
 121              	.LVL3:
  48:Src/gpio.c    **** 
  49:Src/gpio.c    ****   /*Configure GPIO pins : PCPin PCPin PCPin PCPin 
  50:Src/gpio.c    ****                            PCPin PCPin PCPin */
  51:Src/gpio.c    ****   GPIO_InitStruct.Pin = LED3_Pin|GLED1_Pin|GLED2_Pin|RLED1_Pin 
ARM GAS  /var/folders/p7/nwmyw04531jbkqkgv59cx10h0000gn/T//ccQnBvAQ.s 			page 4


 122              		.loc 1 51 0
 123 009a 43F6A053 		movw	r3, #15776
 124 009e 0593     		str	r3, [sp, #20]
  52:Src/gpio.c    ****                           |LED0_Pin|LED1_Pin|LED2_Pin;
  53:Src/gpio.c    ****   GPIO_InitStruct.Mode = GPIO_MODE_OUTPUT_PP;
 125              		.loc 1 53 0
 126 00a0 0125     		movs	r5, #1
 127 00a2 0695     		str	r5, [sp, #24]
  54:Src/gpio.c    ****   GPIO_InitStruct.Pull = GPIO_NOPULL;
 128              		.loc 1 54 0
 129 00a4 0024     		movs	r4, #0
 130 00a6 0794     		str	r4, [sp, #28]
  55:Src/gpio.c    ****   GPIO_InitStruct.Speed = GPIO_SPEED_FREQ_LOW;
 131              		.loc 1 55 0
 132 00a8 0894     		str	r4, [sp, #32]
  56:Src/gpio.c    ****   HAL_GPIO_Init(GPIOC, &GPIO_InitStruct);
 133              		.loc 1 56 0
 134 00aa 05A9     		add	r1, sp, #20
 135 00ac 3846     		mov	r0, r7
 136 00ae FFF7FEFF 		bl	HAL_GPIO_Init
 137              	.LVL4:
  57:Src/gpio.c    **** 
  58:Src/gpio.c    ****   /*Configure GPIO pins : PAPin PAPin PAPin */
  59:Src/gpio.c    ****   GPIO_InitStruct.Pin = PA0_Pin|PA1_Pin|SS1_Pin;
 138              		.loc 1 59 0
 139 00b2 41F20303 		movw	r3, #4099
 140 00b6 0593     		str	r3, [sp, #20]
  60:Src/gpio.c    ****   GPIO_InitStruct.Mode = GPIO_MODE_OUTPUT_PP;
 141              		.loc 1 60 0
 142 00b8 0695     		str	r5, [sp, #24]
  61:Src/gpio.c    ****   GPIO_InitStruct.Pull = GPIO_NOPULL;
 143              		.loc 1 61 0
 144 00ba 0794     		str	r4, [sp, #28]
  62:Src/gpio.c    ****   GPIO_InitStruct.Speed = GPIO_SPEED_FREQ_LOW;
 145              		.loc 1 62 0
 146 00bc 0894     		str	r4, [sp, #32]
  63:Src/gpio.c    ****   HAL_GPIO_Init(GPIOA, &GPIO_InitStruct);
 147              		.loc 1 63 0
 148 00be 05A9     		add	r1, sp, #20
 149 00c0 4FF09040 		mov	r0, #1207959552
 150 00c4 FFF7FEFF 		bl	HAL_GPIO_Init
 151              	.LVL5:
  64:Src/gpio.c    **** 
  65:Src/gpio.c    ****   /*Configure GPIO pin : PtPin */
  66:Src/gpio.c    ****   GPIO_InitStruct.Pin = PA2_Pin;
 152              		.loc 1 66 0
 153 00c8 0427     		movs	r7, #4
 154 00ca 0597     		str	r7, [sp, #20]
  67:Src/gpio.c    ****   GPIO_InitStruct.Mode = GPIO_MODE_ANALOG;
 155              		.loc 1 67 0
 156 00cc 0323     		movs	r3, #3
 157 00ce 0693     		str	r3, [sp, #24]
  68:Src/gpio.c    ****   GPIO_InitStruct.Pull = GPIO_NOPULL;
 158              		.loc 1 68 0
 159 00d0 0794     		str	r4, [sp, #28]
  69:Src/gpio.c    ****   HAL_GPIO_Init(PA2_GPIO_Port, &GPIO_InitStruct);
 160              		.loc 1 69 0
ARM GAS  /var/folders/p7/nwmyw04531jbkqkgv59cx10h0000gn/T//ccQnBvAQ.s 			page 5


 161 00d2 05A9     		add	r1, sp, #20
 162 00d4 4FF09040 		mov	r0, #1207959552
 163 00d8 FFF7FEFF 		bl	HAL_GPIO_Init
 164              	.LVL6:
  70:Src/gpio.c    **** 
  71:Src/gpio.c    ****   /*Configure GPIO pins : PBPin PBPin PBPin PBPin 
  72:Src/gpio.c    ****                            PBPin */
  73:Src/gpio.c    ****   GPIO_InitStruct.Pin = SS3_Pin|SWTEN_Pin|WDT_Pin|SS0_Pin 
 165              		.loc 1 73 0
 166 00dc 4CF2C403 		movw	r3, #49348
 167 00e0 0593     		str	r3, [sp, #20]
  74:Src/gpio.c    ****                           |SDA_Pin;
  75:Src/gpio.c    ****   GPIO_InitStruct.Mode = GPIO_MODE_OUTPUT_PP;
 168              		.loc 1 75 0
 169 00e2 0695     		str	r5, [sp, #24]
  76:Src/gpio.c    ****   GPIO_InitStruct.Pull = GPIO_NOPULL;
 170              		.loc 1 76 0
 171 00e4 0794     		str	r4, [sp, #28]
  77:Src/gpio.c    ****   GPIO_InitStruct.Speed = GPIO_SPEED_FREQ_LOW;
 172              		.loc 1 77 0
 173 00e6 0894     		str	r4, [sp, #32]
  78:Src/gpio.c    ****   HAL_GPIO_Init(GPIOB, &GPIO_InitStruct);
 174              		.loc 1 78 0
 175 00e8 05A9     		add	r1, sp, #20
 176 00ea 4046     		mov	r0, r8
 177 00ec FFF7FEFF 		bl	HAL_GPIO_Init
 178              	.LVL7:
  79:Src/gpio.c    **** 
  80:Src/gpio.c    ****   /*Configure GPIO pin : PtPin */
  81:Src/gpio.c    ****   GPIO_InitStruct.Pin = RLED2_Pin;
 179              		.loc 1 81 0
 180 00f0 0597     		str	r7, [sp, #20]
  82:Src/gpio.c    ****   GPIO_InitStruct.Mode = GPIO_MODE_OUTPUT_PP;
 181              		.loc 1 82 0
 182 00f2 0695     		str	r5, [sp, #24]
  83:Src/gpio.c    ****   GPIO_InitStruct.Pull = GPIO_NOPULL;
 183              		.loc 1 83 0
 184 00f4 0794     		str	r4, [sp, #28]
  84:Src/gpio.c    ****   GPIO_InitStruct.Speed = GPIO_SPEED_FREQ_LOW;
 185              		.loc 1 84 0
 186 00f6 0894     		str	r4, [sp, #32]
  85:Src/gpio.c    ****   HAL_GPIO_Init(RLED2_GPIO_Port, &GPIO_InitStruct);
 187              		.loc 1 85 0
 188 00f8 05A9     		add	r1, sp, #20
 189 00fa 3046     		mov	r0, r6
 190 00fc FFF7FEFF 		bl	HAL_GPIO_Init
 191              	.LVL8:
  86:Src/gpio.c    **** 
  87:Src/gpio.c    **** }
 192              		.loc 1 87 0
 193 0100 0AB0     		add	sp, sp, #40
 194              	.LCFI2:
 195              		.cfi_def_cfa_offset 24
 196              		@ sp needed
 197 0102 BDE8F081 		pop	{r4, r5, r6, r7, r8, pc}
 198              	.L4:
 199 0106 00BF     		.align	2
ARM GAS  /var/folders/p7/nwmyw04531jbkqkgv59cx10h0000gn/T//ccQnBvAQ.s 			page 6


 200              	.L3:
 201 0108 00100240 		.word	1073876992
 202 010c 00080048 		.word	1207961600
 203 0110 000C0048 		.word	1207962624
 204 0114 00040048 		.word	1207960576
 205              		.cfi_endproc
 206              	.LFE124:
 208              		.comm	globalTick,4,4
 209              		.text
 210              	.Letext0:
 211              		.file 2 "/usr/local/Caskroom/gcc-arm-embedded/6-2017-q1-update/gcc-arm-none-eabi-6-2017-q1-update/
 212              		.file 3 "/usr/local/Caskroom/gcc-arm-embedded/6-2017-q1-update/gcc-arm-none-eabi-6-2017-q1-update/
 213              		.file 4 "Inc/main.h"
 214              		.file 5 "Drivers/CMSIS/Include/core_cm4.h"
 215              		.file 6 "Drivers/CMSIS/Device/ST/STM32F3xx/Include/system_stm32f3xx.h"
 216              		.file 7 "Drivers/CMSIS/Device/ST/STM32F3xx/Include/stm32f334x8.h"
 217              		.file 8 "/usr/local/Caskroom/gcc-arm-embedded/6-2017-q1-update/gcc-arm-none-eabi-6-2017-q1-update/
 218              		.file 9 "/usr/local/Caskroom/gcc-arm-embedded/6-2017-q1-update/gcc-arm-none-eabi-6-2017-q1-update/
 219              		.file 10 "/usr/local/Caskroom/gcc-arm-embedded/6-2017-q1-update/gcc-arm-none-eabi-6-2017-q1-update
 220              		.file 11 "/usr/local/Caskroom/gcc-arm-embedded/6-2017-q1-update/gcc-arm-none-eabi-6-2017-q1-update
 221              		.file 12 "Drivers/STM32F3xx_HAL_Driver/Inc/stm32f3xx_hal_gpio.h"
ARM GAS  /var/folders/p7/nwmyw04531jbkqkgv59cx10h0000gn/T//ccQnBvAQ.s 			page 7

