ARM GAS  /var/folders/p7/nwmyw04531jbkqkgv59cx10h0000gn/T//ccvY19bo.s 			page 1


   1              		.cpu cortex-m4
   2              		.eabi_attribute 27, 1
   3              		.eabi_attribute 28, 1
   4              		.eabi_attribute 20, 1
   5              		.eabi_attribute 21, 1
   6              		.eabi_attribute 23, 3
   7              		.eabi_attribute 24, 1
   8              		.eabi_attribute 25, 1
   9              		.eabi_attribute 26, 1
  10              		.eabi_attribute 30, 1
  11              		.eabi_attribute 34, 1
  12              		.eabi_attribute 18, 4
  13              		.file	"init.c"
  14              		.text
  15              	.Ltext0:
  16              		.cfi_sections	.debug_frame
  17              		.section	.text.SystemClock_Config,"ax",%progbits
  18              		.align	1
  19              		.global	SystemClock_Config
  20              		.syntax unified
  21              		.thumb
  22              		.thumb_func
  23              		.fpu fpv4-sp-d16
  25              	SystemClock_Config:
  26              	.LFB124:
  27              		.file 1 "Src/init.c"
   1:Src/init.c    **** #include "stm32f3xx_hal.h"
   2:Src/init.c    **** #include "init.h"
   3:Src/init.c    **** /** System Clock Configuration
   4:Src/init.c    **** */
   5:Src/init.c    **** void SystemClock_Config(void)
   6:Src/init.c    **** {
  28              		.loc 1 6 0
  29              		.cfi_startproc
  30              		@ args = 0, pretend = 0, frame = 88
  31              		@ frame_needed = 0, uses_anonymous_args = 0
  32 0000 00B5     		push	{lr}
  33              	.LCFI0:
  34              		.cfi_def_cfa_offset 4
  35              		.cfi_offset 14, -4
  36 0002 97B0     		sub	sp, sp, #92
  37              	.LCFI1:
  38              		.cfi_def_cfa_offset 96
   7:Src/init.c    **** 
   8:Src/init.c    ****   RCC_OscInitTypeDef RCC_OscInitStruct;
   9:Src/init.c    ****   RCC_ClkInitTypeDef RCC_ClkInitStruct;
  10:Src/init.c    ****   RCC_PeriphCLKInitTypeDef PeriphClkInit;
  11:Src/init.c    **** 
  12:Src/init.c    ****     /**Initializes the CPU, AHB and APB busses clocks 
  13:Src/init.c    ****     */
  14:Src/init.c    ****   RCC_OscInitStruct.OscillatorType = RCC_OSCILLATORTYPE_LSI|RCC_OSCILLATORTYPE_HSE;
  39              		.loc 1 14 0
  40 0004 0923     		movs	r3, #9
  41 0006 0C93     		str	r3, [sp, #48]
  15:Src/init.c    ****   RCC_OscInitStruct.HSEState = RCC_HSE_ON;
  42              		.loc 1 15 0
  43 0008 4FF48033 		mov	r3, #65536
ARM GAS  /var/folders/p7/nwmyw04531jbkqkgv59cx10h0000gn/T//ccvY19bo.s 			page 2


  44 000c 0D93     		str	r3, [sp, #52]
  16:Src/init.c    ****   RCC_OscInitStruct.HSEPredivValue = RCC_HSE_PREDIV_DIV1;
  45              		.loc 1 16 0
  46 000e 0022     		movs	r2, #0
  47 0010 0E92     		str	r2, [sp, #56]
  17:Src/init.c    ****   RCC_OscInitStruct.HSIState = RCC_HSI_ON;
  48              		.loc 1 17 0
  49 0012 0122     		movs	r2, #1
  50 0014 1092     		str	r2, [sp, #64]
  18:Src/init.c    ****   RCC_OscInitStruct.LSIState = RCC_LSI_ON;
  51              		.loc 1 18 0
  52 0016 1292     		str	r2, [sp, #72]
  19:Src/init.c    ****   RCC_OscInitStruct.PLL.PLLState = RCC_PLL_ON;
  53              		.loc 1 19 0
  54 0018 0222     		movs	r2, #2
  55 001a 1392     		str	r2, [sp, #76]
  20:Src/init.c    ****   RCC_OscInitStruct.PLL.PLLSource = RCC_PLLSOURCE_HSE;
  56              		.loc 1 20 0
  57 001c 1493     		str	r3, [sp, #80]
  21:Src/init.c    ****   RCC_OscInitStruct.PLL.PLLMUL = RCC_PLL_MUL9;
  58              		.loc 1 21 0
  59 001e 4FF4E013 		mov	r3, #1835008
  60 0022 1593     		str	r3, [sp, #84]
  22:Src/init.c    ****   if (HAL_RCC_OscConfig(&RCC_OscInitStruct) != HAL_OK)
  61              		.loc 1 22 0
  62 0024 0CA8     		add	r0, sp, #48
  63 0026 FFF7FEFF 		bl	HAL_RCC_OscConfig
  64              	.LVL0:
  65 002a 68BB     		cbnz	r0, .L6
  66              	.L2:
  23:Src/init.c    ****   {
  24:Src/init.c    ****     _Error_Handler(__FILE__, __LINE__);
  25:Src/init.c    ****   }
  26:Src/init.c    **** 
  27:Src/init.c    ****     /**Initializes the CPU, AHB and APB busses clocks 
  28:Src/init.c    ****     */
  29:Src/init.c    ****   RCC_ClkInitStruct.ClockType = RCC_CLOCKTYPE_HCLK|RCC_CLOCKTYPE_SYSCLK
  67              		.loc 1 29 0
  68 002c 0F23     		movs	r3, #15
  69 002e 0793     		str	r3, [sp, #28]
  30:Src/init.c    ****                               |RCC_CLOCKTYPE_PCLK1|RCC_CLOCKTYPE_PCLK2;
  31:Src/init.c    ****   RCC_ClkInitStruct.SYSCLKSource = RCC_SYSCLKSOURCE_PLLCLK;
  70              		.loc 1 31 0
  71 0030 0221     		movs	r1, #2
  72 0032 0891     		str	r1, [sp, #32]
  32:Src/init.c    ****   RCC_ClkInitStruct.AHBCLKDivider = RCC_SYSCLK_DIV1;
  73              		.loc 1 32 0
  74 0034 0023     		movs	r3, #0
  75 0036 0993     		str	r3, [sp, #36]
  33:Src/init.c    ****   RCC_ClkInitStruct.APB1CLKDivider = RCC_HCLK_DIV2;
  76              		.loc 1 33 0
  77 0038 4FF48062 		mov	r2, #1024
  78 003c 0A92     		str	r2, [sp, #40]
  34:Src/init.c    ****   RCC_ClkInitStruct.APB2CLKDivider = RCC_HCLK_DIV1;
  79              		.loc 1 34 0
  80 003e 0B93     		str	r3, [sp, #44]
  35:Src/init.c    **** 
ARM GAS  /var/folders/p7/nwmyw04531jbkqkgv59cx10h0000gn/T//ccvY19bo.s 			page 3


  36:Src/init.c    ****   if (HAL_RCC_ClockConfig(&RCC_ClkInitStruct, FLASH_LATENCY_2) != HAL_OK)
  81              		.loc 1 36 0
  82 0040 07A8     		add	r0, sp, #28
  83 0042 FFF7FEFF 		bl	HAL_RCC_ClockConfig
  84              	.LVL1:
  85 0046 20BB     		cbnz	r0, .L7
  86              	.L3:
  37:Src/init.c    ****   {
  38:Src/init.c    ****     _Error_Handler(__FILE__, __LINE__);
  39:Src/init.c    ****   }
  40:Src/init.c    **** 
  41:Src/init.c    ****   PeriphClkInit.PeriphClockSelection = RCC_PERIPHCLK_RTC|RCC_PERIPHCLK_ADC12;
  87              		.loc 1 41 0
  88 0048 174B     		ldr	r3, .L9
  89 004a 0093     		str	r3, [sp]
  42:Src/init.c    ****   PeriphClkInit.Adc12ClockSelection = RCC_ADC12PLLCLK_DIV1;
  90              		.loc 1 42 0
  91 004c 4FF48073 		mov	r3, #256
  92 0050 0493     		str	r3, [sp, #16]
  43:Src/init.c    ****   PeriphClkInit.RTCClockSelection = RCC_RTCCLKSOURCE_LSI;
  93              		.loc 1 43 0
  94 0052 4FF40073 		mov	r3, #512
  95 0056 0193     		str	r3, [sp, #4]
  44:Src/init.c    ****   if (HAL_RCCEx_PeriphCLKConfig(&PeriphClkInit) != HAL_OK)
  96              		.loc 1 44 0
  97 0058 6846     		mov	r0, sp
  98 005a FFF7FEFF 		bl	HAL_RCCEx_PeriphCLKConfig
  99              	.LVL2:
 100 005e E8B9     		cbnz	r0, .L8
 101              	.L4:
  45:Src/init.c    ****   {
  46:Src/init.c    ****     _Error_Handler(__FILE__, __LINE__);
  47:Src/init.c    ****   }
  48:Src/init.c    **** 
  49:Src/init.c    ****     /**Configure the Systick interrupt time 
  50:Src/init.c    ****     */
  51:Src/init.c    ****   HAL_SYSTICK_Config(HAL_RCC_GetHCLKFreq()/1000);
 102              		.loc 1 51 0
 103 0060 FFF7FEFF 		bl	HAL_RCC_GetHCLKFreq
 104              	.LVL3:
 105 0064 114B     		ldr	r3, .L9+4
 106 0066 A3FB0030 		umull	r3, r0, r3, r0
 107 006a 8009     		lsrs	r0, r0, #6
 108 006c FFF7FEFF 		bl	HAL_SYSTICK_Config
 109              	.LVL4:
  52:Src/init.c    **** 
  53:Src/init.c    ****     /**Configure the Systick 
  54:Src/init.c    ****     */
  55:Src/init.c    ****   HAL_SYSTICK_CLKSourceConfig(SYSTICK_CLKSOURCE_HCLK);
 110              		.loc 1 55 0
 111 0070 0420     		movs	r0, #4
 112 0072 FFF7FEFF 		bl	HAL_SYSTICK_CLKSourceConfig
 113              	.LVL5:
  56:Src/init.c    **** 
  57:Src/init.c    ****   /* SysTick_IRQn interrupt configuration */
  58:Src/init.c    ****   HAL_NVIC_SetPriority(SysTick_IRQn, 0, 0);
 114              		.loc 1 58 0
ARM GAS  /var/folders/p7/nwmyw04531jbkqkgv59cx10h0000gn/T//ccvY19bo.s 			page 4


 115 0076 0022     		movs	r2, #0
 116 0078 1146     		mov	r1, r2
 117 007a 4FF0FF30 		mov	r0, #-1
 118 007e FFF7FEFF 		bl	HAL_NVIC_SetPriority
 119              	.LVL6:
  59:Src/init.c    **** }
 120              		.loc 1 59 0
 121 0082 17B0     		add	sp, sp, #92
 122              	.LCFI2:
 123              		.cfi_remember_state
 124              		.cfi_def_cfa_offset 4
 125              		@ sp needed
 126 0084 5DF804FB 		ldr	pc, [sp], #4
 127              	.L6:
 128              	.LCFI3:
 129              		.cfi_restore_state
  24:Src/init.c    ****   }
 130              		.loc 1 24 0
 131 0088 1821     		movs	r1, #24
 132 008a 0948     		ldr	r0, .L9+8
 133 008c FFF7FEFF 		bl	_Error_Handler
 134              	.LVL7:
 135 0090 CCE7     		b	.L2
 136              	.L7:
  38:Src/init.c    ****   }
 137              		.loc 1 38 0
 138 0092 2621     		movs	r1, #38
 139 0094 0648     		ldr	r0, .L9+8
 140 0096 FFF7FEFF 		bl	_Error_Handler
 141              	.LVL8:
 142 009a D5E7     		b	.L3
 143              	.L8:
  46:Src/init.c    ****   }
 144              		.loc 1 46 0
 145 009c 2E21     		movs	r1, #46
 146 009e 0448     		ldr	r0, .L9+8
 147 00a0 FFF7FEFF 		bl	_Error_Handler
 148              	.LVL9:
 149 00a4 DCE7     		b	.L4
 150              	.L10:
 151 00a6 00BF     		.align	2
 152              	.L9:
 153 00a8 80000100 		.word	65664
 154 00ac D34D6210 		.word	274877907
 155 00b0 00000000 		.word	.LC0
 156              		.cfi_endproc
 157              	.LFE124:
 159              		.section	.text.MX_ADC1_Init,"ax",%progbits
 160              		.align	1
 161              		.global	MX_ADC1_Init
 162              		.syntax unified
 163              		.thumb
 164              		.thumb_func
 165              		.fpu fpv4-sp-d16
 167              	MX_ADC1_Init:
 168              	.LFB125:
  60:Src/init.c    **** 
ARM GAS  /var/folders/p7/nwmyw04531jbkqkgv59cx10h0000gn/T//ccvY19bo.s 			page 5


  61:Src/init.c    **** 
  62:Src/init.c    **** /* ADC1 init function */
  63:Src/init.c    **** void MX_ADC1_Init(void)
  64:Src/init.c    **** {
 169              		.loc 1 64 0
 170              		.cfi_startproc
 171              		@ args = 0, pretend = 0, frame = 40
 172              		@ frame_needed = 0, uses_anonymous_args = 0
 173 0000 00B5     		push	{lr}
 174              	.LCFI4:
 175              		.cfi_def_cfa_offset 4
 176              		.cfi_offset 14, -4
 177 0002 8BB0     		sub	sp, sp, #44
 178              	.LCFI5:
 179              		.cfi_def_cfa_offset 48
  65:Src/init.c    **** 
  66:Src/init.c    ****   ADC_MultiModeTypeDef multimode;
  67:Src/init.c    ****   ADC_ChannelConfTypeDef sConfig;
  68:Src/init.c    **** 
  69:Src/init.c    ****     /**Common config 
  70:Src/init.c    ****     */
  71:Src/init.c    ****   hadc1.Instance = ADC1;
 180              		.loc 1 71 0
 181 0004 1F48     		ldr	r0, .L19
 182 0006 4FF0A043 		mov	r3, #1342177280
 183 000a 0360     		str	r3, [r0]
  72:Src/init.c    ****   hadc1.Init.ClockPrescaler = ADC_CLOCK_ASYNC_DIV1;
 184              		.loc 1 72 0
 185 000c 0023     		movs	r3, #0
 186 000e 4360     		str	r3, [r0, #4]
  73:Src/init.c    ****   hadc1.Init.Resolution = ADC_RESOLUTION_12B;
 187              		.loc 1 73 0
 188 0010 8360     		str	r3, [r0, #8]
  74:Src/init.c    ****   hadc1.Init.ScanConvMode = ADC_SCAN_DISABLE;
 189              		.loc 1 74 0
 190 0012 0361     		str	r3, [r0, #16]
  75:Src/init.c    ****   hadc1.Init.ContinuousConvMode = DISABLE;
 191              		.loc 1 75 0
 192 0014 C361     		str	r3, [r0, #28]
  76:Src/init.c    ****   hadc1.Init.DiscontinuousConvMode = DISABLE;
 193              		.loc 1 76 0
 194 0016 4362     		str	r3, [r0, #36]
  77:Src/init.c    ****   hadc1.Init.ExternalTrigConvEdge = ADC_EXTERNALTRIGCONVEDGE_NONE;
 195              		.loc 1 77 0
 196 0018 0363     		str	r3, [r0, #48]
  78:Src/init.c    ****   hadc1.Init.ExternalTrigConv = ADC_SOFTWARE_START;
 197              		.loc 1 78 0
 198 001a 0122     		movs	r2, #1
 199 001c C262     		str	r2, [r0, #44]
  79:Src/init.c    ****   hadc1.Init.DataAlign = ADC_DATAALIGN_RIGHT;
 200              		.loc 1 79 0
 201 001e C360     		str	r3, [r0, #12]
  80:Src/init.c    ****   hadc1.Init.NbrOfConversion = 1;
 202              		.loc 1 80 0
 203 0020 0262     		str	r2, [r0, #32]
  81:Src/init.c    ****   hadc1.Init.DMAContinuousRequests = DISABLE;
 204              		.loc 1 81 0
ARM GAS  /var/folders/p7/nwmyw04531jbkqkgv59cx10h0000gn/T//ccvY19bo.s 			page 6


 205 0022 4363     		str	r3, [r0, #52]
  82:Src/init.c    ****   hadc1.Init.EOCSelection = ADC_EOC_SINGLE_CONV;
 206              		.loc 1 82 0
 207 0024 0422     		movs	r2, #4
 208 0026 4261     		str	r2, [r0, #20]
  83:Src/init.c    ****   hadc1.Init.LowPowerAutoWait = DISABLE;
 209              		.loc 1 83 0
 210 0028 8361     		str	r3, [r0, #24]
  84:Src/init.c    ****   hadc1.Init.Overrun = ADC_OVR_DATA_OVERWRITTEN;
 211              		.loc 1 84 0
 212 002a 8363     		str	r3, [r0, #56]
  85:Src/init.c    ****   if (HAL_ADC_Init(&hadc1) != HAL_OK)
 213              		.loc 1 85 0
 214 002c FFF7FEFF 		bl	HAL_ADC_Init
 215              	.LVL10:
 216 0030 C0B9     		cbnz	r0, .L16
 217              	.L12:
  86:Src/init.c    ****   {
  87:Src/init.c    ****     _Error_Handler(__FILE__, __LINE__);
  88:Src/init.c    ****   }
  89:Src/init.c    **** 
  90:Src/init.c    ****     /**Configure the ADC multi-mode 
  91:Src/init.c    ****     */
  92:Src/init.c    ****   multimode.Mode = ADC_MODE_INDEPENDENT;
 218              		.loc 1 92 0
 219 0032 0AA9     		add	r1, sp, #40
 220 0034 0023     		movs	r3, #0
 221 0036 41F80C3D 		str	r3, [r1, #-12]!
  93:Src/init.c    ****   if (HAL_ADCEx_MultiModeConfigChannel(&hadc1, &multimode) != HAL_OK)
 222              		.loc 1 93 0
 223 003a 1248     		ldr	r0, .L19
 224 003c FFF7FEFF 		bl	HAL_ADCEx_MultiModeConfigChannel
 225              	.LVL11:
 226 0040 A8B9     		cbnz	r0, .L17
 227              	.L13:
  94:Src/init.c    ****   {
  95:Src/init.c    ****     _Error_Handler(__FILE__, __LINE__);
  96:Src/init.c    ****   }
  97:Src/init.c    **** 
  98:Src/init.c    ****     /**Configure Regular Channel 
  99:Src/init.c    ****     */
 100:Src/init.c    ****   sConfig.Channel = ADC_CHANNEL_6;
 228              		.loc 1 100 0
 229 0042 0623     		movs	r3, #6
 230 0044 0193     		str	r3, [sp, #4]
 101:Src/init.c    ****   sConfig.Rank = 1;
 231              		.loc 1 101 0
 232 0046 0123     		movs	r3, #1
 233 0048 0293     		str	r3, [sp, #8]
 102:Src/init.c    ****   sConfig.SingleDiff = ADC_SINGLE_ENDED;
 234              		.loc 1 102 0
 235 004a 0023     		movs	r3, #0
 236 004c 0493     		str	r3, [sp, #16]
 103:Src/init.c    ****   sConfig.SamplingTime = ADC_SAMPLETIME_1CYCLE_5;
 237              		.loc 1 103 0
 238 004e 0393     		str	r3, [sp, #12]
 104:Src/init.c    ****   sConfig.OffsetNumber = ADC_OFFSET_NONE;
ARM GAS  /var/folders/p7/nwmyw04531jbkqkgv59cx10h0000gn/T//ccvY19bo.s 			page 7


 239              		.loc 1 104 0
 240 0050 0593     		str	r3, [sp, #20]
 105:Src/init.c    ****   sConfig.Offset = 0;
 241              		.loc 1 105 0
 242 0052 0693     		str	r3, [sp, #24]
 106:Src/init.c    ****   if (HAL_ADC_ConfigChannel(&hadc1, &sConfig) != HAL_OK)
 243              		.loc 1 106 0
 244 0054 01A9     		add	r1, sp, #4
 245 0056 0B48     		ldr	r0, .L19
 246 0058 FFF7FEFF 		bl	HAL_ADC_ConfigChannel
 247              	.LVL12:
 248 005c 60B9     		cbnz	r0, .L18
 249              	.L11:
 107:Src/init.c    ****   {
 108:Src/init.c    ****     _Error_Handler(__FILE__, __LINE__);
 109:Src/init.c    ****   }
 110:Src/init.c    **** 
 111:Src/init.c    **** }
 250              		.loc 1 111 0
 251 005e 0BB0     		add	sp, sp, #44
 252              	.LCFI6:
 253              		.cfi_remember_state
 254              		.cfi_def_cfa_offset 4
 255              		@ sp needed
 256 0060 5DF804FB 		ldr	pc, [sp], #4
 257              	.L16:
 258              	.LCFI7:
 259              		.cfi_restore_state
  87:Src/init.c    ****   }
 260              		.loc 1 87 0
 261 0064 5721     		movs	r1, #87
 262 0066 0848     		ldr	r0, .L19+4
 263 0068 FFF7FEFF 		bl	_Error_Handler
 264              	.LVL13:
 265 006c E1E7     		b	.L12
 266              	.L17:
  95:Src/init.c    ****   }
 267              		.loc 1 95 0
 268 006e 5F21     		movs	r1, #95
 269 0070 0548     		ldr	r0, .L19+4
 270 0072 FFF7FEFF 		bl	_Error_Handler
 271              	.LVL14:
 272 0076 E4E7     		b	.L13
 273              	.L18:
 108:Src/init.c    ****   }
 274              		.loc 1 108 0
 275 0078 6C21     		movs	r1, #108
 276 007a 0348     		ldr	r0, .L19+4
 277 007c FFF7FEFF 		bl	_Error_Handler
 278              	.LVL15:
 279              		.loc 1 111 0
 280 0080 EDE7     		b	.L11
 281              	.L20:
 282 0082 00BF     		.align	2
 283              	.L19:
 284 0084 00000000 		.word	hadc1
 285 0088 00000000 		.word	.LC0
ARM GAS  /var/folders/p7/nwmyw04531jbkqkgv59cx10h0000gn/T//ccvY19bo.s 			page 8


 286              		.cfi_endproc
 287              	.LFE125:
 289              		.section	.text.MX_ADC2_Init,"ax",%progbits
 290              		.align	1
 291              		.global	MX_ADC2_Init
 292              		.syntax unified
 293              		.thumb
 294              		.thumb_func
 295              		.fpu fpv4-sp-d16
 297              	MX_ADC2_Init:
 298              	.LFB126:
 112:Src/init.c    **** 
 113:Src/init.c    **** /* ADC2 init function */
 114:Src/init.c    **** void MX_ADC2_Init(void)
 115:Src/init.c    **** {
 299              		.loc 1 115 0
 300              		.cfi_startproc
 301              		@ args = 0, pretend = 0, frame = 24
 302              		@ frame_needed = 0, uses_anonymous_args = 0
 303 0000 00B5     		push	{lr}
 304              	.LCFI8:
 305              		.cfi_def_cfa_offset 4
 306              		.cfi_offset 14, -4
 307 0002 87B0     		sub	sp, sp, #28
 308              	.LCFI9:
 309              		.cfi_def_cfa_offset 32
 116:Src/init.c    **** 
 117:Src/init.c    ****   ADC_ChannelConfTypeDef sConfig;
 118:Src/init.c    **** 
 119:Src/init.c    ****     /**Common config 
 120:Src/init.c    ****     */
 121:Src/init.c    ****   hadc2.Instance = ADC2;
 310              		.loc 1 121 0
 311 0004 1748     		ldr	r0, .L27
 312 0006 184B     		ldr	r3, .L27+4
 313 0008 0360     		str	r3, [r0]
 122:Src/init.c    ****   hadc2.Init.ClockPrescaler = ADC_CLOCK_ASYNC_DIV1;
 314              		.loc 1 122 0
 315 000a 0023     		movs	r3, #0
 316 000c 4360     		str	r3, [r0, #4]
 123:Src/init.c    ****   hadc2.Init.Resolution = ADC_RESOLUTION_12B;
 317              		.loc 1 123 0
 318 000e 8360     		str	r3, [r0, #8]
 124:Src/init.c    ****   hadc2.Init.ScanConvMode = ADC_SCAN_DISABLE;
 319              		.loc 1 124 0
 320 0010 0361     		str	r3, [r0, #16]
 125:Src/init.c    ****   hadc2.Init.ContinuousConvMode = DISABLE;
 321              		.loc 1 125 0
 322 0012 C361     		str	r3, [r0, #28]
 126:Src/init.c    ****   hadc2.Init.DiscontinuousConvMode = DISABLE;
 323              		.loc 1 126 0
 324 0014 4362     		str	r3, [r0, #36]
 127:Src/init.c    ****   hadc2.Init.ExternalTrigConvEdge = ADC_EXTERNALTRIGCONVEDGE_NONE;
 325              		.loc 1 127 0
 326 0016 0363     		str	r3, [r0, #48]
 128:Src/init.c    ****   hadc2.Init.ExternalTrigConv = ADC_SOFTWARE_START;
 327              		.loc 1 128 0
ARM GAS  /var/folders/p7/nwmyw04531jbkqkgv59cx10h0000gn/T//ccvY19bo.s 			page 9


 328 0018 0122     		movs	r2, #1
 329 001a C262     		str	r2, [r0, #44]
 129:Src/init.c    ****   hadc2.Init.DataAlign = ADC_DATAALIGN_RIGHT;
 330              		.loc 1 129 0
 331 001c C360     		str	r3, [r0, #12]
 130:Src/init.c    ****   hadc2.Init.NbrOfConversion = 1;
 332              		.loc 1 130 0
 333 001e 0262     		str	r2, [r0, #32]
 131:Src/init.c    ****   hadc2.Init.DMAContinuousRequests = DISABLE;
 334              		.loc 1 131 0
 335 0020 4363     		str	r3, [r0, #52]
 132:Src/init.c    ****   hadc2.Init.EOCSelection = ADC_EOC_SINGLE_CONV;
 336              		.loc 1 132 0
 337 0022 0422     		movs	r2, #4
 338 0024 4261     		str	r2, [r0, #20]
 133:Src/init.c    ****   hadc2.Init.LowPowerAutoWait = DISABLE;
 339              		.loc 1 133 0
 340 0026 8361     		str	r3, [r0, #24]
 134:Src/init.c    ****   hadc2.Init.Overrun = ADC_OVR_DATA_OVERWRITTEN;
 341              		.loc 1 134 0
 342 0028 8363     		str	r3, [r0, #56]
 135:Src/init.c    ****   if (HAL_ADC_Init(&hadc2) != HAL_OK)
 343              		.loc 1 135 0
 344 002a FFF7FEFF 		bl	HAL_ADC_Init
 345              	.LVL16:
 346 002e 78B9     		cbnz	r0, .L25
 347              	.L22:
 136:Src/init.c    ****   {
 137:Src/init.c    ****     _Error_Handler(__FILE__, __LINE__);
 138:Src/init.c    ****   }
 139:Src/init.c    **** 
 140:Src/init.c    ****     /**Configure Regular Channel 
 141:Src/init.c    ****     */
 142:Src/init.c    ****   sConfig.Channel = ADC_CHANNEL_1;
 348              		.loc 1 142 0
 349 0030 0123     		movs	r3, #1
 350 0032 0093     		str	r3, [sp]
 143:Src/init.c    ****   sConfig.Rank = 1;
 351              		.loc 1 143 0
 352 0034 0193     		str	r3, [sp, #4]
 144:Src/init.c    ****   sConfig.SingleDiff = ADC_SINGLE_ENDED;
 353              		.loc 1 144 0
 354 0036 0023     		movs	r3, #0
 355 0038 0393     		str	r3, [sp, #12]
 145:Src/init.c    ****   sConfig.SamplingTime = ADC_SAMPLETIME_1CYCLE_5;
 356              		.loc 1 145 0
 357 003a 0293     		str	r3, [sp, #8]
 146:Src/init.c    ****   sConfig.OffsetNumber = ADC_OFFSET_NONE;
 358              		.loc 1 146 0
 359 003c 0493     		str	r3, [sp, #16]
 147:Src/init.c    ****   sConfig.Offset = 0;
 360              		.loc 1 147 0
 361 003e 0593     		str	r3, [sp, #20]
 148:Src/init.c    ****   if (HAL_ADC_ConfigChannel(&hadc2, &sConfig) != HAL_OK)
 362              		.loc 1 148 0
 363 0040 6946     		mov	r1, sp
 364 0042 0848     		ldr	r0, .L27
ARM GAS  /var/folders/p7/nwmyw04531jbkqkgv59cx10h0000gn/T//ccvY19bo.s 			page 10


 365 0044 FFF7FEFF 		bl	HAL_ADC_ConfigChannel
 366              	.LVL17:
 367 0048 38B9     		cbnz	r0, .L26
 368              	.L21:
 149:Src/init.c    ****   {
 150:Src/init.c    ****     _Error_Handler(__FILE__, __LINE__);
 151:Src/init.c    ****   }
 152:Src/init.c    **** 
 153:Src/init.c    **** }
 369              		.loc 1 153 0
 370 004a 07B0     		add	sp, sp, #28
 371              	.LCFI10:
 372              		.cfi_remember_state
 373              		.cfi_def_cfa_offset 4
 374              		@ sp needed
 375 004c 5DF804FB 		ldr	pc, [sp], #4
 376              	.L25:
 377              	.LCFI11:
 378              		.cfi_restore_state
 137:Src/init.c    ****   }
 379              		.loc 1 137 0
 380 0050 8921     		movs	r1, #137
 381 0052 0648     		ldr	r0, .L27+8
 382 0054 FFF7FEFF 		bl	_Error_Handler
 383              	.LVL18:
 384 0058 EAE7     		b	.L22
 385              	.L26:
 150:Src/init.c    ****   }
 386              		.loc 1 150 0
 387 005a 9621     		movs	r1, #150
 388 005c 0348     		ldr	r0, .L27+8
 389 005e FFF7FEFF 		bl	_Error_Handler
 390              	.LVL19:
 391              		.loc 1 153 0
 392 0062 F2E7     		b	.L21
 393              	.L28:
 394              		.align	2
 395              	.L27:
 396 0064 00000000 		.word	hadc2
 397 0068 00010050 		.word	1342177536
 398 006c 00000000 		.word	.LC0
 399              		.cfi_endproc
 400              	.LFE126:
 402              		.section	.text.MX_CAN_Init,"ax",%progbits
 403              		.align	1
 404              		.global	MX_CAN_Init
 405              		.syntax unified
 406              		.thumb
 407              		.thumb_func
 408              		.fpu fpv4-sp-d16
 410              	MX_CAN_Init:
 411              	.LFB127:
 154:Src/init.c    **** 
 155:Src/init.c    **** /* CAN init function */
 156:Src/init.c    **** void MX_CAN_Init(void)
 157:Src/init.c    **** {
 412              		.loc 1 157 0
ARM GAS  /var/folders/p7/nwmyw04531jbkqkgv59cx10h0000gn/T//ccvY19bo.s 			page 11


 413              		.cfi_startproc
 414              		@ args = 0, pretend = 0, frame = 0
 415              		@ frame_needed = 0, uses_anonymous_args = 0
 416 0000 08B5     		push	{r3, lr}
 417              	.LCFI12:
 418              		.cfi_def_cfa_offset 8
 419              		.cfi_offset 3, -8
 420              		.cfi_offset 14, -4
 158:Src/init.c    **** 
 159:Src/init.c    ****   hcan.Instance = CAN;
 421              		.loc 1 159 0
 422 0002 0C48     		ldr	r0, .L33
 423 0004 0C4B     		ldr	r3, .L33+4
 424 0006 0360     		str	r3, [r0]
 160:Src/init.c    ****   hcan.Init.Prescaler = 16;
 425              		.loc 1 160 0
 426 0008 1023     		movs	r3, #16
 427 000a 4360     		str	r3, [r0, #4]
 161:Src/init.c    ****   hcan.Init.Mode = CAN_MODE_NORMAL;
 428              		.loc 1 161 0
 429 000c 0023     		movs	r3, #0
 430 000e 8360     		str	r3, [r0, #8]
 162:Src/init.c    ****   hcan.Init.SJW = CAN_SJW_1TQ;
 431              		.loc 1 162 0
 432 0010 C360     		str	r3, [r0, #12]
 163:Src/init.c    ****   hcan.Init.BS1 = CAN_BS1_1TQ;
 433              		.loc 1 163 0
 434 0012 0361     		str	r3, [r0, #16]
 164:Src/init.c    ****   hcan.Init.BS2 = CAN_BS2_1TQ;
 435              		.loc 1 164 0
 436 0014 4361     		str	r3, [r0, #20]
 165:Src/init.c    ****   hcan.Init.TTCM = DISABLE;
 437              		.loc 1 165 0
 438 0016 8361     		str	r3, [r0, #24]
 166:Src/init.c    ****   hcan.Init.ABOM = DISABLE;
 439              		.loc 1 166 0
 440 0018 C361     		str	r3, [r0, #28]
 167:Src/init.c    ****   hcan.Init.AWUM = DISABLE;
 441              		.loc 1 167 0
 442 001a 0362     		str	r3, [r0, #32]
 168:Src/init.c    ****   hcan.Init.NART = DISABLE;
 443              		.loc 1 168 0
 444 001c 4362     		str	r3, [r0, #36]
 169:Src/init.c    ****   hcan.Init.RFLM = DISABLE;
 445              		.loc 1 169 0
 446 001e 8362     		str	r3, [r0, #40]
 170:Src/init.c    ****   hcan.Init.TXFP = DISABLE;
 447              		.loc 1 170 0
 448 0020 C362     		str	r3, [r0, #44]
 171:Src/init.c    ****   if (HAL_CAN_Init(&hcan) != HAL_OK)
 449              		.loc 1 171 0
 450 0022 FFF7FEFF 		bl	HAL_CAN_Init
 451              	.LVL20:
 452 0026 00B9     		cbnz	r0, .L32
 453              	.L29:
 454 0028 08BD     		pop	{r3, pc}
 455              	.L32:
ARM GAS  /var/folders/p7/nwmyw04531jbkqkgv59cx10h0000gn/T//ccvY19bo.s 			page 12


 172:Src/init.c    ****   {
 173:Src/init.c    ****     _Error_Handler(__FILE__, __LINE__);
 456              		.loc 1 173 0
 457 002a AD21     		movs	r1, #173
 458 002c 0348     		ldr	r0, .L33+8
 459 002e FFF7FEFF 		bl	_Error_Handler
 460              	.LVL21:
 174:Src/init.c    ****   }
 175:Src/init.c    **** 
 176:Src/init.c    **** }
 461              		.loc 1 176 0
 462 0032 F9E7     		b	.L29
 463              	.L34:
 464              		.align	2
 465              	.L33:
 466 0034 00000000 		.word	hcan
 467 0038 00640040 		.word	1073767424
 468 003c 00000000 		.word	.LC0
 469              		.cfi_endproc
 470              	.LFE127:
 472              		.section	.text.MX_RTC_Init,"ax",%progbits
 473              		.align	1
 474              		.global	MX_RTC_Init
 475              		.syntax unified
 476              		.thumb
 477              		.thumb_func
 478              		.fpu fpv4-sp-d16
 480              	MX_RTC_Init:
 481              	.LFB128:
 177:Src/init.c    **** 
 178:Src/init.c    **** /* RTC init function */
 179:Src/init.c    **** void MX_RTC_Init(void)
 180:Src/init.c    **** {
 482              		.loc 1 180 0
 483              		.cfi_startproc
 484              		@ args = 0, pretend = 0, frame = 64
 485              		@ frame_needed = 0, uses_anonymous_args = 0
 486 0000 00B5     		push	{lr}
 487              	.LCFI13:
 488              		.cfi_def_cfa_offset 4
 489              		.cfi_offset 14, -4
 490 0002 91B0     		sub	sp, sp, #68
 491              	.LCFI14:
 492              		.cfi_def_cfa_offset 72
 181:Src/init.c    **** 
 182:Src/init.c    ****   RTC_TimeTypeDef sTime;
 183:Src/init.c    ****   RTC_DateTypeDef sDate;
 184:Src/init.c    ****   RTC_AlarmTypeDef sAlarm;
 185:Src/init.c    **** 
 186:Src/init.c    ****     /**Initialize RTC Only 
 187:Src/init.c    ****     */
 188:Src/init.c    ****   hrtc.Instance = RTC;
 493              		.loc 1 188 0
 494 0004 3548     		ldr	r0, .L46
 495 0006 364B     		ldr	r3, .L46+4
 496 0008 0360     		str	r3, [r0]
 189:Src/init.c    ****   hrtc.Init.HourFormat = RTC_HOURFORMAT_24;
ARM GAS  /var/folders/p7/nwmyw04531jbkqkgv59cx10h0000gn/T//ccvY19bo.s 			page 13


 497              		.loc 1 189 0
 498 000a 0023     		movs	r3, #0
 499 000c 4360     		str	r3, [r0, #4]
 190:Src/init.c    ****   hrtc.Init.AsynchPrediv = 127;
 500              		.loc 1 190 0
 501 000e 7F22     		movs	r2, #127
 502 0010 8260     		str	r2, [r0, #8]
 191:Src/init.c    ****   hrtc.Init.SynchPrediv = 255;
 503              		.loc 1 191 0
 504 0012 FF22     		movs	r2, #255
 505 0014 C260     		str	r2, [r0, #12]
 192:Src/init.c    ****   hrtc.Init.OutPut = RTC_OUTPUT_DISABLE;
 506              		.loc 1 192 0
 507 0016 0361     		str	r3, [r0, #16]
 193:Src/init.c    ****   hrtc.Init.OutPutPolarity = RTC_OUTPUT_POLARITY_HIGH;
 508              		.loc 1 193 0
 509 0018 4361     		str	r3, [r0, #20]
 194:Src/init.c    ****   hrtc.Init.OutPutType = RTC_OUTPUT_TYPE_OPENDRAIN;
 510              		.loc 1 194 0
 511 001a 8361     		str	r3, [r0, #24]
 195:Src/init.c    ****   if (HAL_RTC_Init(&hrtc) != HAL_OK)
 512              		.loc 1 195 0
 513 001c FFF7FEFF 		bl	HAL_RTC_Init
 514              	.LVL22:
 515 0020 0028     		cmp	r0, #0
 516 0022 47D1     		bne	.L42
 517              	.L36:
 196:Src/init.c    ****   {
 197:Src/init.c    ****     _Error_Handler(__FILE__, __LINE__);
 198:Src/init.c    ****   }
 199:Src/init.c    **** 
 200:Src/init.c    ****     /**Initialize RTC and set the Time and Date 
 201:Src/init.c    ****     */
 202:Src/init.c    ****   if(HAL_RTCEx_BKUPRead(&hrtc, RTC_BKP_DR0) != 0x32F2){
 518              		.loc 1 202 0
 519 0024 0021     		movs	r1, #0
 520 0026 2D48     		ldr	r0, .L46
 521 0028 FFF7FEFF 		bl	HAL_RTCEx_BKUPRead
 522              	.LVL23:
 523 002c 43F2F223 		movw	r3, #13042
 524 0030 9842     		cmp	r0, r3
 525 0032 24D0     		beq	.L37
 203:Src/init.c    ****   sTime.Hours = 0x0;
 526              		.loc 1 203 0
 527 0034 0023     		movs	r3, #0
 528 0036 8DF82C30 		strb	r3, [sp, #44]
 204:Src/init.c    ****   sTime.Minutes = 0x0;
 529              		.loc 1 204 0
 530 003a 8DF82D30 		strb	r3, [sp, #45]
 205:Src/init.c    ****   sTime.Seconds = 0x0;
 531              		.loc 1 205 0
 532 003e 8DF82E30 		strb	r3, [sp, #46]
 206:Src/init.c    ****   sTime.DayLightSaving = RTC_DAYLIGHTSAVING_NONE;
 533              		.loc 1 206 0
 534 0042 0E93     		str	r3, [sp, #56]
 207:Src/init.c    ****   sTime.StoreOperation = RTC_STOREOPERATION_RESET;
 535              		.loc 1 207 0
ARM GAS  /var/folders/p7/nwmyw04531jbkqkgv59cx10h0000gn/T//ccvY19bo.s 			page 14


 536 0044 0F93     		str	r3, [sp, #60]
 208:Src/init.c    ****   if (HAL_RTC_SetTime(&hrtc, &sTime, RTC_FORMAT_BCD) != HAL_OK)
 537              		.loc 1 208 0
 538 0046 0122     		movs	r2, #1
 539 0048 0BA9     		add	r1, sp, #44
 540 004a 2448     		ldr	r0, .L46
 541 004c FFF7FEFF 		bl	HAL_RTC_SetTime
 542              	.LVL24:
 543 0050 0028     		cmp	r0, #0
 544 0052 34D1     		bne	.L43
 545              	.L38:
 209:Src/init.c    ****   {
 210:Src/init.c    ****     _Error_Handler(__FILE__, __LINE__);
 211:Src/init.c    ****   }
 212:Src/init.c    **** 
 213:Src/init.c    ****   sDate.WeekDay = RTC_WEEKDAY_MONDAY;
 546              		.loc 1 213 0
 547 0054 0122     		movs	r2, #1
 548 0056 8DF82820 		strb	r2, [sp, #40]
 214:Src/init.c    ****   sDate.Month = RTC_MONTH_JANUARY;
 549              		.loc 1 214 0
 550 005a 8DF82920 		strb	r2, [sp, #41]
 215:Src/init.c    ****   sDate.Date = 0x1;
 551              		.loc 1 215 0
 552 005e 8DF82A20 		strb	r2, [sp, #42]
 216:Src/init.c    ****   sDate.Year = 0x0;
 553              		.loc 1 216 0
 554 0062 0023     		movs	r3, #0
 555 0064 8DF82B30 		strb	r3, [sp, #43]
 217:Src/init.c    **** 
 218:Src/init.c    ****   if (HAL_RTC_SetDate(&hrtc, &sDate, RTC_FORMAT_BCD) != HAL_OK)
 556              		.loc 1 218 0
 557 0068 0AA9     		add	r1, sp, #40
 558 006a 1C48     		ldr	r0, .L46
 559 006c FFF7FEFF 		bl	HAL_RTC_SetDate
 560              	.LVL25:
 561 0070 50BB     		cbnz	r0, .L44
 562              	.L39:
 219:Src/init.c    ****   {
 220:Src/init.c    ****     _Error_Handler(__FILE__, __LINE__);
 221:Src/init.c    ****   }
 222:Src/init.c    **** 
 223:Src/init.c    ****     HAL_RTCEx_BKUPWrite(&hrtc,RTC_BKP_DR0,0x32F2);
 563              		.loc 1 223 0
 564 0072 43F2F222 		movw	r2, #13042
 565 0076 0021     		movs	r1, #0
 566 0078 1848     		ldr	r0, .L46
 567 007a FFF7FEFF 		bl	HAL_RTCEx_BKUPWrite
 568              	.LVL26:
 569              	.L37:
 224:Src/init.c    ****   }
 225:Src/init.c    ****     /**Enable the Alarm A 
 226:Src/init.c    ****     */
 227:Src/init.c    ****   sAlarm.AlarmTime.Hours = 0x0;
 570              		.loc 1 227 0
 571 007e 0023     		movs	r3, #0
 572 0080 8DF80030 		strb	r3, [sp]
ARM GAS  /var/folders/p7/nwmyw04531jbkqkgv59cx10h0000gn/T//ccvY19bo.s 			page 15


 228:Src/init.c    ****   sAlarm.AlarmTime.Minutes = 0x0;
 573              		.loc 1 228 0
 574 0084 8DF80130 		strb	r3, [sp, #1]
 229:Src/init.c    ****   sAlarm.AlarmTime.Seconds = 0x0;
 575              		.loc 1 229 0
 576 0088 8DF80230 		strb	r3, [sp, #2]
 230:Src/init.c    ****   sAlarm.AlarmTime.SubSeconds = 0x0;
 577              		.loc 1 230 0
 578 008c 0193     		str	r3, [sp, #4]
 231:Src/init.c    ****   sAlarm.AlarmTime.DayLightSaving = RTC_DAYLIGHTSAVING_NONE;
 579              		.loc 1 231 0
 580 008e 0393     		str	r3, [sp, #12]
 232:Src/init.c    ****   sAlarm.AlarmTime.StoreOperation = RTC_STOREOPERATION_RESET;
 581              		.loc 1 232 0
 582 0090 0493     		str	r3, [sp, #16]
 233:Src/init.c    ****   sAlarm.AlarmMask = RTC_ALARMMASK_NONE;
 583              		.loc 1 233 0
 584 0092 0593     		str	r3, [sp, #20]
 234:Src/init.c    ****   sAlarm.AlarmSubSecondMask = RTC_ALARMSUBSECONDMASK_ALL;
 585              		.loc 1 234 0
 586 0094 0693     		str	r3, [sp, #24]
 235:Src/init.c    ****   sAlarm.AlarmDateWeekDaySel = RTC_ALARMDATEWEEKDAYSEL_DATE;
 587              		.loc 1 235 0
 588 0096 0793     		str	r3, [sp, #28]
 236:Src/init.c    ****   sAlarm.AlarmDateWeekDay = 0x1;
 589              		.loc 1 236 0
 590 0098 0122     		movs	r2, #1
 591 009a 8DF82020 		strb	r2, [sp, #32]
 237:Src/init.c    ****   sAlarm.Alarm = RTC_ALARM_A;
 592              		.loc 1 237 0
 593 009e 4FF48073 		mov	r3, #256
 594 00a2 0993     		str	r3, [sp, #36]
 238:Src/init.c    ****   if (HAL_RTC_SetAlarm(&hrtc, &sAlarm, RTC_FORMAT_BCD) != HAL_OK)
 595              		.loc 1 238 0
 596 00a4 6946     		mov	r1, sp
 597 00a6 0D48     		ldr	r0, .L46
 598 00a8 FFF7FEFF 		bl	HAL_RTC_SetAlarm
 599              	.LVL27:
 600 00ac 88B9     		cbnz	r0, .L45
 601              	.L35:
 239:Src/init.c    ****   {
 240:Src/init.c    ****     _Error_Handler(__FILE__, __LINE__);
 241:Src/init.c    ****   }
 242:Src/init.c    **** 
 243:Src/init.c    **** }
 602              		.loc 1 243 0
 603 00ae 11B0     		add	sp, sp, #68
 604              	.LCFI15:
 605              		.cfi_remember_state
 606              		.cfi_def_cfa_offset 4
 607              		@ sp needed
 608 00b0 5DF804FB 		ldr	pc, [sp], #4
 609              	.L42:
 610              	.LCFI16:
 611              		.cfi_restore_state
 197:Src/init.c    ****   }
 612              		.loc 1 197 0
ARM GAS  /var/folders/p7/nwmyw04531jbkqkgv59cx10h0000gn/T//ccvY19bo.s 			page 16


 613 00b4 C521     		movs	r1, #197
 614 00b6 0B48     		ldr	r0, .L46+8
 615 00b8 FFF7FEFF 		bl	_Error_Handler
 616              	.LVL28:
 617 00bc B2E7     		b	.L36
 618              	.L43:
 210:Src/init.c    ****   }
 619              		.loc 1 210 0
 620 00be D221     		movs	r1, #210
 621 00c0 0848     		ldr	r0, .L46+8
 622 00c2 FFF7FEFF 		bl	_Error_Handler
 623              	.LVL29:
 624 00c6 C5E7     		b	.L38
 625              	.L44:
 220:Src/init.c    ****   }
 626              		.loc 1 220 0
 627 00c8 DC21     		movs	r1, #220
 628 00ca 0648     		ldr	r0, .L46+8
 629 00cc FFF7FEFF 		bl	_Error_Handler
 630              	.LVL30:
 631 00d0 CFE7     		b	.L39
 632              	.L45:
 240:Src/init.c    ****   }
 633              		.loc 1 240 0
 634 00d2 F021     		movs	r1, #240
 635 00d4 0348     		ldr	r0, .L46+8
 636 00d6 FFF7FEFF 		bl	_Error_Handler
 637              	.LVL31:
 638              		.loc 1 243 0
 639 00da E8E7     		b	.L35
 640              	.L47:
 641              		.align	2
 642              	.L46:
 643 00dc 00000000 		.word	hrtc
 644 00e0 00280040 		.word	1073752064
 645 00e4 00000000 		.word	.LC0
 646              		.cfi_endproc
 647              	.LFE128:
 649              		.section	.text.MX_SPI1_Init,"ax",%progbits
 650              		.align	1
 651              		.global	MX_SPI1_Init
 652              		.syntax unified
 653              		.thumb
 654              		.thumb_func
 655              		.fpu fpv4-sp-d16
 657              	MX_SPI1_Init:
 658              	.LFB129:
 244:Src/init.c    **** 
 245:Src/init.c    **** /* SPI1 init function */
 246:Src/init.c    **** void MX_SPI1_Init(void)
 247:Src/init.c    **** {
 659              		.loc 1 247 0
 660              		.cfi_startproc
 661              		@ args = 0, pretend = 0, frame = 0
 662              		@ frame_needed = 0, uses_anonymous_args = 0
 663 0000 08B5     		push	{r3, lr}
 664              	.LCFI17:
ARM GAS  /var/folders/p7/nwmyw04531jbkqkgv59cx10h0000gn/T//ccvY19bo.s 			page 17


 665              		.cfi_def_cfa_offset 8
 666              		.cfi_offset 3, -8
 667              		.cfi_offset 14, -4
 248:Src/init.c    **** 
 249:Src/init.c    ****   hspi1.Instance = SPI1;
 668              		.loc 1 249 0
 669 0002 1148     		ldr	r0, .L52
 670 0004 114B     		ldr	r3, .L52+4
 671 0006 0360     		str	r3, [r0]
 250:Src/init.c    ****   hspi1.Init.Mode = SPI_MODE_MASTER;
 672              		.loc 1 250 0
 673 0008 4FF48273 		mov	r3, #260
 674 000c 4360     		str	r3, [r0, #4]
 251:Src/init.c    ****   hspi1.Init.Direction = SPI_DIRECTION_2LINES;
 675              		.loc 1 251 0
 676 000e 0023     		movs	r3, #0
 677 0010 8360     		str	r3, [r0, #8]
 252:Src/init.c    ****   hspi1.Init.DataSize = SPI_DATASIZE_8BIT;
 678              		.loc 1 252 0
 679 0012 4FF4E062 		mov	r2, #1792
 680 0016 C260     		str	r2, [r0, #12]
 253:Src/init.c    ****   hspi1.Init.CLKPolarity = SPI_POLARITY_LOW;
 681              		.loc 1 253 0
 682 0018 0361     		str	r3, [r0, #16]
 254:Src/init.c    ****   hspi1.Init.CLKPhase = SPI_PHASE_1EDGE;
 683              		.loc 1 254 0
 684 001a 4361     		str	r3, [r0, #20]
 255:Src/init.c    ****   hspi1.Init.NSS = SPI_NSS_SOFT;
 685              		.loc 1 255 0
 686 001c 4FF40072 		mov	r2, #512
 687 0020 8261     		str	r2, [r0, #24]
 256:Src/init.c    ****   hspi1.Init.BaudRatePrescaler = SPI_BAUDRATEPRESCALER_256;
 688              		.loc 1 256 0
 689 0022 3822     		movs	r2, #56
 690 0024 C261     		str	r2, [r0, #28]
 257:Src/init.c    ****   hspi1.Init.FirstBit = SPI_FIRSTBIT_MSB;
 691              		.loc 1 257 0
 692 0026 0362     		str	r3, [r0, #32]
 258:Src/init.c    ****   hspi1.Init.TIMode = SPI_TIMODE_DISABLE;
 693              		.loc 1 258 0
 694 0028 4362     		str	r3, [r0, #36]
 259:Src/init.c    ****   hspi1.Init.CRCCalculation = SPI_CRCCALCULATION_DISABLE;
 695              		.loc 1 259 0
 696 002a 8362     		str	r3, [r0, #40]
 260:Src/init.c    ****   hspi1.Init.CRCPolynomial = 7;
 697              		.loc 1 260 0
 698 002c 0722     		movs	r2, #7
 699 002e C262     		str	r2, [r0, #44]
 261:Src/init.c    ****   hspi1.Init.CRCLength = SPI_CRC_LENGTH_DATASIZE;
 700              		.loc 1 261 0
 701 0030 0363     		str	r3, [r0, #48]
 262:Src/init.c    ****   hspi1.Init.NSSPMode = SPI_NSS_PULSE_DISABLE;
 702              		.loc 1 262 0
 703 0032 4363     		str	r3, [r0, #52]
 263:Src/init.c    ****   if (HAL_SPI_Init(&hspi1) != HAL_OK)
 704              		.loc 1 263 0
 705 0034 FFF7FEFF 		bl	HAL_SPI_Init
ARM GAS  /var/folders/p7/nwmyw04531jbkqkgv59cx10h0000gn/T//ccvY19bo.s 			page 18


 706              	.LVL32:
 707 0038 00B9     		cbnz	r0, .L51
 708              	.L48:
 709 003a 08BD     		pop	{r3, pc}
 710              	.L51:
 264:Src/init.c    ****   {
 265:Src/init.c    ****     _Error_Handler(__FILE__, __LINE__);
 711              		.loc 1 265 0
 712 003c 40F20911 		movw	r1, #265
 713 0040 0348     		ldr	r0, .L52+8
 714 0042 FFF7FEFF 		bl	_Error_Handler
 715              	.LVL33:
 266:Src/init.c    ****   }
 267:Src/init.c    **** 
 268:Src/init.c    **** }
 716              		.loc 1 268 0
 717 0046 F8E7     		b	.L48
 718              	.L53:
 719              		.align	2
 720              	.L52:
 721 0048 00000000 		.word	hspi1
 722 004c 00300140 		.word	1073819648
 723 0050 00000000 		.word	.LC0
 724              		.cfi_endproc
 725              	.LFE129:
 727              		.section	.text.MX_USART3_UART_Init,"ax",%progbits
 728              		.align	1
 729              		.global	MX_USART3_UART_Init
 730              		.syntax unified
 731              		.thumb
 732              		.thumb_func
 733              		.fpu fpv4-sp-d16
 735              	MX_USART3_UART_Init:
 736              	.LFB130:
 269:Src/init.c    **** 
 270:Src/init.c    **** /* USART3 init function */
 271:Src/init.c    **** void MX_USART3_UART_Init(void)
 272:Src/init.c    **** {
 737              		.loc 1 272 0
 738              		.cfi_startproc
 739              		@ args = 0, pretend = 0, frame = 0
 740              		@ frame_needed = 0, uses_anonymous_args = 0
 741 0000 08B5     		push	{r3, lr}
 742              	.LCFI18:
 743              		.cfi_def_cfa_offset 8
 744              		.cfi_offset 3, -8
 745              		.cfi_offset 14, -4
 273:Src/init.c    **** 
 274:Src/init.c    ****   huart3.Instance = USART3;
 746              		.loc 1 274 0
 747 0002 0C48     		ldr	r0, .L58
 748 0004 0C4B     		ldr	r3, .L58+4
 749 0006 0360     		str	r3, [r0]
 275:Src/init.c    ****   huart3.Init.BaudRate = 38400;
 750              		.loc 1 275 0
 751 0008 4FF41643 		mov	r3, #38400
 752 000c 4360     		str	r3, [r0, #4]
ARM GAS  /var/folders/p7/nwmyw04531jbkqkgv59cx10h0000gn/T//ccvY19bo.s 			page 19


 276:Src/init.c    ****   huart3.Init.StopBits = UART_STOPBITS_1;
 753              		.loc 1 276 0
 754 000e 0023     		movs	r3, #0
 755 0010 C360     		str	r3, [r0, #12]
 277:Src/init.c    ****   huart3.Init.Parity = UART_PARITY_NONE;
 756              		.loc 1 277 0
 757 0012 0361     		str	r3, [r0, #16]
 278:Src/init.c    ****   huart3.Init.Mode = UART_MODE_TX_RX;
 758              		.loc 1 278 0
 759 0014 0C22     		movs	r2, #12
 760 0016 4261     		str	r2, [r0, #20]
 279:Src/init.c    ****   huart3.Init.HwFlowCtl = UART_HWCONTROL_NONE;
 761              		.loc 1 279 0
 762 0018 8361     		str	r3, [r0, #24]
 280:Src/init.c    ****   huart3.Init.OverSampling = UART_OVERSAMPLING_16;
 763              		.loc 1 280 0
 764 001a C361     		str	r3, [r0, #28]
 281:Src/init.c    ****   huart3.Init.OneBitSampling = UART_ONE_BIT_SAMPLE_DISABLE;
 765              		.loc 1 281 0
 766 001c 0362     		str	r3, [r0, #32]
 282:Src/init.c    ****   huart3.AdvancedInit.AdvFeatureInit = UART_ADVFEATURE_NO_INIT;
 767              		.loc 1 282 0
 768 001e 4362     		str	r3, [r0, #36]
 283:Src/init.c    ****   if (HAL_UART_Init(&huart3) != HAL_OK)
 769              		.loc 1 283 0
 770 0020 FFF7FEFF 		bl	HAL_UART_Init
 771              	.LVL34:
 772 0024 00B9     		cbnz	r0, .L57
 773              	.L54:
 774 0026 08BD     		pop	{r3, pc}
 775              	.L57:
 284:Src/init.c    ****   {
 285:Src/init.c    ****     _Error_Handler(__FILE__, __LINE__);
 776              		.loc 1 285 0
 777 0028 40F21D11 		movw	r1, #285
 778 002c 0348     		ldr	r0, .L58+8
 779 002e FFF7FEFF 		bl	_Error_Handler
 780              	.LVL35:
 286:Src/init.c    ****   }
 287:Src/init.c    **** 
 288:Src/init.c    **** }
 781              		.loc 1 288 0
 782 0032 F8E7     		b	.L54
 783              	.L59:
 784              		.align	2
 785              	.L58:
 786 0034 00000000 		.word	huart3
 787 0038 00480040 		.word	1073760256
 788 003c 00000000 		.word	.LC0
 789              		.cfi_endproc
 790              	.LFE130:
 792              		.section	.text.MX_DMA_Init,"ax",%progbits
 793              		.align	1
 794              		.global	MX_DMA_Init
 795              		.syntax unified
 796              		.thumb
 797              		.thumb_func
ARM GAS  /var/folders/p7/nwmyw04531jbkqkgv59cx10h0000gn/T//ccvY19bo.s 			page 20


 798              		.fpu fpv4-sp-d16
 800              	MX_DMA_Init:
 801              	.LFB131:
 289:Src/init.c    **** 
 290:Src/init.c    **** /** 
 291:Src/init.c    ****   * Enable DMA controller clock
 292:Src/init.c    ****   */
 293:Src/init.c    **** void MX_DMA_Init(void) 
 294:Src/init.c    **** {
 802              		.loc 1 294 0
 803              		.cfi_startproc
 804              		@ args = 0, pretend = 0, frame = 8
 805              		@ frame_needed = 0, uses_anonymous_args = 0
 806 0000 00B5     		push	{lr}
 807              	.LCFI19:
 808              		.cfi_def_cfa_offset 4
 809              		.cfi_offset 14, -4
 810 0002 83B0     		sub	sp, sp, #12
 811              	.LCFI20:
 812              		.cfi_def_cfa_offset 16
 813              	.LBB2:
 295:Src/init.c    ****   /* DMA controller clock enable */
 296:Src/init.c    ****   __HAL_RCC_DMA1_CLK_ENABLE();
 814              		.loc 1 296 0
 815 0004 0A4B     		ldr	r3, .L62
 816 0006 5A69     		ldr	r2, [r3, #20]
 817 0008 42F00102 		orr	r2, r2, #1
 818 000c 5A61     		str	r2, [r3, #20]
 819 000e 5B69     		ldr	r3, [r3, #20]
 820 0010 03F00103 		and	r3, r3, #1
 821 0014 0193     		str	r3, [sp, #4]
 822 0016 019B     		ldr	r3, [sp, #4]
 823              	.LBE2:
 297:Src/init.c    **** 
 298:Src/init.c    ****   /* DMA interrupt init */
 299:Src/init.c    ****   /* DMA1_Channel1_IRQn interrupt configuration */
 300:Src/init.c    ****   HAL_NVIC_SetPriority(DMA1_Channel1_IRQn, 0, 0);
 824              		.loc 1 300 0
 825 0018 0022     		movs	r2, #0
 826 001a 1146     		mov	r1, r2
 827 001c 0B20     		movs	r0, #11
 828 001e FFF7FEFF 		bl	HAL_NVIC_SetPriority
 829              	.LVL36:
 301:Src/init.c    ****   HAL_NVIC_EnableIRQ(DMA1_Channel1_IRQn);
 830              		.loc 1 301 0
 831 0022 0B20     		movs	r0, #11
 832 0024 FFF7FEFF 		bl	HAL_NVIC_EnableIRQ
 833              	.LVL37:
 302:Src/init.c    **** 
 303:Src/init.c    **** }
 834              		.loc 1 303 0
 835 0028 03B0     		add	sp, sp, #12
 836              	.LCFI21:
 837              		.cfi_def_cfa_offset 4
 838              		@ sp needed
 839 002a 5DF804FB 		ldr	pc, [sp], #4
 840              	.L63:
ARM GAS  /var/folders/p7/nwmyw04531jbkqkgv59cx10h0000gn/T//ccvY19bo.s 			page 21


 841 002e 00BF     		.align	2
 842              	.L62:
 843 0030 00100240 		.word	1073876992
 844              		.cfi_endproc
 845              	.LFE131:
 847              		.section	.text.MX_GPIO_Init,"ax",%progbits
 848              		.align	1
 849              		.global	MX_GPIO_Init
 850              		.syntax unified
 851              		.thumb
 852              		.thumb_func
 853              		.fpu fpv4-sp-d16
 855              	MX_GPIO_Init:
 856              	.LFB132:
 304:Src/init.c    **** 
 305:Src/init.c    **** /** Configure pins as 
 306:Src/init.c    ****         * Analog 
 307:Src/init.c    ****         * Input 
 308:Src/init.c    ****         * Output
 309:Src/init.c    ****         * EVENT_OUT
 310:Src/init.c    ****         * EXTI
 311:Src/init.c    **** */
 312:Src/init.c    **** void MX_GPIO_Init(void)
 313:Src/init.c    **** {
 857              		.loc 1 313 0
 858              		.cfi_startproc
 859              		@ args = 0, pretend = 0, frame = 40
 860              		@ frame_needed = 0, uses_anonymous_args = 0
 861 0000 2DE9F041 		push	{r4, r5, r6, r7, r8, lr}
 862              	.LCFI22:
 863              		.cfi_def_cfa_offset 24
 864              		.cfi_offset 4, -24
 865              		.cfi_offset 5, -20
 866              		.cfi_offset 6, -16
 867              		.cfi_offset 7, -12
 868              		.cfi_offset 8, -8
 869              		.cfi_offset 14, -4
 870 0004 8AB0     		sub	sp, sp, #40
 871              	.LCFI23:
 872              		.cfi_def_cfa_offset 64
 873              	.LBB3:
 314:Src/init.c    **** 
 315:Src/init.c    ****   GPIO_InitTypeDef GPIO_InitStruct;
 316:Src/init.c    **** 
 317:Src/init.c    ****   /* GPIO Ports Clock Enable */
 318:Src/init.c    ****   __HAL_RCC_GPIOC_CLK_ENABLE();
 874              		.loc 1 318 0
 875 0006 404B     		ldr	r3, .L66
 876 0008 5A69     		ldr	r2, [r3, #20]
 877 000a 42F40022 		orr	r2, r2, #524288
 878 000e 5A61     		str	r2, [r3, #20]
 879 0010 5A69     		ldr	r2, [r3, #20]
 880 0012 02F40022 		and	r2, r2, #524288
 881 0016 0092     		str	r2, [sp]
 882 0018 009A     		ldr	r2, [sp]
 883              	.LBE3:
 884              	.LBB4:
ARM GAS  /var/folders/p7/nwmyw04531jbkqkgv59cx10h0000gn/T//ccvY19bo.s 			page 22


 319:Src/init.c    ****   __HAL_RCC_GPIOF_CLK_ENABLE();
 885              		.loc 1 319 0
 886 001a 5A69     		ldr	r2, [r3, #20]
 887 001c 42F48002 		orr	r2, r2, #4194304
 888 0020 5A61     		str	r2, [r3, #20]
 889 0022 5A69     		ldr	r2, [r3, #20]
 890 0024 02F48002 		and	r2, r2, #4194304
 891 0028 0192     		str	r2, [sp, #4]
 892 002a 019A     		ldr	r2, [sp, #4]
 893              	.LBE4:
 894              	.LBB5:
 320:Src/init.c    ****   __HAL_RCC_GPIOA_CLK_ENABLE();
 895              		.loc 1 320 0
 896 002c 5A69     		ldr	r2, [r3, #20]
 897 002e 42F40032 		orr	r2, r2, #131072
 898 0032 5A61     		str	r2, [r3, #20]
 899 0034 5A69     		ldr	r2, [r3, #20]
 900 0036 02F40032 		and	r2, r2, #131072
 901 003a 0292     		str	r2, [sp, #8]
 902 003c 029A     		ldr	r2, [sp, #8]
 903              	.LBE5:
 904              	.LBB6:
 321:Src/init.c    ****   __HAL_RCC_GPIOB_CLK_ENABLE();
 905              		.loc 1 321 0
 906 003e 5A69     		ldr	r2, [r3, #20]
 907 0040 42F48022 		orr	r2, r2, #262144
 908 0044 5A61     		str	r2, [r3, #20]
 909 0046 5A69     		ldr	r2, [r3, #20]
 910 0048 02F48022 		and	r2, r2, #262144
 911 004c 0392     		str	r2, [sp, #12]
 912 004e 039A     		ldr	r2, [sp, #12]
 913              	.LBE6:
 914              	.LBB7:
 322:Src/init.c    ****   __HAL_RCC_GPIOD_CLK_ENABLE();
 915              		.loc 1 322 0
 916 0050 5A69     		ldr	r2, [r3, #20]
 917 0052 42F48012 		orr	r2, r2, #1048576
 918 0056 5A61     		str	r2, [r3, #20]
 919 0058 5B69     		ldr	r3, [r3, #20]
 920 005a 03F48013 		and	r3, r3, #1048576
 921 005e 0493     		str	r3, [sp, #16]
 922 0060 049B     		ldr	r3, [sp, #16]
 923              	.LBE7:
 323:Src/init.c    **** 
 324:Src/init.c    ****   /*Configure GPIO pin Output Level */
 325:Src/init.c    ****   HAL_GPIO_WritePin(GPIOC, LED3_Pin|GLED1_Pin|GLED2_Pin|RLED1_Pin 
 924              		.loc 1 325 0
 925 0062 2A4F     		ldr	r7, .L66+4
 926 0064 0022     		movs	r2, #0
 927 0066 43F6A051 		movw	r1, #15776
 928 006a 3846     		mov	r0, r7
 929 006c FFF7FEFF 		bl	HAL_GPIO_WritePin
 930              	.LVL38:
 326:Src/init.c    ****                           |LED0_Pin|LED1_Pin|LED2_Pin, GPIO_PIN_RESET);
 327:Src/init.c    **** 
 328:Src/init.c    ****   /*Configure GPIO pin Output Level */
 329:Src/init.c    ****   HAL_GPIO_WritePin(GPIOA, PA0_Pin|PA1_Pin|SS1_Pin, GPIO_PIN_RESET);
ARM GAS  /var/folders/p7/nwmyw04531jbkqkgv59cx10h0000gn/T//ccvY19bo.s 			page 23


 931              		.loc 1 329 0
 932 0070 0022     		movs	r2, #0
 933 0072 41F20301 		movw	r1, #4099
 934 0076 4FF09040 		mov	r0, #1207959552
 935 007a FFF7FEFF 		bl	HAL_GPIO_WritePin
 936              	.LVL39:
 330:Src/init.c    **** 
 331:Src/init.c    ****   /*Configure GPIO pin Output Level */
 332:Src/init.c    ****   HAL_GPIO_WritePin(GPIOB, SS3_Pin|SWTEN_Pin|WDT_Pin|SS0_Pin 
 937              		.loc 1 332 0
 938 007e DFF89480 		ldr	r8, .L66+12
 939 0082 0022     		movs	r2, #0
 940 0084 4CF2C401 		movw	r1, #49348
 941 0088 4046     		mov	r0, r8
 942 008a FFF7FEFF 		bl	HAL_GPIO_WritePin
 943              	.LVL40:
 333:Src/init.c    ****                           |SDA_Pin, GPIO_PIN_RESET);
 334:Src/init.c    **** 
 335:Src/init.c    ****   /*Configure GPIO pin Output Level */
 336:Src/init.c    ****   HAL_GPIO_WritePin(RLED2_GPIO_Port, RLED2_Pin, GPIO_PIN_RESET);
 944              		.loc 1 336 0
 945 008e 204E     		ldr	r6, .L66+8
 946 0090 0022     		movs	r2, #0
 947 0092 0421     		movs	r1, #4
 948 0094 3046     		mov	r0, r6
 949 0096 FFF7FEFF 		bl	HAL_GPIO_WritePin
 950              	.LVL41:
 337:Src/init.c    **** 
 338:Src/init.c    ****   /*Configure GPIO pins : LED3_Pin GLED1_Pin GLED2_Pin RLED1_Pin 
 339:Src/init.c    ****                            LED0_Pin LED1_Pin LED2_Pin */
 340:Src/init.c    ****   GPIO_InitStruct.Pin = LED3_Pin|GLED1_Pin|GLED2_Pin|RLED1_Pin 
 951              		.loc 1 340 0
 952 009a 43F6A053 		movw	r3, #15776
 953 009e 0593     		str	r3, [sp, #20]
 341:Src/init.c    ****                           |LED0_Pin|LED1_Pin|LED2_Pin;
 342:Src/init.c    ****   GPIO_InitStruct.Mode = GPIO_MODE_OUTPUT_PP;
 954              		.loc 1 342 0
 955 00a0 0125     		movs	r5, #1
 956 00a2 0695     		str	r5, [sp, #24]
 343:Src/init.c    ****   GPIO_InitStruct.Pull = GPIO_NOPULL;
 957              		.loc 1 343 0
 958 00a4 0024     		movs	r4, #0
 959 00a6 0794     		str	r4, [sp, #28]
 344:Src/init.c    ****   GPIO_InitStruct.Speed = GPIO_SPEED_FREQ_LOW;
 960              		.loc 1 344 0
 961 00a8 0894     		str	r4, [sp, #32]
 345:Src/init.c    ****   HAL_GPIO_Init(GPIOC, &GPIO_InitStruct);
 962              		.loc 1 345 0
 963 00aa 05A9     		add	r1, sp, #20
 964 00ac 3846     		mov	r0, r7
 965 00ae FFF7FEFF 		bl	HAL_GPIO_Init
 966              	.LVL42:
 346:Src/init.c    **** 
 347:Src/init.c    ****   /*Configure GPIO pins : PA0_Pin PA1_Pin SS1_Pin */
 348:Src/init.c    ****   GPIO_InitStruct.Pin = PA0_Pin|PA1_Pin|SS1_Pin;
 967              		.loc 1 348 0
 968 00b2 41F20303 		movw	r3, #4099
ARM GAS  /var/folders/p7/nwmyw04531jbkqkgv59cx10h0000gn/T//ccvY19bo.s 			page 24


 969 00b6 0593     		str	r3, [sp, #20]
 349:Src/init.c    ****   GPIO_InitStruct.Mode = GPIO_MODE_OUTPUT_PP;
 970              		.loc 1 349 0
 971 00b8 0695     		str	r5, [sp, #24]
 350:Src/init.c    ****   GPIO_InitStruct.Pull = GPIO_NOPULL;
 972              		.loc 1 350 0
 973 00ba 0794     		str	r4, [sp, #28]
 351:Src/init.c    ****   GPIO_InitStruct.Speed = GPIO_SPEED_FREQ_LOW;
 974              		.loc 1 351 0
 975 00bc 0894     		str	r4, [sp, #32]
 352:Src/init.c    ****   HAL_GPIO_Init(GPIOA, &GPIO_InitStruct);
 976              		.loc 1 352 0
 977 00be 05A9     		add	r1, sp, #20
 978 00c0 4FF09040 		mov	r0, #1207959552
 979 00c4 FFF7FEFF 		bl	HAL_GPIO_Init
 980              	.LVL43:
 353:Src/init.c    **** 
 354:Src/init.c    ****   /*Configure GPIO pin : PA2_Pin */
 355:Src/init.c    ****   GPIO_InitStruct.Pin = PA2_Pin;
 981              		.loc 1 355 0
 982 00c8 0427     		movs	r7, #4
 983 00ca 0597     		str	r7, [sp, #20]
 356:Src/init.c    ****   GPIO_InitStruct.Mode = GPIO_MODE_ANALOG;
 984              		.loc 1 356 0
 985 00cc 0323     		movs	r3, #3
 986 00ce 0693     		str	r3, [sp, #24]
 357:Src/init.c    ****   GPIO_InitStruct.Pull = GPIO_NOPULL;
 987              		.loc 1 357 0
 988 00d0 0794     		str	r4, [sp, #28]
 358:Src/init.c    ****   HAL_GPIO_Init(PA2_GPIO_Port, &GPIO_InitStruct);
 989              		.loc 1 358 0
 990 00d2 05A9     		add	r1, sp, #20
 991 00d4 4FF09040 		mov	r0, #1207959552
 992 00d8 FFF7FEFF 		bl	HAL_GPIO_Init
 993              	.LVL44:
 359:Src/init.c    **** 
 360:Src/init.c    ****   /*Configure GPIO pins : SS3_Pin SWTEN_Pin WDT_Pin SS0_Pin 
 361:Src/init.c    ****                            SDA_Pin */
 362:Src/init.c    ****   GPIO_InitStruct.Pin = SS3_Pin|SWTEN_Pin|WDT_Pin|SS0_Pin 
 994              		.loc 1 362 0
 995 00dc 4CF2C403 		movw	r3, #49348
 996 00e0 0593     		str	r3, [sp, #20]
 363:Src/init.c    ****                           |SDA_Pin;
 364:Src/init.c    ****   GPIO_InitStruct.Mode = GPIO_MODE_OUTPUT_PP;
 997              		.loc 1 364 0
 998 00e2 0695     		str	r5, [sp, #24]
 365:Src/init.c    ****   GPIO_InitStruct.Pull = GPIO_NOPULL;
 999              		.loc 1 365 0
 1000 00e4 0794     		str	r4, [sp, #28]
 366:Src/init.c    ****   GPIO_InitStruct.Speed = GPIO_SPEED_FREQ_LOW;
 1001              		.loc 1 366 0
 1002 00e6 0894     		str	r4, [sp, #32]
 367:Src/init.c    ****   HAL_GPIO_Init(GPIOB, &GPIO_InitStruct);
 1003              		.loc 1 367 0
 1004 00e8 05A9     		add	r1, sp, #20
 1005 00ea 4046     		mov	r0, r8
 1006 00ec FFF7FEFF 		bl	HAL_GPIO_Init
ARM GAS  /var/folders/p7/nwmyw04531jbkqkgv59cx10h0000gn/T//ccvY19bo.s 			page 25


 1007              	.LVL45:
 368:Src/init.c    **** 
 369:Src/init.c    ****   /*Configure GPIO pin : RLED2_Pin */
 370:Src/init.c    ****   GPIO_InitStruct.Pin = RLED2_Pin;
 1008              		.loc 1 370 0
 1009 00f0 0597     		str	r7, [sp, #20]
 371:Src/init.c    ****   GPIO_InitStruct.Mode = GPIO_MODE_OUTPUT_PP;
 1010              		.loc 1 371 0
 1011 00f2 0695     		str	r5, [sp, #24]
 372:Src/init.c    ****   GPIO_InitStruct.Pull = GPIO_NOPULL;
 1012              		.loc 1 372 0
 1013 00f4 0794     		str	r4, [sp, #28]
 373:Src/init.c    ****   GPIO_InitStruct.Speed = GPIO_SPEED_FREQ_LOW;
 1014              		.loc 1 373 0
 1015 00f6 0894     		str	r4, [sp, #32]
 374:Src/init.c    ****   HAL_GPIO_Init(RLED2_GPIO_Port, &GPIO_InitStruct);
 1016              		.loc 1 374 0
 1017 00f8 05A9     		add	r1, sp, #20
 1018 00fa 3046     		mov	r0, r6
 1019 00fc FFF7FEFF 		bl	HAL_GPIO_Init
 1020              	.LVL46:
 375:Src/init.c    **** 
 376:Src/init.c    **** }...
 1021              		.loc 1 376 0
 1022 0100 0AB0     		add	sp, sp, #40
 1023              	.LCFI24:
 1024              		.cfi_def_cfa_offset 24
 1025              		@ sp needed
 1026 0102 BDE8F081 		pop	{r4, r5, r6, r7, r8, pc}
 1027              	.L67:
 1028 0106 00BF     		.align	2
 1029              	.L66:
 1030 0108 00100240 		.word	1073876992
 1031 010c 00080048 		.word	1207961600
 1032 0110 000C0048 		.word	1207962624
 1033 0114 00040048 		.word	1207960576
 1034              		.cfi_endproc
 1035              	.LFE132:
 1037              		.comm	huart3,112,4
 1038              		.comm	hspi1,100,4
 1039              		.comm	hrtc,32,4
 1040              		.comm	hcan,64,4
 1041              		.comm	hdma_adc1,68,4
 1042              		.comm	hadc2,84,4
 1043              		.comm	hadc1,84,4
 1044              		.section	.rodata.SystemClock_Config.str1.4,"aMS",%progbits,1
 1045              		.align	2
 1046              	.LC0:
 1047 0000 5372632F 		.ascii	"Src/init.c\000"
 1047      696E6974 
 1047      2E6300
 1048              		.text
 1049              	.Letext0:
 1050              		.file 2 "/usr/local/Caskroom/gcc-arm-embedded/6-2017-q1-update/gcc-arm-none-eabi-6-2017-q1-update/
 1051              		.file 3 "/usr/local/Caskroom/gcc-arm-embedded/6-2017-q1-update/gcc-arm-none-eabi-6-2017-q1-update/
 1052              		.file 4 "Drivers/CMSIS/Include/core_cm4.h"
 1053              		.file 5 "Drivers/CMSIS/Device/ST/STM32F3xx/Include/system_stm32f3xx.h"
ARM GAS  /var/folders/p7/nwmyw04531jbkqkgv59cx10h0000gn/T//ccvY19bo.s 			page 26


 1054              		.file 6 "Drivers/CMSIS/Device/ST/STM32F3xx/Include/stm32f334x8.h"
 1055              		.file 7 "Drivers/CMSIS/Device/ST/STM32F3xx/Include/stm32f3xx.h"
 1056              		.file 8 "/usr/local/Caskroom/gcc-arm-embedded/6-2017-q1-update/gcc-arm-none-eabi-6-2017-q1-update/
 1057              		.file 9 "/usr/local/Caskroom/gcc-arm-embedded/6-2017-q1-update/gcc-arm-none-eabi-6-2017-q1-update/
 1058              		.file 10 "/usr/local/Caskroom/gcc-arm-embedded/6-2017-q1-update/gcc-arm-none-eabi-6-2017-q1-update
 1059              		.file 11 "/usr/local/Caskroom/gcc-arm-embedded/6-2017-q1-update/gcc-arm-none-eabi-6-2017-q1-update
 1060              		.file 12 "Drivers/STM32F3xx_HAL_Driver/Inc/stm32f3xx_hal_def.h"
 1061              		.file 13 "Drivers/STM32F3xx_HAL_Driver/Inc/stm32f3xx_hal_rcc.h"
 1062              		.file 14 "Drivers/STM32F3xx_HAL_Driver/Inc/stm32f3xx_hal_rcc_ex.h"
 1063              		.file 15 "Drivers/STM32F3xx_HAL_Driver/Inc/stm32f3xx_hal_gpio.h"
 1064              		.file 16 "Drivers/STM32F3xx_HAL_Driver/Inc/stm32f3xx_hal_dma.h"
 1065              		.file 17 "Drivers/STM32F3xx_HAL_Driver/Inc/stm32f3xx_hal_adc_ex.h"
 1066              		.file 18 "Drivers/STM32F3xx_HAL_Driver/Inc/stm32f3xx_hal_adc.h"
 1067              		.file 19 "Drivers/STM32F3xx_HAL_Driver/Inc/stm32f3xx_hal_can.h"
 1068              		.file 20 "Drivers/STM32F3xx_HAL_Driver/Inc/stm32f3xx_hal_rtc.h"
 1069              		.file 21 "Drivers/STM32F3xx_HAL_Driver/Inc/stm32f3xx_hal_spi.h"
 1070              		.file 22 "Drivers/STM32F3xx_HAL_Driver/Inc/stm32f3xx_hal_uart.h"
 1071              		.file 23 "Inc/init.h"
 1072              		.file 24 "Drivers/STM32F3xx_HAL_Driver/Inc/stm32f3xx_hal_cortex.h"
 1073              		.file 25 "Inc/main.h"
 1074              		.file 26 "Drivers/STM32F3xx_HAL_Driver/Inc/stm32f3xx_hal_rtc_ex.h"
ARM GAS  /var/folders/p7/nwmyw04531jbkqkgv59cx10h0000gn/T//ccvY19bo.s 			page 27

