ARM GAS  /var/folders/p7/nwmyw04531jbkqkgv59cx10h0000gn/T//ccsaCdBZ.s 			page 1


   1              		.cpu cortex-m4
   2              		.eabi_attribute 27, 1
   3              		.eabi_attribute 28, 1
   4              		.eabi_attribute 20, 1
   5              		.eabi_attribute 21, 1
   6              		.eabi_attribute 23, 3
   7              		.eabi_attribute 24, 1
   8              		.eabi_attribute 25, 1
   9              		.eabi_attribute 26, 1
  10              		.eabi_attribute 30, 1
  11              		.eabi_attribute 34, 1
  12              		.eabi_attribute 18, 4
  13              		.file	"LTC6804.c"
  14              		.text
  15              	.Ltext0:
  16              		.cfi_sections	.debug_frame
  17              		.section	.text.SPI_transmit_word,"ax",%progbits
  18              		.align	1
  19              		.global	SPI_transmit_word
  20              		.syntax unified
  21              		.thumb
  22              		.thumb_func
  23              		.fpu fpv4-sp-d16
  25              	SPI_transmit_word:
  26              	.LFB128:
  27              		.file 1 "Src/LTC6804.c"
   1:Src/LTC6804.c **** #include "LTC6804.h"
   2:Src/LTC6804.c **** 
   3:Src/LTC6804.c **** //This function writes the config registers of the LTC6804-2
   4:Src/LTC6804.c **** void write_config_6804_2(void)
   5:Src/LTC6804.c **** {
   6:Src/LTC6804.c **** 	//Holds the formatted config data
   7:Src/LTC6804.c **** 	uint8_t data[6] = {0};
   8:Src/LTC6804.c **** 
   9:Src/LTC6804.c **** 	//Holds the command
  10:Src/LTC6804.c **** 	uint16_t command = 0;
  11:Src/LTC6804.c **** 
  12:Src/LTC6804.c **** 	//Format the command
  13:Src/LTC6804.c **** 	command = LTC6804_2_ADDRESS_MODE<<15 | LTC6804_2_ADDRESS<<11 | WRCFG;
  14:Src/LTC6804.c **** 
  15:Src/LTC6804.c **** 	//Populate the data
  16:Src/LTC6804.c **** 	data[0] = config_6804_2_buffer.GPIO5<<3 | config_6804_2_buffer.REFON<<2 | config_6804_2_buffer.SWT
  17:Src/LTC6804.c **** 	data[1] = config_6804_2_buffer.VUVLB;
  18:Src/LTC6804.c **** 	data[2] = config_6804_2_buffer.VOVLB<<4|config_6804_2_buffer.VUVUB;
  19:Src/LTC6804.c **** 	data[3] = config_6804_2_buffer.VOVUB;
  20:Src/LTC6804.c **** 	data[4] = config_6804_2_buffer.DCCLB;
  21:Src/LTC6804.c **** 	data[5] = config_6804_2_buffer.DCTO<<4|config_6804_2_buffer.DCCUB;
  22:Src/LTC6804.c **** 
  23:Src/LTC6804.c **** 	//Call the spi_write_word function
  24:Src/LTC6804.c **** 	SPI_transmit_word(command, data);
  25:Src/LTC6804.c **** 
  26:Src/LTC6804.c **** 	return;
  27:Src/LTC6804.c **** }
  28:Src/LTC6804.c **** 
  29:Src/LTC6804.c **** //This function sets the OV and UV levels in the config buffer
  30:Src/LTC6804.c **** void set_UV_OV_threshold(void)
  31:Src/LTC6804.c **** {
ARM GAS  /var/folders/p7/nwmyw04531jbkqkgv59cx10h0000gn/T//ccsaCdBZ.s 			page 2


  32:Src/LTC6804.c **** 	//Need to check this works
  33:Src/LTC6804.c **** 	config_6804_2_buffer.VUVUB = (uint8_t)((UNDERVOLTAGE_ALARM_LEVEL&0xF00)>>8);
  34:Src/LTC6804.c **** 	config_6804_2_buffer.VUVLB = (uint8_t)(UNDERVOLTAGE_ALARM_LEVEL&0x0FF);
  35:Src/LTC6804.c **** 
  36:Src/LTC6804.c **** 	//Set the OV threshold
  37:Src/LTC6804.c **** 	config_6804_2_buffer.VOVUB = (uint8_t)((OVERVOLTAGE_ALARM_LEVEL&0xFF0)>>4);
  38:Src/LTC6804.c **** 	config_6804_2_buffer.VOVLB = (uint8_t)(OVERVOLTAGE_ALARM_LEVEL&0x00F);
  39:Src/LTC6804.c **** 
  40:Src/LTC6804.c **** 	//Update the 6804-2 chip
  41:Src/LTC6804.c **** 	write_config_6804_2();
  42:Src/LTC6804.c **** 
  43:Src/LTC6804.c **** 	return;
  44:Src/LTC6804.c **** }
  45:Src/LTC6804.c **** 
  46:Src/LTC6804.c **** //This function reads the status register block A and stores it in the status buffer
  47:Src/LTC6804.c **** uint8_t read_status_A_6804_2(void)
  48:Src/LTC6804.c **** {
  49:Src/LTC6804.c **** 	uint16_t command = 0;
  50:Src/LTC6804.c **** 	//Format the command
  51:Src/LTC6804.c **** 	command = LTC6804_2_ADDRESS_MODE<<15 | LTC6804_2_ADDRESS<<11 | RDSTATA;
  52:Src/LTC6804.c **** 
  53:Src/LTC6804.c **** 	//Call the spi_write_word function, use a NULL pointer for read only
  54:Src/LTC6804.c **** 	SPI_transmit_word(command, NULL);
  55:Src/LTC6804.c **** 
  56:Src/LTC6804.c **** 	//Read the status from the RX buffer
  57:Src/LTC6804.c **** 	status_A_6804_2.SOCLB	= SPI_recieve_buffer[0];
  58:Src/LTC6804.c **** 	status_A_6804_2.SOCUB	= SPI_recieve_buffer[1];
  59:Src/LTC6804.c **** 	status_A_6804_2.ITMPLB	= SPI_recieve_buffer[2];
  60:Src/LTC6804.c **** 	status_A_6804_2.ITMPUB	= SPI_recieve_buffer[3];
  61:Src/LTC6804.c **** 	status_A_6804_2.VALB	= SPI_recieve_buffer[4];
  62:Src/LTC6804.c **** 	status_A_6804_2.VAUB	= SPI_recieve_buffer[5];
  63:Src/LTC6804.c **** 
  64:Src/LTC6804.c **** 	return RETURN_VALUE_SUCCESS;
  65:Src/LTC6804.c **** }
  66:Src/LTC6804.c **** 
  67:Src/LTC6804.c **** //This function reads the status register block B and stores it in the status buffer
  68:Src/LTC6804.c **** uint8_t read_status_B_6804_2(void)
  69:Src/LTC6804.c **** {
  70:Src/LTC6804.c **** 	uint16_t command = 0;
  71:Src/LTC6804.c **** 	//Format the command
  72:Src/LTC6804.c **** 	command = LTC6804_2_ADDRESS_MODE<<15 | LTC6804_2_ADDRESS<<11 | RDSTATB;
  73:Src/LTC6804.c **** 
  74:Src/LTC6804.c **** 	//Call the spi_write_word function, use a NULL pointer for read only
  75:Src/LTC6804.c **** 	SPI_transmit_word(command, NULL);
  76:Src/LTC6804.c **** 
  77:Src/LTC6804.c **** 	//Read the status from the RX buffer
  78:Src/LTC6804.c **** 	status_B_6804_2.VDLB = SPI_recieve_buffer[0];
  79:Src/LTC6804.c **** 	status_B_6804_2.VDUB = SPI_recieve_buffer[1];
  80:Src/LTC6804.c **** 
  81:Src/LTC6804.c **** 	status_B_6804_2.C1UV = (SPI_recieve_buffer[2] & 0x01<<0)>>0;
  82:Src/LTC6804.c **** 	status_B_6804_2.C1OV = (SPI_recieve_buffer[2] & 0x01<<1)>>1;
  83:Src/LTC6804.c **** 	status_B_6804_2.C2UV = (SPI_recieve_buffer[2] & 0x01<<2)>>2;
  84:Src/LTC6804.c **** 	status_B_6804_2.C2OV = (SPI_recieve_buffer[2] & 0x01<<3)>>3;
  85:Src/LTC6804.c **** 	status_B_6804_2.C3UV = (SPI_recieve_buffer[2] & 0x01<<4)>>4;
  86:Src/LTC6804.c **** 	status_B_6804_2.C3OV = (SPI_recieve_buffer[2] & 0x01<<5)>>5;
  87:Src/LTC6804.c **** 	status_B_6804_2.C4UV = (SPI_recieve_buffer[2] & 0x01<<6)>>6;
  88:Src/LTC6804.c **** 	status_B_6804_2.C4OV = (SPI_recieve_buffer[2] & 0x01<<7)>>7;
ARM GAS  /var/folders/p7/nwmyw04531jbkqkgv59cx10h0000gn/T//ccsaCdBZ.s 			page 3


  89:Src/LTC6804.c **** 
  90:Src/LTC6804.c **** 
  91:Src/LTC6804.c **** 	status_B_6804_2.C5UV = (SPI_recieve_buffer[3] & 0x01<<0)>>0;
  92:Src/LTC6804.c **** 	status_B_6804_2.C5OV = (SPI_recieve_buffer[3] & 0x01<<1)>>1;
  93:Src/LTC6804.c **** 	status_B_6804_2.C6UV = (SPI_recieve_buffer[3] & 0x01<<2)>>2;
  94:Src/LTC6804.c **** 	status_B_6804_2.C6OV = (SPI_recieve_buffer[3] & 0x01<<3)>>3;
  95:Src/LTC6804.c **** 	status_B_6804_2.C7UV = (SPI_recieve_buffer[3] & 0x01<<4)>>4;
  96:Src/LTC6804.c **** 	status_B_6804_2.C7OV = (SPI_recieve_buffer[3] & 0x01<<5)>>5;
  97:Src/LTC6804.c **** 	status_B_6804_2.C8UV = (SPI_recieve_buffer[3] & 0x01<<6)>>6;
  98:Src/LTC6804.c **** 	status_B_6804_2.C8OV = (SPI_recieve_buffer[3] & 0x01<<7)>>7;
  99:Src/LTC6804.c **** 
 100:Src/LTC6804.c **** 	status_B_6804_2.C9UV = (SPI_recieve_buffer[4] & 0x01<<0)>>0;
 101:Src/LTC6804.c **** 	status_B_6804_2.C9OV = (SPI_recieve_buffer[4] & 0x01<<1)>>1;
 102:Src/LTC6804.c **** 	status_B_6804_2.C10UV = (SPI_recieve_buffer[4] & 0x01<<2)>>2;
 103:Src/LTC6804.c **** 	status_B_6804_2.C10OV = (SPI_recieve_buffer[4] & 0x01<<3)>>3;
 104:Src/LTC6804.c **** 	status_B_6804_2.C11UV = (SPI_recieve_buffer[4] & 0x01<<4)>>4;
 105:Src/LTC6804.c **** 	status_B_6804_2.C11OV = (SPI_recieve_buffer[4] & 0x01<<5)>>5;
 106:Src/LTC6804.c **** 	status_B_6804_2.C12UV = (SPI_recieve_buffer[4] & 0x01<<6)>>6;
 107:Src/LTC6804.c **** 	status_B_6804_2.C12OV = (SPI_recieve_buffer[4] & 0x01<<7)>>7;
 108:Src/LTC6804.c **** 
 109:Src/LTC6804.c **** 	status_B_6804_2.THSD = (SPI_recieve_buffer[5] & 0x01<<0)>>0;
 110:Src/LTC6804.c **** 	status_B_6804_2.MUXFAIL = (SPI_recieve_buffer[5] & 0x01<<1)>>1;
 111:Src/LTC6804.c **** 	status_B_6804_2.RSVD = (SPI_recieve_buffer[5] & 0x03<<2)>>2;
 112:Src/LTC6804.c **** 	status_B_6804_2.REV = (SPI_recieve_buffer[5] & 0x0F<<4)>>4;
 113:Src/LTC6804.c **** 
 114:Src/LTC6804.c **** 
 115:Src/LTC6804.c **** 	return RETURN_VALUE_SUCCESS;
 116:Src/LTC6804.c **** }
 117:Src/LTC6804.c **** 
 118:Src/LTC6804.c **** //includes the returned data, tested OK
 119:Src/LTC6804.c **** void SPI_transmit_word(uint16_t cmd, uint8_t *data)
 120:Src/LTC6804.c **** {
  28              		.loc 1 120 0
  29              		.cfi_startproc
  30              		@ args = 0, pretend = 0, frame = 0
  31              		@ frame_needed = 0, uses_anonymous_args = 0
  32              	.LVL0:
  33 0000 38B5     		push	{r3, r4, r5, lr}
  34              	.LCFI0:
  35              		.cfi_def_cfa_offset 16
  36              		.cfi_offset 3, -16
  37              		.cfi_offset 4, -12
  38              		.cfi_offset 5, -8
  39              		.cfi_offset 14, -4
  40 0002 0C46     		mov	r4, r1
 121:Src/LTC6804.c **** 	//Inputs, cmd is the command to be used, data is the 6 bytes of data to be sent
 122:Src/LTC6804.c **** 
 123:Src/LTC6804.c **** 	//This function transmits the contents of the SPI buffer
 124:Src/LTC6804.c **** 	//The data is sent in 12 byte frames
 125:Src/LTC6804.c **** 	//CMD0  CMD1  PEC0  PEC1  DATA5  DATA4  DATA3  DATA2  DATA1  DATA0  PEC0  PEC1
 126:Src/LTC6804.c **** 	//0     1     2     3     4      5      6      7      8      9      10    11
 127:Src/LTC6804.c **** 
 128:Src/LTC6804.c **** 	//Local PEC
 129:Src/LTC6804.c **** 	uint16_t temp_pec;
 130:Src/LTC6804.c **** 
 131:Src/LTC6804.c **** 	//place the command in the array
 132:Src/LTC6804.c **** 	SPI_transmit_buffer[0] = (uint8_t)(cmd >> 8);
ARM GAS  /var/folders/p7/nwmyw04531jbkqkgv59cx10h0000gn/T//ccsaCdBZ.s 			page 4


  41              		.loc 1 132 0
  42 0004 030A     		lsrs	r3, r0, #8
  43 0006 304D     		ldr	r5, .L6
  44 0008 2B70     		strb	r3, [r5]
 133:Src/LTC6804.c **** 	SPI_transmit_buffer[1] = (uint8_t)(cmd);
  45              		.loc 1 133 0
  46 000a 6870     		strb	r0, [r5, #1]
 134:Src/LTC6804.c **** 
 135:Src/LTC6804.c **** 	//Calculate the command checksum
 136:Src/LTC6804.c **** 	temp_pec = pec15_calc(0,2, SPI_transmit_buffer);
  47              		.loc 1 136 0
  48 000c 2A46     		mov	r2, r5
  49 000e 0221     		movs	r1, #2
  50              	.LVL1:
  51 0010 0020     		movs	r0, #0
  52              	.LVL2:
  53 0012 FFF7FEFF 		bl	pec15_calc
  54              	.LVL3:
 137:Src/LTC6804.c **** 	SPI_transmit_buffer[2] = (uint8_t)(temp_pec >> 8);
  55              		.loc 1 137 0
  56 0016 C0F30723 		ubfx	r3, r0, #8, #8
  57 001a AB70     		strb	r3, [r5, #2]
 138:Src/LTC6804.c **** 	SPI_transmit_buffer[3] = (uint8_t)(temp_pec);
  58              		.loc 1 138 0
  59 001c E870     		strb	r0, [r5, #3]
 139:Src/LTC6804.c **** 
 140:Src/LTC6804.c **** 	if(data == NULL)
  60              		.loc 1 140 0
  61 001e 002C     		cmp	r4, #0
  62 0020 4AD0     		beq	.L5
 141:Src/LTC6804.c **** 	{
 142:Src/LTC6804.c **** 		//This is used for read only operations
 143:Src/LTC6804.c **** 		SPI_transmit_buffer[4] = 0x00;
 144:Src/LTC6804.c **** 		SPI_transmit_buffer[5] = 0x00;
 145:Src/LTC6804.c **** 		SPI_transmit_buffer[6] = 0x00;
 146:Src/LTC6804.c **** 		SPI_transmit_buffer[7] = 0x00;
 147:Src/LTC6804.c **** 		SPI_transmit_buffer[8] = 0x00;
 148:Src/LTC6804.c **** 		SPI_transmit_buffer[9] = 0x00;
 149:Src/LTC6804.c **** 	}
 150:Src/LTC6804.c **** 	else
 151:Src/LTC6804.c **** 	{
 152:Src/LTC6804.c **** 		//This is used when writing
 153:Src/LTC6804.c **** 		//Place the data in the array
 154:Src/LTC6804.c **** 		SPI_transmit_buffer[4] = data[0];
  63              		.loc 1 154 0
  64 0022 2278     		ldrb	r2, [r4]	@ zero_extendqisi2
  65 0024 284B     		ldr	r3, .L6
  66 0026 1A71     		strb	r2, [r3, #4]
 155:Src/LTC6804.c **** 		SPI_transmit_buffer[5] = data[1];
  67              		.loc 1 155 0
  68 0028 6278     		ldrb	r2, [r4, #1]	@ zero_extendqisi2
  69 002a 5A71     		strb	r2, [r3, #5]
 156:Src/LTC6804.c **** 		SPI_transmit_buffer[6] = data[2];
  70              		.loc 1 156 0
  71 002c A278     		ldrb	r2, [r4, #2]	@ zero_extendqisi2
  72 002e 9A71     		strb	r2, [r3, #6]
 157:Src/LTC6804.c **** 		SPI_transmit_buffer[7] = data[3];
ARM GAS  /var/folders/p7/nwmyw04531jbkqkgv59cx10h0000gn/T//ccsaCdBZ.s 			page 5


  73              		.loc 1 157 0
  74 0030 E278     		ldrb	r2, [r4, #3]	@ zero_extendqisi2
  75 0032 DA71     		strb	r2, [r3, #7]
 158:Src/LTC6804.c **** 		SPI_transmit_buffer[8] = data[4];
  76              		.loc 1 158 0
  77 0034 2279     		ldrb	r2, [r4, #4]	@ zero_extendqisi2
  78 0036 1A72     		strb	r2, [r3, #8]
 159:Src/LTC6804.c **** 		SPI_transmit_buffer[9] = data[5];
  79              		.loc 1 159 0
  80 0038 6279     		ldrb	r2, [r4, #5]	@ zero_extendqisi2
  81 003a 5A72     		strb	r2, [r3, #9]
  82              	.L3:
 160:Src/LTC6804.c **** 
 161:Src/LTC6804.c **** 	}
 162:Src/LTC6804.c **** 
 163:Src/LTC6804.c **** 	//Calculate the second checksum start at 4 length of 6
 164:Src/LTC6804.c **** 	temp_pec = pec15_calc(4,6, SPI_transmit_buffer);
  83              		.loc 1 164 0
  84 003c 224C     		ldr	r4, .L6
  85              	.LVL4:
  86 003e 2246     		mov	r2, r4
  87 0040 0621     		movs	r1, #6
  88 0042 0420     		movs	r0, #4
  89              	.LVL5:
  90 0044 FFF7FEFF 		bl	pec15_calc
  91              	.LVL6:
 165:Src/LTC6804.c **** 	SPI_transmit_buffer[10] = (uint8_t)(temp_pec >> 8);
  92              		.loc 1 165 0
  93 0048 C0F30723 		ubfx	r3, r0, #8, #8
  94 004c A372     		strb	r3, [r4, #10]
 166:Src/LTC6804.c **** 	SPI_transmit_buffer[11] = (uint8_t)(temp_pec);
  95              		.loc 1 166 0
  96 004e E072     		strb	r0, [r4, #11]
 167:Src/LTC6804.c **** 
 168:Src/LTC6804.c **** 	//Wake up the LTC6804
 169:Src/LTC6804.c **** 	Slave_select(0);
  97              		.loc 1 169 0
  98 0050 0020     		movs	r0, #0
  99              	.LVL7:
 100 0052 FFF7FEFF 		bl	Slave_select
 101              	.LVL8:
 170:Src/LTC6804.c **** 
 171:Src/LTC6804.c **** 	//Delay to ensure wakeup
 172:Src/LTC6804.c **** 	HAL_Delay(0.5);
 102              		.loc 1 172 0
 103 0056 0020     		movs	r0, #0
 104 0058 FFF7FEFF 		bl	HAL_Delay
 105              	.LVL9:
 173:Src/LTC6804.c **** 
 174:Src/LTC6804.c **** 	//Send the command bytes
 175:Src/LTC6804.c **** 	SPI_transmit(SPI_transmit_buffer[0]);
 106              		.loc 1 175 0
 107 005c 2078     		ldrb	r0, [r4]	@ zero_extendqisi2
 108 005e FFF7FEFF 		bl	SPI_transmit
 109              	.LVL10:
 176:Src/LTC6804.c **** 	SPI_transmit(SPI_transmit_buffer[1]);
 110              		.loc 1 176 0
ARM GAS  /var/folders/p7/nwmyw04531jbkqkgv59cx10h0000gn/T//ccsaCdBZ.s 			page 6


 111 0062 6078     		ldrb	r0, [r4, #1]	@ zero_extendqisi2
 112 0064 FFF7FEFF 		bl	SPI_transmit
 113              	.LVL11:
 177:Src/LTC6804.c **** 
 178:Src/LTC6804.c **** 	//Send the checksum
 179:Src/LTC6804.c **** 	SPI_transmit(SPI_transmit_buffer[2]);
 114              		.loc 1 179 0
 115 0068 A078     		ldrb	r0, [r4, #2]	@ zero_extendqisi2
 116 006a FFF7FEFF 		bl	SPI_transmit
 117              	.LVL12:
 180:Src/LTC6804.c **** 	SPI_transmit(SPI_transmit_buffer[3]);
 118              		.loc 1 180 0
 119 006e E078     		ldrb	r0, [r4, #3]	@ zero_extendqisi2
 120 0070 FFF7FEFF 		bl	SPI_transmit
 121              	.LVL13:
 181:Src/LTC6804.c **** 
 182:Src/LTC6804.c **** 	//Send the data
 183:Src/LTC6804.c **** 	//Store the returned data in an array
 184:Src/LTC6804.c **** 	SPI_recieve_buffer[0] = SPI_transmit(SPI_transmit_buffer[4]);
 122              		.loc 1 184 0
 123 0074 2079     		ldrb	r0, [r4, #4]	@ zero_extendqisi2
 124 0076 FFF7FEFF 		bl	SPI_transmit
 125              	.LVL14:
 126 007a 144D     		ldr	r5, .L6+4
 127 007c 2870     		strb	r0, [r5]
 185:Src/LTC6804.c **** 	SPI_recieve_buffer[1] = SPI_transmit(SPI_transmit_buffer[5]);
 128              		.loc 1 185 0
 129 007e 6079     		ldrb	r0, [r4, #5]	@ zero_extendqisi2
 130 0080 FFF7FEFF 		bl	SPI_transmit
 131              	.LVL15:
 132 0084 6870     		strb	r0, [r5, #1]
 186:Src/LTC6804.c **** 	SPI_recieve_buffer[2] = SPI_transmit(SPI_transmit_buffer[6]);
 133              		.loc 1 186 0
 134 0086 A079     		ldrb	r0, [r4, #6]	@ zero_extendqisi2
 135 0088 FFF7FEFF 		bl	SPI_transmit
 136              	.LVL16:
 137 008c A870     		strb	r0, [r5, #2]
 187:Src/LTC6804.c **** 	SPI_recieve_buffer[3] = SPI_transmit(SPI_transmit_buffer[7]);
 138              		.loc 1 187 0
 139 008e E079     		ldrb	r0, [r4, #7]	@ zero_extendqisi2
 140 0090 FFF7FEFF 		bl	SPI_transmit
 141              	.LVL17:
 142 0094 E870     		strb	r0, [r5, #3]
 188:Src/LTC6804.c **** 	SPI_recieve_buffer[4] = SPI_transmit(SPI_transmit_buffer[8]);
 143              		.loc 1 188 0
 144 0096 207A     		ldrb	r0, [r4, #8]	@ zero_extendqisi2
 145 0098 FFF7FEFF 		bl	SPI_transmit
 146              	.LVL18:
 147 009c 2871     		strb	r0, [r5, #4]
 189:Src/LTC6804.c **** 	SPI_recieve_buffer[5] = SPI_transmit(SPI_transmit_buffer[9]);
 148              		.loc 1 189 0
 149 009e 607A     		ldrb	r0, [r4, #9]	@ zero_extendqisi2
 150 00a0 FFF7FEFF 		bl	SPI_transmit
 151              	.LVL19:
 152 00a4 6871     		strb	r0, [r5, #5]
 190:Src/LTC6804.c **** 
 191:Src/LTC6804.c **** 	//Send the second checksum
ARM GAS  /var/folders/p7/nwmyw04531jbkqkgv59cx10h0000gn/T//ccsaCdBZ.s 			page 7


 192:Src/LTC6804.c **** 	SPI_transmit(SPI_transmit_buffer[10]);
 153              		.loc 1 192 0
 154 00a6 A07A     		ldrb	r0, [r4, #10]	@ zero_extendqisi2
 155 00a8 FFF7FEFF 		bl	SPI_transmit
 156              	.LVL20:
 193:Src/LTC6804.c **** 	SPI_transmit(SPI_transmit_buffer[11]);
 157              		.loc 1 193 0
 158 00ac E07A     		ldrb	r0, [r4, #11]	@ zero_extendqisi2
 159 00ae FFF7FEFF 		bl	SPI_transmit
 160              	.LVL21:
 194:Src/LTC6804.c **** 
 195:Src/LTC6804.c **** 	//SS inactive high
 196:Src/LTC6804.c **** 	Slave_deselect();
 161              		.loc 1 196 0
 162 00b2 FFF7FEFF 		bl	Slave_deselect
 163              	.LVL22:
 164 00b6 38BD     		pop	{r3, r4, r5, pc}
 165              	.LVL23:
 166              	.L5:
 143:Src/LTC6804.c **** 		SPI_transmit_buffer[5] = 0x00;
 167              		.loc 1 143 0
 168 00b8 0022     		movs	r2, #0
 169 00ba 2A71     		strb	r2, [r5, #4]
 144:Src/LTC6804.c **** 		SPI_transmit_buffer[6] = 0x00;
 170              		.loc 1 144 0
 171 00bc 6A71     		strb	r2, [r5, #5]
 145:Src/LTC6804.c **** 		SPI_transmit_buffer[7] = 0x00;
 172              		.loc 1 145 0
 173 00be AA71     		strb	r2, [r5, #6]
 146:Src/LTC6804.c **** 		SPI_transmit_buffer[8] = 0x00;
 174              		.loc 1 146 0
 175 00c0 EA71     		strb	r2, [r5, #7]
 147:Src/LTC6804.c **** 		SPI_transmit_buffer[9] = 0x00;
 176              		.loc 1 147 0
 177 00c2 2A72     		strb	r2, [r5, #8]
 148:Src/LTC6804.c **** 	}
 178              		.loc 1 148 0
 179 00c4 6A72     		strb	r2, [r5, #9]
 180 00c6 B9E7     		b	.L3
 181              	.L7:
 182              		.align	2
 183              	.L6:
 184 00c8 00000000 		.word	SPI_transmit_buffer
 185 00cc 00000000 		.word	SPI_recieve_buffer
 186              		.cfi_endproc
 187              	.LFE128:
 189              		.section	.text.write_config_6804_2,"ax",%progbits
 190              		.align	1
 191              		.global	write_config_6804_2
 192              		.syntax unified
 193              		.thumb
 194              		.thumb_func
 195              		.fpu fpv4-sp-d16
 197              	write_config_6804_2:
 198              	.LFB124:
   5:Src/LTC6804.c **** 	//Holds the formatted config data
 199              		.loc 1 5 0
ARM GAS  /var/folders/p7/nwmyw04531jbkqkgv59cx10h0000gn/T//ccsaCdBZ.s 			page 8


 200              		.cfi_startproc
 201              		@ args = 0, pretend = 0, frame = 8
 202              		@ frame_needed = 0, uses_anonymous_args = 0
 203 0000 00B5     		push	{lr}
 204              	.LCFI1:
 205              		.cfi_def_cfa_offset 4
 206              		.cfi_offset 14, -4
 207 0002 83B0     		sub	sp, sp, #12
 208              	.LCFI2:
 209              		.cfi_def_cfa_offset 16
   7:Src/LTC6804.c **** 
 210              		.loc 1 7 0
 211 0004 0023     		movs	r3, #0
 212 0006 0093     		str	r3, [sp]
 213 0008 ADF80430 		strh	r3, [sp, #4]	@ movhi
 214              	.LVL24:
  16:Src/LTC6804.c **** 	data[1] = config_6804_2_buffer.VUVLB;
 215              		.loc 1 16 0
 216 000c 1B4A     		ldr	r2, .L10
 217 000e 1378     		ldrb	r3, [r2]	@ zero_extendqisi2
 218 0010 03F01F01 		and	r1, r3, #31
 219 0014 1378     		ldrb	r3, [r2]	@ zero_extendqisi2
 220 0016 C3F34013 		ubfx	r3, r3, #5, #1
 221 001a 9B00     		lsls	r3, r3, #2
 222 001c 43EAC103 		orr	r3, r3, r1, lsl #3
 223 0020 5BB2     		sxtb	r3, r3
 224 0022 1178     		ldrb	r1, [r2]	@ zero_extendqisi2
 225 0024 C1F38011 		ubfx	r1, r1, #6, #1
 226 0028 43EA4103 		orr	r3, r3, r1, lsl #1
 227 002c 1178     		ldrb	r1, [r2]	@ zero_extendqisi2
 228 002e 43EAD113 		orr	r3, r3, r1, lsr #7
 229 0032 8DF80030 		strb	r3, [sp]
  17:Src/LTC6804.c **** 	data[2] = config_6804_2_buffer.VOVLB<<4|config_6804_2_buffer.VUVUB;
 230              		.loc 1 17 0
 231 0036 5378     		ldrb	r3, [r2, #1]	@ zero_extendqisi2
 232 0038 8DF80130 		strb	r3, [sp, #1]
  18:Src/LTC6804.c **** 	data[3] = config_6804_2_buffer.VOVUB;
 233              		.loc 1 18 0
 234 003c 9378     		ldrb	r3, [r2, #2]	@ zero_extendqisi2
 235 003e 03F00F01 		and	r1, r3, #15
 236 0042 9378     		ldrb	r3, [r2, #2]	@ zero_extendqisi2
 237 0044 1B09     		lsrs	r3, r3, #4
 238 0046 43EA0113 		orr	r3, r3, r1, lsl #4
 239 004a 8DF80230 		strb	r3, [sp, #2]
  19:Src/LTC6804.c **** 	data[4] = config_6804_2_buffer.DCCLB;
 240              		.loc 1 19 0
 241 004e D378     		ldrb	r3, [r2, #3]	@ zero_extendqisi2
 242 0050 8DF80330 		strb	r3, [sp, #3]
  20:Src/LTC6804.c **** 	data[5] = config_6804_2_buffer.DCTO<<4|config_6804_2_buffer.DCCUB;
 243              		.loc 1 20 0
 244 0054 1379     		ldrb	r3, [r2, #4]	@ zero_extendqisi2
 245 0056 8DF80430 		strb	r3, [sp, #4]
  21:Src/LTC6804.c **** 
 246              		.loc 1 21 0
 247 005a 5379     		ldrb	r3, [r2, #5]	@ zero_extendqisi2
 248 005c 03F00F01 		and	r1, r3, #15
 249 0060 5379     		ldrb	r3, [r2, #5]	@ zero_extendqisi2
ARM GAS  /var/folders/p7/nwmyw04531jbkqkgv59cx10h0000gn/T//ccsaCdBZ.s 			page 9


 250 0062 1B09     		lsrs	r3, r3, #4
 251 0064 43EA0113 		orr	r3, r3, r1, lsl #4
 252 0068 8DF80530 		strb	r3, [sp, #5]
  24:Src/LTC6804.c **** 
 253              		.loc 1 24 0
 254 006c 6946     		mov	r1, sp
 255 006e 48F20100 		movw	r0, #32769
 256 0072 FFF7FEFF 		bl	SPI_transmit_word
 257              	.LVL25:
  27:Src/LTC6804.c **** 
 258              		.loc 1 27 0
 259 0076 03B0     		add	sp, sp, #12
 260              	.LCFI3:
 261              		.cfi_def_cfa_offset 4
 262              		@ sp needed
 263 0078 5DF804FB 		ldr	pc, [sp], #4
 264              	.L11:
 265              		.align	2
 266              	.L10:
 267 007c 00000000 		.word	config_6804_2_buffer
 268              		.cfi_endproc
 269              	.LFE124:
 271              		.section	.text.set_UV_OV_threshold,"ax",%progbits
 272              		.align	1
 273              		.global	set_UV_OV_threshold
 274              		.syntax unified
 275              		.thumb
 276              		.thumb_func
 277              		.fpu fpv4-sp-d16
 279              	set_UV_OV_threshold:
 280              	.LFB125:
  31:Src/LTC6804.c **** 	//Need to check this works
 281              		.loc 1 31 0
 282              		.cfi_startproc
 283              		@ args = 0, pretend = 0, frame = 0
 284              		@ frame_needed = 0, uses_anonymous_args = 0
 285 0000 08B5     		push	{r3, lr}
 286              	.LCFI4:
 287              		.cfi_def_cfa_offset 8
 288              		.cfi_offset 3, -8
 289              		.cfi_offset 14, -4
  33:Src/LTC6804.c **** 	config_6804_2_buffer.VUVLB = (uint8_t)(UNDERVOLTAGE_ALARM_LEVEL&0x0FF);
 290              		.loc 1 33 0
 291 0002 094B     		ldr	r3, .L14
 292 0004 9A78     		ldrb	r2, [r3, #2]	@ zero_extendqisi2
 293 0006 0121     		movs	r1, #1
 294 0008 61F30712 		bfi	r2, r1, #4, #4
 295 000c 9A70     		strb	r2, [r3, #2]
  34:Src/LTC6804.c **** 
 296              		.loc 1 34 0
 297 000e 3722     		movs	r2, #55
 298 0010 5A70     		strb	r2, [r3, #1]
  37:Src/LTC6804.c **** 	config_6804_2_buffer.VOVLB = (uint8_t)(OVERVOLTAGE_ALARM_LEVEL&0x00F);
 299              		.loc 1 37 0
 300 0012 9022     		movs	r2, #144
 301 0014 DA70     		strb	r2, [r3, #3]
  38:Src/LTC6804.c **** 
ARM GAS  /var/folders/p7/nwmyw04531jbkqkgv59cx10h0000gn/T//ccsaCdBZ.s 			page 10


 302              		.loc 1 38 0
 303 0016 9A78     		ldrb	r2, [r3, #2]	@ zero_extendqisi2
 304 0018 0821     		movs	r1, #8
 305 001a 61F30302 		bfi	r2, r1, #0, #4
 306 001e 9A70     		strb	r2, [r3, #2]
  41:Src/LTC6804.c **** 
 307              		.loc 1 41 0
 308 0020 FFF7FEFF 		bl	write_config_6804_2
 309              	.LVL26:
 310 0024 08BD     		pop	{r3, pc}
 311              	.L15:
 312 0026 00BF     		.align	2
 313              	.L14:
 314 0028 00000000 		.word	config_6804_2_buffer
 315              		.cfi_endproc
 316              	.LFE125:
 318              		.section	.text.read_status_A_6804_2,"ax",%progbits
 319              		.align	1
 320              		.global	read_status_A_6804_2
 321              		.syntax unified
 322              		.thumb
 323              		.thumb_func
 324              		.fpu fpv4-sp-d16
 326              	read_status_A_6804_2:
 327              	.LFB126:
  48:Src/LTC6804.c **** 	uint16_t command = 0;
 328              		.loc 1 48 0
 329              		.cfi_startproc
 330              		@ args = 0, pretend = 0, frame = 0
 331              		@ frame_needed = 0, uses_anonymous_args = 0
 332 0000 08B5     		push	{r3, lr}
 333              	.LCFI5:
 334              		.cfi_def_cfa_offset 8
 335              		.cfi_offset 3, -8
 336              		.cfi_offset 14, -4
 337              	.LVL27:
  54:Src/LTC6804.c **** 
 338              		.loc 1 54 0
 339 0002 0021     		movs	r1, #0
 340 0004 48F21000 		movw	r0, #32784
 341 0008 FFF7FEFF 		bl	SPI_transmit_word
 342              	.LVL28:
  57:Src/LTC6804.c **** 	status_A_6804_2.SOCUB	= SPI_recieve_buffer[1];
 343              		.loc 1 57 0
 344 000c 074A     		ldr	r2, .L18
 345 000e 1178     		ldrb	r1, [r2]	@ zero_extendqisi2
 346 0010 074B     		ldr	r3, .L18+4
 347 0012 1970     		strb	r1, [r3]
  58:Src/LTC6804.c **** 	status_A_6804_2.ITMPLB	= SPI_recieve_buffer[2];
 348              		.loc 1 58 0
 349 0014 5178     		ldrb	r1, [r2, #1]	@ zero_extendqisi2
 350 0016 5970     		strb	r1, [r3, #1]
  59:Src/LTC6804.c **** 	status_A_6804_2.ITMPUB	= SPI_recieve_buffer[3];
 351              		.loc 1 59 0
 352 0018 9178     		ldrb	r1, [r2, #2]	@ zero_extendqisi2
 353 001a 9970     		strb	r1, [r3, #2]
  60:Src/LTC6804.c **** 	status_A_6804_2.VALB	= SPI_recieve_buffer[4];
ARM GAS  /var/folders/p7/nwmyw04531jbkqkgv59cx10h0000gn/T//ccsaCdBZ.s 			page 11


 354              		.loc 1 60 0
 355 001c D178     		ldrb	r1, [r2, #3]	@ zero_extendqisi2
 356 001e D970     		strb	r1, [r3, #3]
  61:Src/LTC6804.c **** 	status_A_6804_2.VAUB	= SPI_recieve_buffer[5];
 357              		.loc 1 61 0
 358 0020 1179     		ldrb	r1, [r2, #4]	@ zero_extendqisi2
 359 0022 1971     		strb	r1, [r3, #4]
  62:Src/LTC6804.c **** 
 360              		.loc 1 62 0
 361 0024 5279     		ldrb	r2, [r2, #5]	@ zero_extendqisi2
 362 0026 5A71     		strb	r2, [r3, #5]
  65:Src/LTC6804.c **** 
 363              		.loc 1 65 0
 364 0028 0120     		movs	r0, #1
 365 002a 08BD     		pop	{r3, pc}
 366              	.L19:
 367              		.align	2
 368              	.L18:
 369 002c 00000000 		.word	SPI_recieve_buffer
 370 0030 00000000 		.word	status_A_6804_2
 371              		.cfi_endproc
 372              	.LFE126:
 374              		.section	.text.read_status_B_6804_2,"ax",%progbits
 375              		.align	1
 376              		.global	read_status_B_6804_2
 377              		.syntax unified
 378              		.thumb
 379              		.thumb_func
 380              		.fpu fpv4-sp-d16
 382              	read_status_B_6804_2:
 383              	.LFB127:
  69:Src/LTC6804.c **** 	uint16_t command = 0;
 384              		.loc 1 69 0
 385              		.cfi_startproc
 386              		@ args = 0, pretend = 0, frame = 0
 387              		@ frame_needed = 0, uses_anonymous_args = 0
 388 0000 10B5     		push	{r4, lr}
 389              	.LCFI6:
 390              		.cfi_def_cfa_offset 8
 391              		.cfi_offset 4, -8
 392              		.cfi_offset 14, -4
 393              	.LVL29:
  75:Src/LTC6804.c **** 
 394              		.loc 1 75 0
 395 0002 0021     		movs	r1, #0
 396 0004 48F21200 		movw	r0, #32786
 397 0008 FFF7FEFF 		bl	SPI_transmit_word
 398              	.LVL30:
  78:Src/LTC6804.c **** 	status_B_6804_2.VDUB = SPI_recieve_buffer[1];
 399              		.loc 1 78 0
 400 000c 5349     		ldr	r1, .L22
 401 000e 0A78     		ldrb	r2, [r1]	@ zero_extendqisi2
 402 0010 534B     		ldr	r3, .L22+4
 403 0012 1A70     		strb	r2, [r3]
  79:Src/LTC6804.c **** 
 404              		.loc 1 79 0
 405 0014 4A78     		ldrb	r2, [r1, #1]	@ zero_extendqisi2
ARM GAS  /var/folders/p7/nwmyw04531jbkqkgv59cx10h0000gn/T//ccsaCdBZ.s 			page 12


 406 0016 5A70     		strb	r2, [r3, #1]
  81:Src/LTC6804.c **** 	status_B_6804_2.C1OV = (SPI_recieve_buffer[2] & 0x01<<1)>>1;
 407              		.loc 1 81 0
 408 0018 8A78     		ldrb	r2, [r1, #2]	@ zero_extendqisi2
 409 001a 9878     		ldrb	r0, [r3, #2]	@ zero_extendqisi2
 410 001c 62F3C710 		bfi	r0, r2, #7, #1
 411 0020 9870     		strb	r0, [r3, #2]
  82:Src/LTC6804.c **** 	status_B_6804_2.C2UV = (SPI_recieve_buffer[2] & 0x01<<2)>>2;
 412              		.loc 1 82 0
 413 0022 C2F34004 		ubfx	r4, r2, #1, #1
 414 0026 9878     		ldrb	r0, [r3, #2]	@ zero_extendqisi2
 415 0028 64F38610 		bfi	r0, r4, #6, #1
 416 002c 9870     		strb	r0, [r3, #2]
  83:Src/LTC6804.c **** 	status_B_6804_2.C2OV = (SPI_recieve_buffer[2] & 0x01<<3)>>3;
 417              		.loc 1 83 0
 418 002e C2F38004 		ubfx	r4, r2, #2, #1
 419 0032 9878     		ldrb	r0, [r3, #2]	@ zero_extendqisi2
 420 0034 64F34510 		bfi	r0, r4, #5, #1
 421 0038 9870     		strb	r0, [r3, #2]
  84:Src/LTC6804.c **** 	status_B_6804_2.C3UV = (SPI_recieve_buffer[2] & 0x01<<4)>>4;
 422              		.loc 1 84 0
 423 003a C2F3C004 		ubfx	r4, r2, #3, #1
 424 003e 9878     		ldrb	r0, [r3, #2]	@ zero_extendqisi2
 425 0040 64F30410 		bfi	r0, r4, #4, #1
 426 0044 9870     		strb	r0, [r3, #2]
  85:Src/LTC6804.c **** 	status_B_6804_2.C3OV = (SPI_recieve_buffer[2] & 0x01<<5)>>5;
 427              		.loc 1 85 0
 428 0046 C2F30014 		ubfx	r4, r2, #4, #1
 429 004a 9878     		ldrb	r0, [r3, #2]	@ zero_extendqisi2
 430 004c 64F3C300 		bfi	r0, r4, #3, #1
 431 0050 9870     		strb	r0, [r3, #2]
  86:Src/LTC6804.c **** 	status_B_6804_2.C4UV = (SPI_recieve_buffer[2] & 0x01<<6)>>6;
 432              		.loc 1 86 0
 433 0052 C2F34014 		ubfx	r4, r2, #5, #1
 434 0056 9878     		ldrb	r0, [r3, #2]	@ zero_extendqisi2
 435 0058 64F38200 		bfi	r0, r4, #2, #1
 436 005c 9870     		strb	r0, [r3, #2]
  87:Src/LTC6804.c **** 	status_B_6804_2.C4OV = (SPI_recieve_buffer[2] & 0x01<<7)>>7;
 437              		.loc 1 87 0
 438 005e C2F38014 		ubfx	r4, r2, #6, #1
 439 0062 9878     		ldrb	r0, [r3, #2]	@ zero_extendqisi2
 440 0064 64F34100 		bfi	r0, r4, #1, #1
 441 0068 9870     		strb	r0, [r3, #2]
  88:Src/LTC6804.c **** 
 442              		.loc 1 88 0
 443 006a D209     		lsrs	r2, r2, #7
 444 006c 9878     		ldrb	r0, [r3, #2]	@ zero_extendqisi2
 445 006e 62F30000 		bfi	r0, r2, #0, #1
 446 0072 9870     		strb	r0, [r3, #2]
  91:Src/LTC6804.c **** 	status_B_6804_2.C5OV = (SPI_recieve_buffer[3] & 0x01<<1)>>1;
 447              		.loc 1 91 0
 448 0074 CA78     		ldrb	r2, [r1, #3]	@ zero_extendqisi2
 449 0076 D878     		ldrb	r0, [r3, #3]	@ zero_extendqisi2
 450 0078 62F3C710 		bfi	r0, r2, #7, #1
 451 007c D870     		strb	r0, [r3, #3]
  92:Src/LTC6804.c **** 	status_B_6804_2.C6UV = (SPI_recieve_buffer[3] & 0x01<<2)>>2;
 452              		.loc 1 92 0
ARM GAS  /var/folders/p7/nwmyw04531jbkqkgv59cx10h0000gn/T//ccsaCdBZ.s 			page 13


 453 007e C2F34004 		ubfx	r4, r2, #1, #1
 454 0082 D878     		ldrb	r0, [r3, #3]	@ zero_extendqisi2
 455 0084 64F38610 		bfi	r0, r4, #6, #1
 456 0088 D870     		strb	r0, [r3, #3]
  93:Src/LTC6804.c **** 	status_B_6804_2.C6OV = (SPI_recieve_buffer[3] & 0x01<<3)>>3;
 457              		.loc 1 93 0
 458 008a C2F38004 		ubfx	r4, r2, #2, #1
 459 008e D878     		ldrb	r0, [r3, #3]	@ zero_extendqisi2
 460 0090 64F34510 		bfi	r0, r4, #5, #1
 461 0094 D870     		strb	r0, [r3, #3]
  94:Src/LTC6804.c **** 	status_B_6804_2.C7UV = (SPI_recieve_buffer[3] & 0x01<<4)>>4;
 462              		.loc 1 94 0
 463 0096 C2F3C004 		ubfx	r4, r2, #3, #1
 464 009a D878     		ldrb	r0, [r3, #3]	@ zero_extendqisi2
 465 009c 64F30410 		bfi	r0, r4, #4, #1
 466 00a0 D870     		strb	r0, [r3, #3]
  95:Src/LTC6804.c **** 	status_B_6804_2.C7OV = (SPI_recieve_buffer[3] & 0x01<<5)>>5;
 467              		.loc 1 95 0
 468 00a2 C2F30014 		ubfx	r4, r2, #4, #1
 469 00a6 D878     		ldrb	r0, [r3, #3]	@ zero_extendqisi2
 470 00a8 64F3C300 		bfi	r0, r4, #3, #1
 471 00ac D870     		strb	r0, [r3, #3]
  96:Src/LTC6804.c **** 	status_B_6804_2.C8UV = (SPI_recieve_buffer[3] & 0x01<<6)>>6;
 472              		.loc 1 96 0
 473 00ae C2F34014 		ubfx	r4, r2, #5, #1
 474 00b2 D878     		ldrb	r0, [r3, #3]	@ zero_extendqisi2
 475 00b4 64F38200 		bfi	r0, r4, #2, #1
 476 00b8 D870     		strb	r0, [r3, #3]
  97:Src/LTC6804.c **** 	status_B_6804_2.C8OV = (SPI_recieve_buffer[3] & 0x01<<7)>>7;
 477              		.loc 1 97 0
 478 00ba C2F38014 		ubfx	r4, r2, #6, #1
 479 00be D878     		ldrb	r0, [r3, #3]	@ zero_extendqisi2
 480 00c0 64F34100 		bfi	r0, r4, #1, #1
 481 00c4 D870     		strb	r0, [r3, #3]
  98:Src/LTC6804.c **** 
 482              		.loc 1 98 0
 483 00c6 D209     		lsrs	r2, r2, #7
 484 00c8 D878     		ldrb	r0, [r3, #3]	@ zero_extendqisi2
 485 00ca 62F30000 		bfi	r0, r2, #0, #1
 486 00ce D870     		strb	r0, [r3, #3]
 100:Src/LTC6804.c **** 	status_B_6804_2.C9OV = (SPI_recieve_buffer[4] & 0x01<<1)>>1;
 487              		.loc 1 100 0
 488 00d0 0A79     		ldrb	r2, [r1, #4]	@ zero_extendqisi2
 489 00d2 1879     		ldrb	r0, [r3, #4]	@ zero_extendqisi2
 490 00d4 62F3C710 		bfi	r0, r2, #7, #1
 491 00d8 1871     		strb	r0, [r3, #4]
 101:Src/LTC6804.c **** 	status_B_6804_2.C10UV = (SPI_recieve_buffer[4] & 0x01<<2)>>2;
 492              		.loc 1 101 0
 493 00da C2F34004 		ubfx	r4, r2, #1, #1
 494 00de 1879     		ldrb	r0, [r3, #4]	@ zero_extendqisi2
 495 00e0 64F38610 		bfi	r0, r4, #6, #1
 496 00e4 1871     		strb	r0, [r3, #4]
 102:Src/LTC6804.c **** 	status_B_6804_2.C10OV = (SPI_recieve_buffer[4] & 0x01<<3)>>3;
 497              		.loc 1 102 0
 498 00e6 C2F38004 		ubfx	r4, r2, #2, #1
 499 00ea 1879     		ldrb	r0, [r3, #4]	@ zero_extendqisi2
 500 00ec 64F34510 		bfi	r0, r4, #5, #1
ARM GAS  /var/folders/p7/nwmyw04531jbkqkgv59cx10h0000gn/T//ccsaCdBZ.s 			page 14


 501 00f0 1871     		strb	r0, [r3, #4]
 103:Src/LTC6804.c **** 	status_B_6804_2.C11UV = (SPI_recieve_buffer[4] & 0x01<<4)>>4;
 502              		.loc 1 103 0
 503 00f2 C2F3C004 		ubfx	r4, r2, #3, #1
 504 00f6 1879     		ldrb	r0, [r3, #4]	@ zero_extendqisi2
 505 00f8 64F30410 		bfi	r0, r4, #4, #1
 506 00fc 1871     		strb	r0, [r3, #4]
 104:Src/LTC6804.c **** 	status_B_6804_2.C11OV = (SPI_recieve_buffer[4] & 0x01<<5)>>5;
 507              		.loc 1 104 0
 508 00fe C2F30014 		ubfx	r4, r2, #4, #1
 509 0102 1879     		ldrb	r0, [r3, #4]	@ zero_extendqisi2
 510 0104 64F3C300 		bfi	r0, r4, #3, #1
 511 0108 1871     		strb	r0, [r3, #4]
 105:Src/LTC6804.c **** 	status_B_6804_2.C12UV = (SPI_recieve_buffer[4] & 0x01<<6)>>6;
 512              		.loc 1 105 0
 513 010a C2F34014 		ubfx	r4, r2, #5, #1
 514 010e 1879     		ldrb	r0, [r3, #4]	@ zero_extendqisi2
 515 0110 64F38200 		bfi	r0, r4, #2, #1
 516 0114 1871     		strb	r0, [r3, #4]
 106:Src/LTC6804.c **** 	status_B_6804_2.C12OV = (SPI_recieve_buffer[4] & 0x01<<7)>>7;
 517              		.loc 1 106 0
 518 0116 C2F38014 		ubfx	r4, r2, #6, #1
 519 011a 1879     		ldrb	r0, [r3, #4]	@ zero_extendqisi2
 520 011c 64F34100 		bfi	r0, r4, #1, #1
 521 0120 1871     		strb	r0, [r3, #4]
 107:Src/LTC6804.c **** 
 522              		.loc 1 107 0
 523 0122 D209     		lsrs	r2, r2, #7
 524 0124 1879     		ldrb	r0, [r3, #4]	@ zero_extendqisi2
 525 0126 62F30000 		bfi	r0, r2, #0, #1
 526 012a 1871     		strb	r0, [r3, #4]
 109:Src/LTC6804.c **** 	status_B_6804_2.MUXFAIL = (SPI_recieve_buffer[5] & 0x01<<1)>>1;
 527              		.loc 1 109 0
 528 012c 4A79     		ldrb	r2, [r1, #5]	@ zero_extendqisi2
 529 012e 5979     		ldrb	r1, [r3, #5]	@ zero_extendqisi2
 530 0130 62F3C711 		bfi	r1, r2, #7, #1
 531 0134 5971     		strb	r1, [r3, #5]
 110:Src/LTC6804.c **** 	status_B_6804_2.RSVD = (SPI_recieve_buffer[5] & 0x03<<2)>>2;
 532              		.loc 1 110 0
 533 0136 C2F34000 		ubfx	r0, r2, #1, #1
 534 013a 5979     		ldrb	r1, [r3, #5]	@ zero_extendqisi2
 535 013c 60F38611 		bfi	r1, r0, #6, #1
 536 0140 5971     		strb	r1, [r3, #5]
 111:Src/LTC6804.c **** 	status_B_6804_2.REV = (SPI_recieve_buffer[5] & 0x0F<<4)>>4;
 537              		.loc 1 111 0
 538 0142 C2F38100 		ubfx	r0, r2, #2, #2
 539 0146 5979     		ldrb	r1, [r3, #5]	@ zero_extendqisi2
 540 0148 60F30511 		bfi	r1, r0, #4, #2
 541 014c 5971     		strb	r1, [r3, #5]
 112:Src/LTC6804.c **** 
 542              		.loc 1 112 0
 543 014e 1209     		lsrs	r2, r2, #4
 544 0150 5979     		ldrb	r1, [r3, #5]	@ zero_extendqisi2
 545 0152 62F30301 		bfi	r1, r2, #0, #4
 546 0156 5971     		strb	r1, [r3, #5]
 116:Src/LTC6804.c **** 
 547              		.loc 1 116 0
ARM GAS  /var/folders/p7/nwmyw04531jbkqkgv59cx10h0000gn/T//ccsaCdBZ.s 			page 15


 548 0158 0120     		movs	r0, #1
 549 015a 10BD     		pop	{r4, pc}
 550              	.L23:
 551              		.align	2
 552              	.L22:
 553 015c 00000000 		.word	SPI_recieve_buffer
 554 0160 00000000 		.word	status_B_6804_2
 555              		.cfi_endproc
 556              	.LFE127:
 558              		.section	.text.ADC_read_cell_voltages,"ax",%progbits
 559              		.align	1
 560              		.global	ADC_read_cell_voltages
 561              		.syntax unified
 562              		.thumb
 563              		.thumb_func
 564              		.fpu fpv4-sp-d16
 566              	ADC_read_cell_voltages:
 567              	.LFB129:
 197:Src/LTC6804.c **** 
 198:Src/LTC6804.c **** 	return;
 199:Src/LTC6804.c **** }
 200:Src/LTC6804.c **** 
 201:Src/LTC6804.c **** //This function reads the cell voltage registers and places the data in an array
 202:Src/LTC6804.c **** void ADC_read_cell_voltages(void)
 203:Src/LTC6804.c **** {
 568              		.loc 1 203 0
 569              		.cfi_startproc
 570              		@ args = 0, pretend = 0, frame = 8
 571              		@ frame_needed = 0, uses_anonymous_args = 0
 572 0000 30B5     		push	{r4, r5, lr}
 573              	.LCFI7:
 574              		.cfi_def_cfa_offset 12
 575              		.cfi_offset 4, -12
 576              		.cfi_offset 5, -8
 577              		.cfi_offset 14, -4
 578 0002 83B0     		sub	sp, sp, #12
 579              	.LCFI8:
 580              		.cfi_def_cfa_offset 24
 204:Src/LTC6804.c **** 	//Use a dummy block of data
 205:Src/LTC6804.c **** 	uint8_t data[6] = {0};
 581              		.loc 1 205 0
 582 0004 0023     		movs	r3, #0
 583 0006 0093     		str	r3, [sp]
 584 0008 ADF80430 		strh	r3, [sp, #4]	@ movhi
 206:Src/LTC6804.c **** 
 207:Src/LTC6804.c **** 	//Tell the ADC to run
 208:Src/LTC6804.c **** 	//1000 0011 1110 0000
 209:Src/LTC6804.c **** 	//MD:[8:7] ADC mode - 26kHz filtered
 210:Src/LTC6804.c **** 	//DCP:4 Discharge permit on
 211:Src/LTC6804.c **** 	//CH[2:0] 000, all cells
 212:Src/LTC6804.c **** 	//SEE PAGE 50 in datasheet for more options
 213:Src/LTC6804.c **** 	SPI_transmit_word(0x83F0, data);
 585              		.loc 1 213 0
 586 000c 6946     		mov	r1, sp
 587 000e 48F2F030 		movw	r0, #33776
 588 0012 FFF7FEFF 		bl	SPI_transmit_word
 589              	.LVL31:
ARM GAS  /var/folders/p7/nwmyw04531jbkqkgv59cx10h0000gn/T//ccsaCdBZ.s 			page 16


 214:Src/LTC6804.c **** 
 215:Src/LTC6804.c **** 	//Wait for ADC to run
 216:Src/LTC6804.c **** 	//This can be replaced with a poll loop to improve speed
 217:Src/LTC6804.c **** 	HAL_Delay(250);
 590              		.loc 1 217 0
 591 0016 FA20     		movs	r0, #250
 592 0018 FFF7FEFF 		bl	HAL_Delay
 593              	.LVL32:
 218:Src/LTC6804.c **** 
 219:Src/LTC6804.c **** 	//Request the Group A cell voltages
 220:Src/LTC6804.c **** 	SPI_transmit_word(0x8004, data);
 594              		.loc 1 220 0
 595 001c 6946     		mov	r1, sp
 596 001e 48F20400 		movw	r0, #32772
 597 0022 FFF7FEFF 		bl	SPI_transmit_word
 598              	.LVL33:
 221:Src/LTC6804.c **** 	//Copy the values from the SPI rx buffer
 222:Src/LTC6804.c **** 	Cell_array[0].Cell_voltage = ((uint16_t)SPI_recieve_buffer[1] << 8) | SPI_recieve_buffer[0];
 599              		.loc 1 222 0
 600 0026 2B4C     		ldr	r4, .L26
 601 0028 6278     		ldrb	r2, [r4, #1]	@ zero_extendqisi2
 602 002a 2378     		ldrb	r3, [r4]	@ zero_extendqisi2
 603 002c 43EA0223 		orr	r3, r3, r2, lsl #8
 604 0030 294D     		ldr	r5, .L26+4
 605 0032 2B80     		strh	r3, [r5]	@ movhi
 223:Src/LTC6804.c **** 	Cell_array[1].Cell_voltage = ((uint16_t)SPI_recieve_buffer[3] << 8) | SPI_recieve_buffer[2];
 606              		.loc 1 223 0
 607 0034 E278     		ldrb	r2, [r4, #3]	@ zero_extendqisi2
 608 0036 A378     		ldrb	r3, [r4, #2]	@ zero_extendqisi2
 609 0038 43EA0223 		orr	r3, r3, r2, lsl #8
 610 003c AB82     		strh	r3, [r5, #20]	@ movhi
 224:Src/LTC6804.c **** 	Cell_array[2].Cell_voltage = ((uint16_t)SPI_recieve_buffer[5] << 8) | SPI_recieve_buffer[4];
 611              		.loc 1 224 0
 612 003e 6279     		ldrb	r2, [r4, #5]	@ zero_extendqisi2
 613 0040 2379     		ldrb	r3, [r4, #4]	@ zero_extendqisi2
 614 0042 43EA0223 		orr	r3, r3, r2, lsl #8
 615 0046 2B85     		strh	r3, [r5, #40]	@ movhi
 225:Src/LTC6804.c **** 	//Request the Group B cell voltages
 226:Src/LTC6804.c **** 	SPI_transmit_word(0x8006, data);
 616              		.loc 1 226 0
 617 0048 6946     		mov	r1, sp
 618 004a 48F20600 		movw	r0, #32774
 619 004e FFF7FEFF 		bl	SPI_transmit_word
 620              	.LVL34:
 227:Src/LTC6804.c **** 	//Copy the values from the SPI rx buffer
 228:Src/LTC6804.c **** 	Cell_array[3].Cell_voltage = ((uint16_t)SPI_recieve_buffer[1] << 8) | SPI_recieve_buffer[0];
 621              		.loc 1 228 0
 622 0052 6278     		ldrb	r2, [r4, #1]	@ zero_extendqisi2
 623 0054 2378     		ldrb	r3, [r4]	@ zero_extendqisi2
 624 0056 43EA0223 		orr	r3, r3, r2, lsl #8
 625 005a AB87     		strh	r3, [r5, #60]	@ movhi
 229:Src/LTC6804.c **** 	Cell_array[4].Cell_voltage = ((uint16_t)SPI_recieve_buffer[3] << 8) | SPI_recieve_buffer[2];
 626              		.loc 1 229 0
 627 005c E278     		ldrb	r2, [r4, #3]	@ zero_extendqisi2
 628 005e A378     		ldrb	r3, [r4, #2]	@ zero_extendqisi2
 629 0060 43EA0223 		orr	r3, r3, r2, lsl #8
 630 0064 A5F85030 		strh	r3, [r5, #80]	@ movhi
ARM GAS  /var/folders/p7/nwmyw04531jbkqkgv59cx10h0000gn/T//ccsaCdBZ.s 			page 17


 230:Src/LTC6804.c **** 	Cell_array[5].Cell_voltage = ((uint16_t)SPI_recieve_buffer[5] << 8) | SPI_recieve_buffer[4];
 631              		.loc 1 230 0
 632 0068 6279     		ldrb	r2, [r4, #5]	@ zero_extendqisi2
 633 006a 2379     		ldrb	r3, [r4, #4]	@ zero_extendqisi2
 634 006c 43EA0223 		orr	r3, r3, r2, lsl #8
 635 0070 A5F86430 		strh	r3, [r5, #100]	@ movhi
 231:Src/LTC6804.c **** 
 232:Src/LTC6804.c **** 	//For the 4 cell case
 233:Src/LTC6804.c **** 	if(NUM_CELLS < 8)
 234:Src/LTC6804.c **** 	{
 235:Src/LTC6804.c **** 		return;
 236:Src/LTC6804.c **** 	}
 237:Src/LTC6804.c **** 
 238:Src/LTC6804.c **** 	//Request the Group C cell voltages
 239:Src/LTC6804.c **** 	SPI_transmit_word(0x8008, data);
 636              		.loc 1 239 0
 637 0074 6946     		mov	r1, sp
 638 0076 48F20800 		movw	r0, #32776
 639 007a FFF7FEFF 		bl	SPI_transmit_word
 640              	.LVL35:
 240:Src/LTC6804.c **** 	//Copy the values from the SPI rx buffer
 241:Src/LTC6804.c **** 	Cell_array[6].Cell_voltage = (((uint16_t)SPI_recieve_buffer[1] << 8) & 0xff00) | (SPI_recieve_buff
 641              		.loc 1 241 0
 642 007e 6278     		ldrb	r2, [r4, #1]	@ zero_extendqisi2
 643 0080 2378     		ldrb	r3, [r4]	@ zero_extendqisi2
 644 0082 43EA0223 		orr	r3, r3, r2, lsl #8
 645 0086 A5F87830 		strh	r3, [r5, #120]	@ movhi
 242:Src/LTC6804.c **** 	Cell_array[7].Cell_voltage = ((uint16_t)SPI_recieve_buffer[3] << 8) | SPI_recieve_buffer[2];
 646              		.loc 1 242 0
 647 008a E278     		ldrb	r2, [r4, #3]	@ zero_extendqisi2
 648 008c A378     		ldrb	r3, [r4, #2]	@ zero_extendqisi2
 649 008e 43EA0223 		orr	r3, r3, r2, lsl #8
 650 0092 A5F88C30 		strh	r3, [r5, #140]	@ movhi
 243:Src/LTC6804.c **** 	Cell_array[8].Cell_voltage = ((uint16_t)SPI_recieve_buffer[5] << 8) | SPI_recieve_buffer[4];
 651              		.loc 1 243 0
 652 0096 6279     		ldrb	r2, [r4, #5]	@ zero_extendqisi2
 653 0098 2379     		ldrb	r3, [r4, #4]	@ zero_extendqisi2
 654 009a 43EA0223 		orr	r3, r3, r2, lsl #8
 655 009e A5F8A030 		strh	r3, [r5, #160]	@ movhi
 244:Src/LTC6804.c **** 
 245:Src/LTC6804.c **** 	//Request the Group D cell voltages
 246:Src/LTC6804.c **** 	SPI_transmit_word(0x800A, data);
 656              		.loc 1 246 0
 657 00a2 6946     		mov	r1, sp
 658 00a4 48F20A00 		movw	r0, #32778
 659 00a8 FFF7FEFF 		bl	SPI_transmit_word
 660              	.LVL36:
 247:Src/LTC6804.c **** 	//Copy the values from the SPI rx buffer
 248:Src/LTC6804.c **** 	Cell_array[9].Cell_voltage = ((uint16_t)SPI_recieve_buffer[1] << 8) | SPI_recieve_buffer[0];
 661              		.loc 1 248 0
 662 00ac 6278     		ldrb	r2, [r4, #1]	@ zero_extendqisi2
 663 00ae 2378     		ldrb	r3, [r4]	@ zero_extendqisi2
 664 00b0 43EA0223 		orr	r3, r3, r2, lsl #8
 665 00b4 A5F8B430 		strh	r3, [r5, #180]	@ movhi
 249:Src/LTC6804.c **** 	Cell_array[10].Cell_voltage = ((uint16_t)SPI_recieve_buffer[3] << 8) | SPI_recieve_buffer[2];
 666              		.loc 1 249 0
 667 00b8 E278     		ldrb	r2, [r4, #3]	@ zero_extendqisi2
ARM GAS  /var/folders/p7/nwmyw04531jbkqkgv59cx10h0000gn/T//ccsaCdBZ.s 			page 18


 668 00ba A378     		ldrb	r3, [r4, #2]	@ zero_extendqisi2
 669 00bc 43EA0223 		orr	r3, r3, r2, lsl #8
 670 00c0 A5F8C830 		strh	r3, [r5, #200]	@ movhi
 250:Src/LTC6804.c **** 	Cell_array[11].Cell_voltage = ((uint16_t)SPI_recieve_buffer[5] << 8) | SPI_recieve_buffer[4];
 671              		.loc 1 250 0
 672 00c4 6279     		ldrb	r2, [r4, #5]	@ zero_extendqisi2
 673 00c6 2379     		ldrb	r3, [r4, #4]	@ zero_extendqisi2
 674 00c8 43EA0223 		orr	r3, r3, r2, lsl #8
 675 00cc A5F8DC30 		strh	r3, [r5, #220]	@ movhi
 251:Src/LTC6804.c **** }
 676              		.loc 1 251 0
 677 00d0 03B0     		add	sp, sp, #12
 678              	.LCFI9:
 679              		.cfi_def_cfa_offset 12
 680              		@ sp needed
 681 00d2 30BD     		pop	{r4, r5, pc}
 682              	.L27:
 683              		.align	2
 684              	.L26:
 685 00d4 00000000 		.word	SPI_recieve_buffer
 686 00d8 00000000 		.word	Cell_array
 687              		.cfi_endproc
 688              	.LFE129:
 690              		.comm	status_B_6804_2,6,4
 691              		.comm	status_A_6804_2,6,4
 692              		.comm	Cell_array,240,4
 693              		.comm	config_6804_2_buffer,6,4
 694              		.comm	UART_transmit_buffer,120,4
 695              		.comm	SPI_transmit_buffer,12,4
 696              		.comm	SPI_recieve_buffer,12,4
 697              		.text
 698              	.Letext0:
 699              		.file 2 "/usr/local/Caskroom/gcc-arm-embedded/6-2017-q1-update/gcc-arm-none-eabi-6-2017-q1-update/
 700              		.file 3 "/usr/local/Caskroom/gcc-arm-embedded/6-2017-q1-update/gcc-arm-none-eabi-6-2017-q1-update/
 701              		.file 4 "Drivers/CMSIS/Include/core_cm4.h"
 702              		.file 5 "Drivers/CMSIS/Device/ST/STM32F3xx/Include/system_stm32f3xx.h"
 703              		.file 6 "Drivers/CMSIS/Device/ST/STM32F3xx/Include/stm32f334x8.h"
 704              		.file 7 "/usr/local/Caskroom/gcc-arm-embedded/6-2017-q1-update/gcc-arm-none-eabi-6-2017-q1-update/
 705              		.file 8 "/usr/local/Caskroom/gcc-arm-embedded/6-2017-q1-update/gcc-arm-none-eabi-6-2017-q1-update/
 706              		.file 9 "/usr/local/Caskroom/gcc-arm-embedded/6-2017-q1-update/gcc-arm-none-eabi-6-2017-q1-update/
 707              		.file 10 "/usr/local/Caskroom/gcc-arm-embedded/6-2017-q1-update/gcc-arm-none-eabi-6-2017-q1-update
 708              		.file 11 "Drivers/STM32F3xx_HAL_Driver/Inc/stm32f3xx_hal_def.h"
 709              		.file 12 "Drivers/STM32F3xx_HAL_Driver/Inc/stm32f3xx_hal_dma.h"
 710              		.file 13 "Drivers/STM32F3xx_HAL_Driver/Inc/stm32f3xx_hal_spi.h"
 711              		.file 14 "Drivers/STM32F3xx_HAL_Driver/Inc/stm32f3xx_hal_uart.h"
 712              		.file 15 "Inc/spi.h"
 713              		.file 16 "Inc/usart.h"
 714              		.file 17 "Inc/LTC6804.h"
 715              		.file 18 "Drivers/STM32F3xx_HAL_Driver/Inc/stm32f3xx_hal.h"
 716              		.file 19 "Inc/PEC15.h"
ARM GAS  /var/folders/p7/nwmyw04531jbkqkgv59cx10h0000gn/T//ccsaCdBZ.s 			page 19

