ARM GAS  /var/folders/p7/nwmyw04531jbkqkgv59cx10h0000gn/T//ccwgMclc.s 			page 1


   1              		.cpu cortex-m4
   2              		.eabi_attribute 27, 1
   3              		.eabi_attribute 28, 1
   4              		.eabi_attribute 20, 1
   5              		.eabi_attribute 21, 1
   6              		.eabi_attribute 23, 3
   7              		.eabi_attribute 24, 1
   8              		.eabi_attribute 25, 1
   9              		.eabi_attribute 26, 1
  10              		.eabi_attribute 30, 1
  11              		.eabi_attribute 34, 1
  12              		.eabi_attribute 18, 4
  13              		.file	"main.c"
  14              		.text
  15              	.Ltext0:
  16              		.cfi_sections	.debug_frame
  17              		.section	.text.idle,"ax",%progbits
  18              		.align	1
  19              		.global	idle
  20              		.syntax unified
  21              		.thumb
  22              		.thumb_func
  23              		.fpu fpv4-sp-d16
  25              	idle:
  26              	.LFB125:
  27              		.file 1 "Src/main.c"
   1:Src/main.c    **** /**
   2:Src/main.c    ****   ******************************************************************************
   3:Src/main.c    ****   * File Name          : main.c
   4:Src/main.c    ****   * Description        : Main program body
   5:Src/main.c    ****   ******************************************************************************
   6:Src/main.c    ****   ** This notice applies to any and all portions of this file
   7:Src/main.c    ****   * that are not between comment pairs USER CODE BEGIN and
   8:Src/main.c    ****   * USER CODE END. Other portions of this file, whether 
   9:Src/main.c    ****   * inserted by the user or by software development tools
  10:Src/main.c    ****   * are owned by their respective copyright owners.
  11:Src/main.c    ****   *
  12:Src/main.c    ****   * COPYRIGHT(c) 2017 STMicroelectronics
  13:Src/main.c    ****   *
  14:Src/main.c    ****   * Redistribution and use in source and binary forms, with or without modification,
  15:Src/main.c    ****   * are permitted provided that the following conditions are met:
  16:Src/main.c    ****   *   1. Redistributions of source code must retain the above copyright notice,
  17:Src/main.c    ****   *      this list of conditions and the following disclaimer.
  18:Src/main.c    ****   *   2. Redistributions in binary form must reproduce the above copyright notice,
  19:Src/main.c    ****   *      this list of conditions and the following disclaimer in the documentation
  20:Src/main.c    ****   *      and/or other materials provided with the distribution.
  21:Src/main.c    ****   *   3. Neither the name of STMicroelectronics nor the names of its contributors
  22:Src/main.c    ****   *      may be used to endorse or promote products derived from this software
  23:Src/main.c    ****   *      without specific prior written permission.
  24:Src/main.c    ****   *
  25:Src/main.c    ****   * THIS SOFTWARE IS PROVIDED BY THE COPYRIGHT HOLDERS AND CONTRIBUTORS "AS IS"
  26:Src/main.c    ****   * AND ANY EXPRESS OR IMPLIED WARRANTIES, INCLUDING, BUT NOT LIMITED TO, THE
  27:Src/main.c    ****   * IMPLIED WARRANTIES OF MERCHANTABILITY AND FITNESS FOR A PARTICULAR PURPOSE ARE
  28:Src/main.c    ****   * DISCLAIMED. IN NO EVENT SHALL THE COPYRIGHT HOLDER OR CONTRIBUTORS BE LIABLE
  29:Src/main.c    ****   * FOR ANY DIRECT, INDIRECT, INCIDENTAL, SPECIAL, EXEMPLARY, OR CONSEQUENTIAL
  30:Src/main.c    ****   * DAMAGES (INCLUDING, BUT NOT LIMITED TO, PROCUREMENT OF SUBSTITUTE GOODS OR
  31:Src/main.c    ****   * SERVICES; LOSS OF USE, DATA, OR PROFITS; OR BUSINESS INTERRUPTION) HOWEVER
ARM GAS  /var/folders/p7/nwmyw04531jbkqkgv59cx10h0000gn/T//ccwgMclc.s 			page 2


  32:Src/main.c    ****   * CAUSED AND ON ANY THEORY OF LIABILITY, WHETHER IN CONTRACT, STRICT LIABILITY,
  33:Src/main.c    ****   * OR TORT (INCLUDING NEGLIGENCE OR OTHERWISE) ARISING IN ANY WAY OUT OF THE USE
  34:Src/main.c    ****   * OF THIS SOFTWARE, EVEN IF ADVISED OF THE POSSIBILITY OF SUCH DAMAGE.
  35:Src/main.c    ****   *
  36:Src/main.c    ****   ******************************************************************************
  37:Src/main.c    ****   */
  38:Src/main.c    **** /* Includes ------------------------------------------------------------------*/
  39:Src/main.c    **** #include "main.h"
  40:Src/main.c    **** #include "stm32f3xx_hal.h"
  41:Src/main.c    **** #include "adc.h"
  42:Src/main.c    **** #include "can.h"
  43:Src/main.c    **** #include "dma.h"
  44:Src/main.c    **** #include "rtc.h"
  45:Src/main.c    **** #include "spi.h"
  46:Src/main.c    **** #include "usart.h"
  47:Src/main.c    **** #include "gpio.h"
  48:Src/main.c    **** #include "fsm.h"
  49:Src/main.c    **** #include "PEC15.h"
  50:Src/main.c    **** 
  51:Src/main.c    **** void SystemClock_Config(void);
  52:Src/main.c    **** 
  53:Src/main.c    **** void main(void)
  54:Src/main.c    **** {
  55:Src/main.c    **** 
  56:Src/main.c    ****   /* Reset of all peripherals, Initializes the Flash interface and the Systick. */
  57:Src/main.c    ****   HAL_Init();
  58:Src/main.c    **** 
  59:Src/main.c    ****   /* Configure the system clock */
  60:Src/main.c    ****   SystemClock_Config();
  61:Src/main.c    **** 
  62:Src/main.c    ****   /* Initialize all configured peripherals */
  63:Src/main.c    ****   MX_GPIO_Init();
  64:Src/main.c    ****   MX_DMA_Init();
  65:Src/main.c    ****   MX_ADC1_Init();
  66:Src/main.c    ****   MX_ADC2_Init();
  67:Src/main.c    ****   MX_CAN_Init();
  68:Src/main.c    ****   MX_RTC_Init();
  69:Src/main.c    ****   MX_SPI1_Init();
  70:Src/main.c    ****   MX_USART3_UART_Init();
  71:Src/main.c    **** 
  72:Src/main.c    ****  State currentState = idle;
  73:Src/main.c    **** 
  74:Src/main.c    ****  	set_UV_OV_threshold();
  75:Src/main.c    **** 
  76:Src/main.c    **** 	globalTick=0; //for counting 1 second in the main loop
  77:Src/main.c    **** 	uint8_t loggingCounter = 0; //for adjusting data logging frequency.
  78:Src/main.c    **** 
  79:Src/main.c    ****   while (1)
  80:Src/main.c    ****   {
  81:Src/main.c    ****     currentState = (State)currentState();
  82:Src/main.c    ****   }
  83:Src/main.c    **** 
  84:Src/main.c    **** }
  85:Src/main.c    **** 
  86:Src/main.c    **** State idle(void){
  28              		.loc 1 86 0
  29              		.cfi_startproc
ARM GAS  /var/folders/p7/nwmyw04531jbkqkgv59cx10h0000gn/T//ccwgMclc.s 			page 3


  30              		@ args = 0, pretend = 0, frame = 0
  31              		@ frame_needed = 0, uses_anonymous_args = 0
  32 0000 08B5     		push	{r3, lr}
  33              	.LCFI0:
  34              		.cfi_def_cfa_offset 8
  35              		.cfi_offset 3, -8
  36              		.cfi_offset 14, -4
  87:Src/main.c    ****   HAL_GPIO_WritePin(GPIOC, GLED1_Pin, 1); 
  37              		.loc 1 87 0
  38 0002 0122     		movs	r2, #1
  39 0004 2021     		movs	r1, #32
  40 0006 0448     		ldr	r0, .L3
  41 0008 FFF7FEFF 		bl	HAL_GPIO_WritePin
  42              	.LVL0:
  88:Src/main.c    ****   HAL_Delay(1000);
  43              		.loc 1 88 0
  44 000c 4FF47A70 		mov	r0, #1000
  45 0010 FFF7FEFF 		bl	HAL_Delay
  46              	.LVL1:
  89:Src/main.c    ****   return (State)start;
  90:Src/main.c    **** }
  47              		.loc 1 90 0
  48 0014 0148     		ldr	r0, .L3+4
  49 0016 08BD     		pop	{r3, pc}
  50              	.L4:
  51              		.align	2
  52              	.L3:
  53 0018 00080048 		.word	1207961600
  54 001c 00000000 		.word	start
  55              		.cfi_endproc
  56              	.LFE125:
  58              		.section	.text.start,"ax",%progbits
  59              		.align	1
  60              		.global	start
  61              		.syntax unified
  62              		.thumb
  63              		.thumb_func
  64              		.fpu fpv4-sp-d16
  66              	start:
  67              	.LFB126:
  91:Src/main.c    **** 
  92:Src/main.c    **** State start(void){
  68              		.loc 1 92 0
  69              		.cfi_startproc
  70              		@ args = 0, pretend = 0, frame = 0
  71              		@ frame_needed = 0, uses_anonymous_args = 0
  72 0000 08B5     		push	{r3, lr}
  73              	.LCFI1:
  74              		.cfi_def_cfa_offset 8
  75              		.cfi_offset 3, -8
  76              		.cfi_offset 14, -4
  93:Src/main.c    ****   HAL_GPIO_WritePin(GPIOC, GLED2_Pin, 1); 
  77              		.loc 1 93 0
  78 0002 0122     		movs	r2, #1
  79 0004 8021     		movs	r1, #128
  80 0006 0448     		ldr	r0, .L7
  81 0008 FFF7FEFF 		bl	HAL_GPIO_WritePin
ARM GAS  /var/folders/p7/nwmyw04531jbkqkgv59cx10h0000gn/T//ccwgMclc.s 			page 4


  82              	.LVL2:
  94:Src/main.c    ****   HAL_Delay(1000);
  83              		.loc 1 94 0
  84 000c 4FF47A70 		mov	r0, #1000
  85 0010 FFF7FEFF 		bl	HAL_Delay
  86              	.LVL3:
  95:Src/main.c    ****   return (State)measure;
  96:Src/main.c    **** }
  87              		.loc 1 96 0
  88 0014 0148     		ldr	r0, .L7+4
  89 0016 08BD     		pop	{r3, pc}
  90              	.L8:
  91              		.align	2
  92              	.L7:
  93 0018 00080048 		.word	1207961600
  94 001c 00000000 		.word	measure
  95              		.cfi_endproc
  96              	.LFE126:
  98              		.section	.text.measure,"ax",%progbits
  99              		.align	1
 100              		.global	measure
 101              		.syntax unified
 102              		.thumb
 103              		.thumb_func
 104              		.fpu fpv4-sp-d16
 106              	measure:
 107              	.LFB127:
  97:Src/main.c    **** 
  98:Src/main.c    **** State measure(void){
 108              		.loc 1 98 0
 109              		.cfi_startproc
 110              		@ args = 0, pretend = 0, frame = 0
 111              		@ frame_needed = 0, uses_anonymous_args = 0
 112 0000 10B5     		push	{r4, lr}
 113              	.LCFI2:
 114              		.cfi_def_cfa_offset 8
 115              		.cfi_offset 4, -8
 116              		.cfi_offset 14, -4
  99:Src/main.c    ****   HAL_GPIO_WritePin(GPIOC, RLED1_Pin, 1); 
 117              		.loc 1 99 0
 118 0002 094C     		ldr	r4, .L11
 119 0004 0122     		movs	r2, #1
 120 0006 4FF48071 		mov	r1, #256
 121 000a 2046     		mov	r0, r4
 122 000c FFF7FEFF 		bl	HAL_GPIO_WritePin
 123              	.LVL4:
 100:Src/main.c    ****   HAL_Delay(1000);
 124              		.loc 1 100 0
 125 0010 4FF47A70 		mov	r0, #1000
 126 0014 FFF7FEFF 		bl	HAL_Delay
 127              	.LVL5:
 101:Src/main.c    ****   HAL_GPIO_WritePin(GPIOC, RLED1_Pin, 0);   
 128              		.loc 1 101 0
 129 0018 0022     		movs	r2, #0
 130 001a 4FF48071 		mov	r1, #256
 131 001e 2046     		mov	r0, r4
 132 0020 FFF7FEFF 		bl	HAL_GPIO_WritePin
ARM GAS  /var/folders/p7/nwmyw04531jbkqkgv59cx10h0000gn/T//ccwgMclc.s 			page 5


 133              	.LVL6:
 102:Src/main.c    ****   return (State)estimate_soc;
 103:Src/main.c    **** }
 134              		.loc 1 103 0
 135 0024 0148     		ldr	r0, .L11+4
 136 0026 10BD     		pop	{r4, pc}
 137              	.L12:
 138              		.align	2
 139              	.L11:
 140 0028 00080048 		.word	1207961600
 141 002c 00000000 		.word	estimate_soc
 142              		.cfi_endproc
 143              	.LFE127:
 145              		.section	.text.estimate_soc,"ax",%progbits
 146              		.align	1
 147              		.global	estimate_soc
 148              		.syntax unified
 149              		.thumb
 150              		.thumb_func
 151              		.fpu fpv4-sp-d16
 153              	estimate_soc:
 154              	.LFB128:
 104:Src/main.c    **** 
 105:Src/main.c    **** State estimate_soc(void){
 155              		.loc 1 105 0
 156              		.cfi_startproc
 157              		@ args = 0, pretend = 0, frame = 0
 158              		@ frame_needed = 0, uses_anonymous_args = 0
 159 0000 10B5     		push	{r4, lr}
 160              	.LCFI3:
 161              		.cfi_def_cfa_offset 8
 162              		.cfi_offset 4, -8
 163              		.cfi_offset 14, -4
 106:Src/main.c    ****   HAL_GPIO_WritePin(GPIOC, RLED2_Pin, 1); 
 164              		.loc 1 106 0
 165 0002 084C     		ldr	r4, .L15
 166 0004 0122     		movs	r2, #1
 167 0006 0421     		movs	r1, #4
 168 0008 2046     		mov	r0, r4
 169 000a FFF7FEFF 		bl	HAL_GPIO_WritePin
 170              	.LVL7:
 107:Src/main.c    ****   HAL_Delay(1000);
 171              		.loc 1 107 0
 172 000e 4FF47A70 		mov	r0, #1000
 173 0012 FFF7FEFF 		bl	HAL_Delay
 174              	.LVL8:
 108:Src/main.c    ****   HAL_GPIO_WritePin(GPIOC, RLED2_Pin, 0); 
 175              		.loc 1 108 0
 176 0016 0022     		movs	r2, #0
 177 0018 0421     		movs	r1, #4
 178 001a 2046     		mov	r0, r4
 179 001c FFF7FEFF 		bl	HAL_GPIO_WritePin
 180              	.LVL9:
 109:Src/main.c    ****   return (State)compute_resistance;
 110:Src/main.c    **** }
 181              		.loc 1 110 0
 182 0020 0148     		ldr	r0, .L15+4
ARM GAS  /var/folders/p7/nwmyw04531jbkqkgv59cx10h0000gn/T//ccwgMclc.s 			page 6


 183 0022 10BD     		pop	{r4, pc}
 184              	.L16:
 185              		.align	2
 186              	.L15:
 187 0024 00080048 		.word	1207961600
 188 0028 00000000 		.word	compute_resistance
 189              		.cfi_endproc
 190              	.LFE128:
 192              		.section	.text.compute_resistance,"ax",%progbits
 193              		.align	1
 194              		.global	compute_resistance
 195              		.syntax unified
 196              		.thumb
 197              		.thumb_func
 198              		.fpu fpv4-sp-d16
 200              	compute_resistance:
 201              	.LFB129:
 111:Src/main.c    **** 
 112:Src/main.c    **** State compute_resistance(void){
 202              		.loc 1 112 0
 203              		.cfi_startproc
 204              		@ args = 0, pretend = 0, frame = 0
 205              		@ frame_needed = 0, uses_anonymous_args = 0
 206 0000 10B5     		push	{r4, lr}
 207              	.LCFI4:
 208              		.cfi_def_cfa_offset 8
 209              		.cfi_offset 4, -8
 210              		.cfi_offset 14, -4
 113:Src/main.c    ****   HAL_GPIO_WritePin(GPIOC, GLED1_Pin, 1); 
 211              		.loc 1 113 0
 212 0002 0E4C     		ldr	r4, .L19
 213 0004 0122     		movs	r2, #1
 214 0006 2021     		movs	r1, #32
 215 0008 2046     		mov	r0, r4
 216 000a FFF7FEFF 		bl	HAL_GPIO_WritePin
 217              	.LVL10:
 114:Src/main.c    ****   HAL_GPIO_WritePin(GPIOC, RLED1_Pin, 1); 
 218              		.loc 1 114 0
 219 000e 0122     		movs	r2, #1
 220 0010 4FF48071 		mov	r1, #256
 221 0014 2046     		mov	r0, r4
 222 0016 FFF7FEFF 		bl	HAL_GPIO_WritePin
 223              	.LVL11:
 115:Src/main.c    ****   HAL_Delay(1000);
 224              		.loc 1 115 0
 225 001a 4FF47A70 		mov	r0, #1000
 226 001e FFF7FEFF 		bl	HAL_Delay
 227              	.LVL12:
 116:Src/main.c    ****   HAL_GPIO_WritePin(GPIOC, GLED1_Pin, 0); 
 228              		.loc 1 116 0
 229 0022 0022     		movs	r2, #0
 230 0024 2021     		movs	r1, #32
 231 0026 2046     		mov	r0, r4
 232 0028 FFF7FEFF 		bl	HAL_GPIO_WritePin
 233              	.LVL13:
 117:Src/main.c    ****   HAL_GPIO_WritePin(GPIOC, RLED1_Pin, 0); 
 234              		.loc 1 117 0
ARM GAS  /var/folders/p7/nwmyw04531jbkqkgv59cx10h0000gn/T//ccwgMclc.s 			page 7


 235 002c 0022     		movs	r2, #0
 236 002e 4FF48071 		mov	r1, #256
 237 0032 2046     		mov	r0, r4
 238 0034 FFF7FEFF 		bl	HAL_GPIO_WritePin
 239              	.LVL14:
 118:Src/main.c    ****   return (State)compute_capacity;
 119:Src/main.c    **** }
 240              		.loc 1 119 0
 241 0038 0148     		ldr	r0, .L19+4
 242 003a 10BD     		pop	{r4, pc}
 243              	.L20:
 244              		.align	2
 245              	.L19:
 246 003c 00080048 		.word	1207961600
 247 0040 00000000 		.word	compute_capacity
 248              		.cfi_endproc
 249              	.LFE129:
 251              		.section	.text.compute_capacity,"ax",%progbits
 252              		.align	1
 253              		.global	compute_capacity
 254              		.syntax unified
 255              		.thumb
 256              		.thumb_func
 257              		.fpu fpv4-sp-d16
 259              	compute_capacity:
 260              	.LFB130:
 120:Src/main.c    **** 
 121:Src/main.c    **** State compute_capacity(void){
 261              		.loc 1 121 0
 262              		.cfi_startproc
 263              		@ args = 0, pretend = 0, frame = 0
 264              		@ frame_needed = 0, uses_anonymous_args = 0
 265 0000 10B5     		push	{r4, lr}
 266              	.LCFI5:
 267              		.cfi_def_cfa_offset 8
 268              		.cfi_offset 4, -8
 269              		.cfi_offset 14, -4
 122:Src/main.c    ****   HAL_GPIO_WritePin(GPIOC, GLED1_Pin, 1); 
 270              		.loc 1 122 0
 271 0002 0D4C     		ldr	r4, .L23
 272 0004 0122     		movs	r2, #1
 273 0006 2021     		movs	r1, #32
 274 0008 2046     		mov	r0, r4
 275 000a FFF7FEFF 		bl	HAL_GPIO_WritePin
 276              	.LVL15:
 123:Src/main.c    ****   HAL_GPIO_WritePin(GPIOC, RLED2_Pin, 1); 
 277              		.loc 1 123 0
 278 000e 0122     		movs	r2, #1
 279 0010 0421     		movs	r1, #4
 280 0012 2046     		mov	r0, r4
 281 0014 FFF7FEFF 		bl	HAL_GPIO_WritePin
 282              	.LVL16:
 124:Src/main.c    ****   HAL_Delay(1000);
 283              		.loc 1 124 0
 284 0018 4FF47A70 		mov	r0, #1000
 285 001c FFF7FEFF 		bl	HAL_Delay
 286              	.LVL17:
ARM GAS  /var/folders/p7/nwmyw04531jbkqkgv59cx10h0000gn/T//ccwgMclc.s 			page 8


 125:Src/main.c    ****   HAL_GPIO_WritePin(GPIOC, GLED1_Pin, 0); 
 287              		.loc 1 125 0
 288 0020 0022     		movs	r2, #0
 289 0022 2021     		movs	r1, #32
 290 0024 2046     		mov	r0, r4
 291 0026 FFF7FEFF 		bl	HAL_GPIO_WritePin
 292              	.LVL18:
 126:Src/main.c    ****   HAL_GPIO_WritePin(GPIOC, RLED2_Pin, 0); 
 293              		.loc 1 126 0
 294 002a 0022     		movs	r2, #0
 295 002c 0421     		movs	r1, #4
 296 002e 2046     		mov	r0, r4
 297 0030 FFF7FEFF 		bl	HAL_GPIO_WritePin
 298              	.LVL19:
 127:Src/main.c    ****   return (State)balancing;
 128:Src/main.c    **** }
 299              		.loc 1 128 0
 300 0034 0148     		ldr	r0, .L23+4
 301 0036 10BD     		pop	{r4, pc}
 302              	.L24:
 303              		.align	2
 304              	.L23:
 305 0038 00080048 		.word	1207961600
 306 003c 00000000 		.word	balancing
 307              		.cfi_endproc
 308              	.LFE130:
 310              		.section	.text.balancing,"ax",%progbits
 311              		.align	1
 312              		.global	balancing
 313              		.syntax unified
 314              		.thumb
 315              		.thumb_func
 316              		.fpu fpv4-sp-d16
 318              	balancing:
 319              	.LFB131:
 129:Src/main.c    **** 
 130:Src/main.c    **** State balancing(void){
 320              		.loc 1 130 0
 321              		.cfi_startproc
 322              		@ args = 0, pretend = 0, frame = 0
 323              		@ frame_needed = 0, uses_anonymous_args = 0
 324 0000 10B5     		push	{r4, lr}
 325              	.LCFI6:
 326              		.cfi_def_cfa_offset 8
 327              		.cfi_offset 4, -8
 328              		.cfi_offset 14, -4
 131:Src/main.c    ****   HAL_GPIO_WritePin(GPIOC, GLED2_Pin, 1); 
 329              		.loc 1 131 0
 330 0002 0E4C     		ldr	r4, .L27
 331 0004 0122     		movs	r2, #1
 332 0006 8021     		movs	r1, #128
 333 0008 2046     		mov	r0, r4
 334 000a FFF7FEFF 		bl	HAL_GPIO_WritePin
 335              	.LVL20:
 132:Src/main.c    ****   HAL_GPIO_WritePin(GPIOC, RLED1_Pin, 1); 
 336              		.loc 1 132 0
 337 000e 0122     		movs	r2, #1
ARM GAS  /var/folders/p7/nwmyw04531jbkqkgv59cx10h0000gn/T//ccwgMclc.s 			page 9


 338 0010 4FF48071 		mov	r1, #256
 339 0014 2046     		mov	r0, r4
 340 0016 FFF7FEFF 		bl	HAL_GPIO_WritePin
 341              	.LVL21:
 133:Src/main.c    ****   HAL_Delay(1000);
 342              		.loc 1 133 0
 343 001a 4FF47A70 		mov	r0, #1000
 344 001e FFF7FEFF 		bl	HAL_Delay
 345              	.LVL22:
 134:Src/main.c    ****   HAL_GPIO_WritePin(GPIOC, GLED2_Pin, 0); 
 346              		.loc 1 134 0
 347 0022 0022     		movs	r2, #0
 348 0024 8021     		movs	r1, #128
 349 0026 2046     		mov	r0, r4
 350 0028 FFF7FEFF 		bl	HAL_GPIO_WritePin
 351              	.LVL23:
 135:Src/main.c    ****   HAL_GPIO_WritePin(GPIOC, RLED1_Pin, 0); 
 352              		.loc 1 135 0
 353 002c 0022     		movs	r2, #0
 354 002e 4FF48071 		mov	r1, #256
 355 0032 2046     		mov	r0, r4
 356 0034 FFF7FEFF 		bl	HAL_GPIO_WritePin
 357              	.LVL24:
 136:Src/main.c    ****   return (State)send_data;
 137:Src/main.c    **** 
 138:Src/main.c    **** }
 358              		.loc 1 138 0
 359 0038 0148     		ldr	r0, .L27+4
 360 003a 10BD     		pop	{r4, pc}
 361              	.L28:
 362              		.align	2
 363              	.L27:
 364 003c 00080048 		.word	1207961600
 365 0040 00000000 		.word	send_data
 366              		.cfi_endproc
 367              	.LFE131:
 369              		.section	.text.send_data,"ax",%progbits
 370              		.align	1
 371              		.global	send_data
 372              		.syntax unified
 373              		.thumb
 374              		.thumb_func
 375              		.fpu fpv4-sp-d16
 377              	send_data:
 378              	.LFB132:
 139:Src/main.c    **** 
 140:Src/main.c    **** State send_data(void){
 379              		.loc 1 140 0
 380              		.cfi_startproc
 381              		@ args = 0, pretend = 0, frame = 0
 382              		@ frame_needed = 0, uses_anonymous_args = 0
 383 0000 10B5     		push	{r4, lr}
 384              	.LCFI7:
 385              		.cfi_def_cfa_offset 8
 386              		.cfi_offset 4, -8
 387              		.cfi_offset 14, -4
 141:Src/main.c    ****   HAL_GPIO_WritePin(GPIOC, GLED1_Pin, 1); 
ARM GAS  /var/folders/p7/nwmyw04531jbkqkgv59cx10h0000gn/T//ccwgMclc.s 			page 10


 388              		.loc 1 141 0
 389 0002 0D4C     		ldr	r4, .L31
 390 0004 0122     		movs	r2, #1
 391 0006 2021     		movs	r1, #32
 392 0008 2046     		mov	r0, r4
 393 000a FFF7FEFF 		bl	HAL_GPIO_WritePin
 394              	.LVL25:
 142:Src/main.c    ****   HAL_GPIO_WritePin(GPIOC, GLED2_Pin, 1); 
 395              		.loc 1 142 0
 396 000e 0122     		movs	r2, #1
 397 0010 8021     		movs	r1, #128
 398 0012 2046     		mov	r0, r4
 399 0014 FFF7FEFF 		bl	HAL_GPIO_WritePin
 400              	.LVL26:
 143:Src/main.c    ****   HAL_Delay(1000);
 401              		.loc 1 143 0
 402 0018 4FF47A70 		mov	r0, #1000
 403 001c FFF7FEFF 		bl	HAL_Delay
 404              	.LVL27:
 144:Src/main.c    ****   HAL_GPIO_WritePin(GPIOC, GLED1_Pin, 0); 
 405              		.loc 1 144 0
 406 0020 0022     		movs	r2, #0
 407 0022 2021     		movs	r1, #32
 408 0024 2046     		mov	r0, r4
 409 0026 FFF7FEFF 		bl	HAL_GPIO_WritePin
 410              	.LVL28:
 145:Src/main.c    ****   HAL_GPIO_WritePin(GPIOC, GLED2_Pin, 0); 
 411              		.loc 1 145 0
 412 002a 0022     		movs	r2, #0
 413 002c 8021     		movs	r1, #128
 414 002e 2046     		mov	r0, r4
 415 0030 FFF7FEFF 		bl	HAL_GPIO_WritePin
 416              	.LVL29:
 146:Src/main.c    ****   return (State)shutdown;
 147:Src/main.c    **** 
 148:Src/main.c    **** }
 417              		.loc 1 148 0
 418 0034 0148     		ldr	r0, .L31+4
 419 0036 10BD     		pop	{r4, pc}
 420              	.L32:
 421              		.align	2
 422              	.L31:
 423 0038 00080048 		.word	1207961600
 424 003c 00000000 		.word	shutdown
 425              		.cfi_endproc
 426              	.LFE132:
 428              		.section	.text.shutdown,"ax",%progbits
 429              		.align	1
 430              		.global	shutdown
 431              		.syntax unified
 432              		.thumb
 433              		.thumb_func
 434              		.fpu fpv4-sp-d16
 436              	shutdown:
 437              	.LFB133:
 149:Src/main.c    **** 
 150:Src/main.c    **** State shutdown(void){
ARM GAS  /var/folders/p7/nwmyw04531jbkqkgv59cx10h0000gn/T//ccwgMclc.s 			page 11


 438              		.loc 1 150 0
 439              		.cfi_startproc
 440              		@ args = 0, pretend = 0, frame = 0
 441              		@ frame_needed = 0, uses_anonymous_args = 0
 442 0000 08B5     		push	{r3, lr}
 443              	.LCFI8:
 444              		.cfi_def_cfa_offset 8
 445              		.cfi_offset 3, -8
 446              		.cfi_offset 14, -4
 151:Src/main.c    ****   HAL_Delay(1000);
 447              		.loc 1 151 0
 448 0002 4FF47A70 		mov	r0, #1000
 449 0006 FFF7FEFF 		bl	HAL_Delay
 450              	.LVL30:
 152:Src/main.c    ****   return (State)idle;
 153:Src/main.c    **** }
 451              		.loc 1 153 0
 452 000a 0148     		ldr	r0, .L35
 453 000c 08BD     		pop	{r3, pc}
 454              	.L36:
 455 000e 00BF     		.align	2
 456              	.L35:
 457 0010 00000000 		.word	idle
 458              		.cfi_endproc
 459              	.LFE133:
 461              		.section	.text.SystemClock_Config,"ax",%progbits
 462              		.align	1
 463              		.global	SystemClock_Config
 464              		.syntax unified
 465              		.thumb
 466              		.thumb_func
 467              		.fpu fpv4-sp-d16
 469              	SystemClock_Config:
 470              	.LFB134:
 154:Src/main.c    **** 
 155:Src/main.c    **** void SystemClock_Config(void)
 156:Src/main.c    **** {
 471              		.loc 1 156 0
 472              		.cfi_startproc
 473              		@ args = 0, pretend = 0, frame = 88
 474              		@ frame_needed = 0, uses_anonymous_args = 0
 475 0000 00B5     		push	{lr}
 476              	.LCFI9:
 477              		.cfi_def_cfa_offset 4
 478              		.cfi_offset 14, -4
 479 0002 97B0     		sub	sp, sp, #92
 480              	.LCFI10:
 481              		.cfi_def_cfa_offset 96
 157:Src/main.c    **** 
 158:Src/main.c    ****   RCC_OscInitTypeDef RCC_OscInitStruct;
 159:Src/main.c    ****   RCC_ClkInitTypeDef RCC_ClkInitStruct;
 160:Src/main.c    ****   RCC_PeriphCLKInitTypeDef PeriphClkInit;
 161:Src/main.c    **** 
 162:Src/main.c    ****     /**Initializes the CPU, AHB and APB busses clocks 
 163:Src/main.c    ****     */
 164:Src/main.c    ****   RCC_OscInitStruct.OscillatorType = RCC_OSCILLATORTYPE_LSI|RCC_OSCILLATORTYPE_HSE;
 482              		.loc 1 164 0
ARM GAS  /var/folders/p7/nwmyw04531jbkqkgv59cx10h0000gn/T//ccwgMclc.s 			page 12


 483 0004 0923     		movs	r3, #9
 484 0006 0C93     		str	r3, [sp, #48]
 165:Src/main.c    ****   RCC_OscInitStruct.HSEState = RCC_HSE_ON;
 485              		.loc 1 165 0
 486 0008 4FF48033 		mov	r3, #65536
 487 000c 0D93     		str	r3, [sp, #52]
 166:Src/main.c    ****   RCC_OscInitStruct.HSEPredivValue = RCC_HSE_PREDIV_DIV1;
 488              		.loc 1 166 0
 489 000e 0022     		movs	r2, #0
 490 0010 0E92     		str	r2, [sp, #56]
 167:Src/main.c    ****   RCC_OscInitStruct.HSIState = RCC_HSI_ON;
 491              		.loc 1 167 0
 492 0012 0122     		movs	r2, #1
 493 0014 1092     		str	r2, [sp, #64]
 168:Src/main.c    ****   RCC_OscInitStruct.LSIState = RCC_LSI_ON;
 494              		.loc 1 168 0
 495 0016 1292     		str	r2, [sp, #72]
 169:Src/main.c    ****   RCC_OscInitStruct.PLL.PLLState = RCC_PLL_ON;
 496              		.loc 1 169 0
 497 0018 0222     		movs	r2, #2
 498 001a 1392     		str	r2, [sp, #76]
 170:Src/main.c    ****   RCC_OscInitStruct.PLL.PLLSource = RCC_PLLSOURCE_HSE;
 499              		.loc 1 170 0
 500 001c 1493     		str	r3, [sp, #80]
 171:Src/main.c    ****   RCC_OscInitStruct.PLL.PLLMUL = RCC_PLL_MUL9;
 501              		.loc 1 171 0
 502 001e 4FF4E013 		mov	r3, #1835008
 503 0022 1593     		str	r3, [sp, #84]
 172:Src/main.c    ****   if (HAL_RCC_OscConfig(&RCC_OscInitStruct) != HAL_OK)
 504              		.loc 1 172 0
 505 0024 0CA8     		add	r0, sp, #48
 506 0026 FFF7FEFF 		bl	HAL_RCC_OscConfig
 507              	.LVL31:
 508 002a 68BB     		cbnz	r0, .L42
 509              	.L38:
 173:Src/main.c    ****   {
 174:Src/main.c    ****     _Error_Handler(__FILE__, __LINE__);
 175:Src/main.c    ****   }
 176:Src/main.c    **** 
 177:Src/main.c    ****     /**Initializes the CPU, AHB and APB busses clocks 
 178:Src/main.c    ****     */
 179:Src/main.c    ****   RCC_ClkInitStruct.ClockType = RCC_CLOCKTYPE_HCLK|RCC_CLOCKTYPE_SYSCLK
 510              		.loc 1 179 0
 511 002c 0F23     		movs	r3, #15
 512 002e 0793     		str	r3, [sp, #28]
 180:Src/main.c    ****                               |RCC_CLOCKTYPE_PCLK1|RCC_CLOCKTYPE_PCLK2;
 181:Src/main.c    ****   RCC_ClkInitStruct.SYSCLKSource = RCC_SYSCLKSOURCE_PLLCLK;
 513              		.loc 1 181 0
 514 0030 0221     		movs	r1, #2
 515 0032 0891     		str	r1, [sp, #32]
 182:Src/main.c    ****   RCC_ClkInitStruct.AHBCLKDivider = RCC_SYSCLK_DIV1;
 516              		.loc 1 182 0
 517 0034 0023     		movs	r3, #0
 518 0036 0993     		str	r3, [sp, #36]
 183:Src/main.c    ****   RCC_ClkInitStruct.APB1CLKDivider = RCC_HCLK_DIV2;
 519              		.loc 1 183 0
 520 0038 4FF48062 		mov	r2, #1024
ARM GAS  /var/folders/p7/nwmyw04531jbkqkgv59cx10h0000gn/T//ccwgMclc.s 			page 13


 521 003c 0A92     		str	r2, [sp, #40]
 184:Src/main.c    ****   RCC_ClkInitStruct.APB2CLKDivider = RCC_HCLK_DIV1;
 522              		.loc 1 184 0
 523 003e 0B93     		str	r3, [sp, #44]
 185:Src/main.c    **** 
 186:Src/main.c    ****   if (HAL_RCC_ClockConfig(&RCC_ClkInitStruct, FLASH_LATENCY_2) != HAL_OK)
 524              		.loc 1 186 0
 525 0040 07A8     		add	r0, sp, #28
 526 0042 FFF7FEFF 		bl	HAL_RCC_ClockConfig
 527              	.LVL32:
 528 0046 20BB     		cbnz	r0, .L43
 529              	.L39:
 187:Src/main.c    ****   {
 188:Src/main.c    ****     _Error_Handler(__FILE__, __LINE__);
 189:Src/main.c    ****   }
 190:Src/main.c    **** 
 191:Src/main.c    ****   PeriphClkInit.PeriphClockSelection = RCC_PERIPHCLK_RTC|RCC_PERIPHCLK_ADC12;
 530              		.loc 1 191 0
 531 0048 174B     		ldr	r3, .L45
 532 004a 0093     		str	r3, [sp]
 192:Src/main.c    ****   PeriphClkInit.Adc12ClockSelection = RCC_ADC12PLLCLK_DIV1;
 533              		.loc 1 192 0
 534 004c 4FF48073 		mov	r3, #256
 535 0050 0493     		str	r3, [sp, #16]
 193:Src/main.c    ****   PeriphClkInit.RTCClockSelection = RCC_RTCCLKSOURCE_LSI;
 536              		.loc 1 193 0
 537 0052 4FF40073 		mov	r3, #512
 538 0056 0193     		str	r3, [sp, #4]
 194:Src/main.c    ****   if (HAL_RCCEx_PeriphCLKConfig(&PeriphClkInit) != HAL_OK)
 539              		.loc 1 194 0
 540 0058 6846     		mov	r0, sp
 541 005a FFF7FEFF 		bl	HAL_RCCEx_PeriphCLKConfig
 542              	.LVL33:
 543 005e E8B9     		cbnz	r0, .L44
 544              	.L40:
 195:Src/main.c    ****   {
 196:Src/main.c    ****     _Error_Handler(__FILE__, __LINE__);
 197:Src/main.c    ****   }
 198:Src/main.c    **** 
 199:Src/main.c    ****     /**Configure the Systick interrupt time 
 200:Src/main.c    ****     */
 201:Src/main.c    ****   HAL_SYSTICK_Config(HAL_RCC_GetHCLKFreq()/1000);
 545              		.loc 1 201 0
 546 0060 FFF7FEFF 		bl	HAL_RCC_GetHCLKFreq
 547              	.LVL34:
 548 0064 114B     		ldr	r3, .L45+4
 549 0066 A3FB0030 		umull	r3, r0, r3, r0
 550 006a 8009     		lsrs	r0, r0, #6
 551 006c FFF7FEFF 		bl	HAL_SYSTICK_Config
 552              	.LVL35:
 202:Src/main.c    **** 
 203:Src/main.c    ****     /**Configure the Systick 
 204:Src/main.c    ****     */
 205:Src/main.c    ****   HAL_SYSTICK_CLKSourceConfig(SYSTICK_CLKSOURCE_HCLK);
 553              		.loc 1 205 0
 554 0070 0420     		movs	r0, #4
 555 0072 FFF7FEFF 		bl	HAL_SYSTICK_CLKSourceConfig
ARM GAS  /var/folders/p7/nwmyw04531jbkqkgv59cx10h0000gn/T//ccwgMclc.s 			page 14


 556              	.LVL36:
 206:Src/main.c    **** 
 207:Src/main.c    ****   /* SysTick_IRQn interrupt configuration */
 208:Src/main.c    ****   HAL_NVIC_SetPriority(SysTick_IRQn, 0, 0);
 557              		.loc 1 208 0
 558 0076 0022     		movs	r2, #0
 559 0078 1146     		mov	r1, r2
 560 007a 4FF0FF30 		mov	r0, #-1
 561 007e FFF7FEFF 		bl	HAL_NVIC_SetPriority
 562              	.LVL37:
 209:Src/main.c    **** }
 563              		.loc 1 209 0
 564 0082 17B0     		add	sp, sp, #92
 565              	.LCFI11:
 566              		.cfi_remember_state
 567              		.cfi_def_cfa_offset 4
 568              		@ sp needed
 569 0084 5DF804FB 		ldr	pc, [sp], #4
 570              	.L42:
 571              	.LCFI12:
 572              		.cfi_restore_state
 174:Src/main.c    ****   }
 573              		.loc 1 174 0
 574 0088 AE21     		movs	r1, #174
 575 008a 0948     		ldr	r0, .L45+8
 576 008c FFF7FEFF 		bl	_Error_Handler
 577              	.LVL38:
 578 0090 CCE7     		b	.L38
 579              	.L43:
 188:Src/main.c    ****   }
 580              		.loc 1 188 0
 581 0092 BC21     		movs	r1, #188
 582 0094 0648     		ldr	r0, .L45+8
 583 0096 FFF7FEFF 		bl	_Error_Handler
 584              	.LVL39:
 585 009a D5E7     		b	.L39
 586              	.L44:
 196:Src/main.c    ****   }
 587              		.loc 1 196 0
 588 009c C421     		movs	r1, #196
 589 009e 0448     		ldr	r0, .L45+8
 590 00a0 FFF7FEFF 		bl	_Error_Handler
 591              	.LVL40:
 592 00a4 DCE7     		b	.L40
 593              	.L46:
 594 00a6 00BF     		.align	2
 595              	.L45:
 596 00a8 80000100 		.word	65664
 597 00ac D34D6210 		.word	274877907
 598 00b0 00000000 		.word	.LC0
 599              		.cfi_endproc
 600              	.LFE134:
 602              		.section	.text.main,"ax",%progbits
 603              		.align	1
 604              		.global	main
 605              		.syntax unified
 606              		.thumb
ARM GAS  /var/folders/p7/nwmyw04531jbkqkgv59cx10h0000gn/T//ccwgMclc.s 			page 15


 607              		.thumb_func
 608              		.fpu fpv4-sp-d16
 610              	main:
 611              	.LFB124:
  54:Src/main.c    **** 
 612              		.loc 1 54 0
 613              		.cfi_startproc
 614              		@ args = 0, pretend = 0, frame = 0
 615              		@ frame_needed = 0, uses_anonymous_args = 0
 616 0000 08B5     		push	{r3, lr}
 617              	.LCFI13:
 618              		.cfi_def_cfa_offset 8
 619              		.cfi_offset 3, -8
 620              		.cfi_offset 14, -4
  57:Src/main.c    **** 
 621              		.loc 1 57 0
 622 0002 FFF7FEFF 		bl	HAL_Init
 623              	.LVL41:
  60:Src/main.c    **** 
 624              		.loc 1 60 0
 625 0006 FFF7FEFF 		bl	SystemClock_Config
 626              	.LVL42:
  63:Src/main.c    ****   MX_DMA_Init();
 627              		.loc 1 63 0
 628 000a FFF7FEFF 		bl	MX_GPIO_Init
 629              	.LVL43:
  64:Src/main.c    ****   MX_ADC1_Init();
 630              		.loc 1 64 0
 631 000e FFF7FEFF 		bl	MX_DMA_Init
 632              	.LVL44:
  65:Src/main.c    ****   MX_ADC2_Init();
 633              		.loc 1 65 0
 634 0012 FFF7FEFF 		bl	MX_ADC1_Init
 635              	.LVL45:
  66:Src/main.c    ****   MX_CAN_Init();
 636              		.loc 1 66 0
 637 0016 FFF7FEFF 		bl	MX_ADC2_Init
 638              	.LVL46:
  67:Src/main.c    ****   MX_RTC_Init();
 639              		.loc 1 67 0
 640 001a FFF7FEFF 		bl	MX_CAN_Init
 641              	.LVL47:
  68:Src/main.c    ****   MX_SPI1_Init();
 642              		.loc 1 68 0
 643 001e FFF7FEFF 		bl	MX_RTC_Init
 644              	.LVL48:
  69:Src/main.c    ****   MX_USART3_UART_Init();
 645              		.loc 1 69 0
 646 0022 FFF7FEFF 		bl	MX_SPI1_Init
 647              	.LVL49:
  70:Src/main.c    **** 
 648              		.loc 1 70 0
 649 0026 FFF7FEFF 		bl	MX_USART3_UART_Init
 650              	.LVL50:
  74:Src/main.c    **** 
 651              		.loc 1 74 0
 652 002a FFF7FEFF 		bl	set_UV_OV_threshold
ARM GAS  /var/folders/p7/nwmyw04531jbkqkgv59cx10h0000gn/T//ccwgMclc.s 			page 16


 653              	.LVL51:
  76:Src/main.c    **** 	uint8_t loggingCounter = 0; //for adjusting data logging frequency.
 654              		.loc 1 76 0
 655 002e 0022     		movs	r2, #0
 656 0030 024B     		ldr	r3, .L50
 657 0032 1A60     		str	r2, [r3]
 658              	.LVL52:
  72:Src/main.c    **** 
 659              		.loc 1 72 0
 660 0034 0248     		ldr	r0, .L50+4
 661              	.LVL53:
 662              	.L48:
  81:Src/main.c    ****   }
 663              		.loc 1 81 0 discriminator 1
 664 0036 8047     		blx	r0
 665              	.LVL54:
 666 0038 FDE7     		b	.L48
 667              	.L51:
 668 003a 00BF     		.align	2
 669              	.L50:
 670 003c 00000000 		.word	globalTick
 671 0040 00000000 		.word	idle
 672              		.cfi_endproc
 673              	.LFE124:
 675              		.comm	UART_transmit_buffer,120,4
 676              		.comm	SPI_transmit_buffer,12,4
 677              		.comm	SPI_recieve_buffer,12,4
 678              		.comm	RTCdate,4,4
 679              		.comm	RTCtime,20,4
 680              		.comm	globalTick,4,4
 681              		.section	.rodata.SystemClock_Config.str1.4,"aMS",%progbits,1
 682              		.align	2
 683              	.LC0:
 684 0000 5372632F 		.ascii	"Src/main.c\000"
 684      6D61696E 
 684      2E6300
 685              		.text
 686              	.Letext0:
 687              		.file 2 "/usr/local/Caskroom/gcc-arm-embedded/6-2017-q1-update/gcc-arm-none-eabi-6-2017-q1-update/
 688              		.file 3 "/usr/local/Caskroom/gcc-arm-embedded/6-2017-q1-update/gcc-arm-none-eabi-6-2017-q1-update/
 689              		.file 4 "Inc/main.h"
 690              		.file 5 "Drivers/CMSIS/Include/core_cm4.h"
 691              		.file 6 "Drivers/CMSIS/Device/ST/STM32F3xx/Include/system_stm32f3xx.h"
 692              		.file 7 "Drivers/CMSIS/Device/ST/STM32F3xx/Include/stm32f334x8.h"
 693              		.file 8 "/usr/local/Caskroom/gcc-arm-embedded/6-2017-q1-update/gcc-arm-none-eabi-6-2017-q1-update/
 694              		.file 9 "/usr/local/Caskroom/gcc-arm-embedded/6-2017-q1-update/gcc-arm-none-eabi-6-2017-q1-update/
 695              		.file 10 "/usr/local/Caskroom/gcc-arm-embedded/6-2017-q1-update/gcc-arm-none-eabi-6-2017-q1-update
 696              		.file 11 "/usr/local/Caskroom/gcc-arm-embedded/6-2017-q1-update/gcc-arm-none-eabi-6-2017-q1-update
 697              		.file 12 "Drivers/STM32F3xx_HAL_Driver/Inc/stm32f3xx_hal_def.h"
 698              		.file 13 "Drivers/STM32F3xx_HAL_Driver/Inc/stm32f3xx_hal_rcc.h"
 699              		.file 14 "Drivers/STM32F3xx_HAL_Driver/Inc/stm32f3xx_hal_rcc_ex.h"
 700              		.file 15 "Drivers/STM32F3xx_HAL_Driver/Inc/stm32f3xx_hal_dma.h"
 701              		.file 16 "Drivers/STM32F3xx_HAL_Driver/Inc/stm32f3xx_hal_adc_ex.h"
 702              		.file 17 "Drivers/STM32F3xx_HAL_Driver/Inc/stm32f3xx_hal_adc.h"
 703              		.file 18 "Drivers/STM32F3xx_HAL_Driver/Inc/stm32f3xx_hal_can.h"
 704              		.file 19 "Drivers/STM32F3xx_HAL_Driver/Inc/stm32f3xx_hal_rtc.h"
 705              		.file 20 "Drivers/STM32F3xx_HAL_Driver/Inc/stm32f3xx_hal_spi.h"
ARM GAS  /var/folders/p7/nwmyw04531jbkqkgv59cx10h0000gn/T//ccwgMclc.s 			page 17


 706              		.file 21 "Drivers/STM32F3xx_HAL_Driver/Inc/stm32f3xx_hal_uart.h"
 707              		.file 22 "Inc/adc.h"
 708              		.file 23 "Inc/can.h"
 709              		.file 24 "Inc/rtc.h"
 710              		.file 25 "Inc/spi.h"
 711              		.file 26 "Inc/usart.h"
 712              		.file 27 "Inc/fsm.h"
 713              		.file 28 "Drivers/STM32F3xx_HAL_Driver/Inc/stm32f3xx_hal_cortex.h"
 714              		.file 29 "Drivers/STM32F3xx_HAL_Driver/Inc/stm32f3xx_hal.h"
 715              		.file 30 "Drivers/STM32F3xx_HAL_Driver/Inc/stm32f3xx_hal_gpio.h"
 716              		.file 31 "Inc/gpio.h"
 717              		.file 32 "Inc/dma.h"
ARM GAS  /var/folders/p7/nwmyw04531jbkqkgv59cx10h0000gn/T//ccwgMclc.s 			page 18


DEFINED SYMBOLS
                            *ABS*:0000000000000000 main.c
/var/folders/p7/nwmyw04531jbkqkgv59cx10h0000gn/T//ccwgMclc.s:18     .text.idle:0000000000000000 $t
/var/folders/p7/nwmyw04531jbkqkgv59cx10h0000gn/T//ccwgMclc.s:25     .text.idle:0000000000000000 idle
/var/folders/p7/nwmyw04531jbkqkgv59cx10h0000gn/T//ccwgMclc.s:53     .text.idle:0000000000000018 $d
/var/folders/p7/nwmyw04531jbkqkgv59cx10h0000gn/T//ccwgMclc.s:66     .text.start:0000000000000000 start
/var/folders/p7/nwmyw04531jbkqkgv59cx10h0000gn/T//ccwgMclc.s:59     .text.start:0000000000000000 $t
/var/folders/p7/nwmyw04531jbkqkgv59cx10h0000gn/T//ccwgMclc.s:93     .text.start:0000000000000018 $d
/var/folders/p7/nwmyw04531jbkqkgv59cx10h0000gn/T//ccwgMclc.s:106    .text.measure:0000000000000000 measure
/var/folders/p7/nwmyw04531jbkqkgv59cx10h0000gn/T//ccwgMclc.s:99     .text.measure:0000000000000000 $t
/var/folders/p7/nwmyw04531jbkqkgv59cx10h0000gn/T//ccwgMclc.s:140    .text.measure:0000000000000028 $d
/var/folders/p7/nwmyw04531jbkqkgv59cx10h0000gn/T//ccwgMclc.s:153    .text.estimate_soc:0000000000000000 estimate_soc
/var/folders/p7/nwmyw04531jbkqkgv59cx10h0000gn/T//ccwgMclc.s:146    .text.estimate_soc:0000000000000000 $t
/var/folders/p7/nwmyw04531jbkqkgv59cx10h0000gn/T//ccwgMclc.s:187    .text.estimate_soc:0000000000000024 $d
/var/folders/p7/nwmyw04531jbkqkgv59cx10h0000gn/T//ccwgMclc.s:200    .text.compute_resistance:0000000000000000 compute_resistance
/var/folders/p7/nwmyw04531jbkqkgv59cx10h0000gn/T//ccwgMclc.s:193    .text.compute_resistance:0000000000000000 $t
/var/folders/p7/nwmyw04531jbkqkgv59cx10h0000gn/T//ccwgMclc.s:246    .text.compute_resistance:000000000000003c $d
/var/folders/p7/nwmyw04531jbkqkgv59cx10h0000gn/T//ccwgMclc.s:259    .text.compute_capacity:0000000000000000 compute_capacity
/var/folders/p7/nwmyw04531jbkqkgv59cx10h0000gn/T//ccwgMclc.s:252    .text.compute_capacity:0000000000000000 $t
/var/folders/p7/nwmyw04531jbkqkgv59cx10h0000gn/T//ccwgMclc.s:305    .text.compute_capacity:0000000000000038 $d
/var/folders/p7/nwmyw04531jbkqkgv59cx10h0000gn/T//ccwgMclc.s:318    .text.balancing:0000000000000000 balancing
/var/folders/p7/nwmyw04531jbkqkgv59cx10h0000gn/T//ccwgMclc.s:311    .text.balancing:0000000000000000 $t
/var/folders/p7/nwmyw04531jbkqkgv59cx10h0000gn/T//ccwgMclc.s:364    .text.balancing:000000000000003c $d
/var/folders/p7/nwmyw04531jbkqkgv59cx10h0000gn/T//ccwgMclc.s:377    .text.send_data:0000000000000000 send_data
/var/folders/p7/nwmyw04531jbkqkgv59cx10h0000gn/T//ccwgMclc.s:370    .text.send_data:0000000000000000 $t
/var/folders/p7/nwmyw04531jbkqkgv59cx10h0000gn/T//ccwgMclc.s:423    .text.send_data:0000000000000038 $d
/var/folders/p7/nwmyw04531jbkqkgv59cx10h0000gn/T//ccwgMclc.s:436    .text.shutdown:0000000000000000 shutdown
/var/folders/p7/nwmyw04531jbkqkgv59cx10h0000gn/T//ccwgMclc.s:429    .text.shutdown:0000000000000000 $t
/var/folders/p7/nwmyw04531jbkqkgv59cx10h0000gn/T//ccwgMclc.s:457    .text.shutdown:0000000000000010 $d
/var/folders/p7/nwmyw04531jbkqkgv59cx10h0000gn/T//ccwgMclc.s:462    .text.SystemClock_Config:0000000000000000 $t
/var/folders/p7/nwmyw04531jbkqkgv59cx10h0000gn/T//ccwgMclc.s:469    .text.SystemClock_Config:0000000000000000 SystemClock_Config
/var/folders/p7/nwmyw04531jbkqkgv59cx10h0000gn/T//ccwgMclc.s:596    .text.SystemClock_Config:00000000000000a8 $d
/var/folders/p7/nwmyw04531jbkqkgv59cx10h0000gn/T//ccwgMclc.s:603    .text.main:0000000000000000 $t
/var/folders/p7/nwmyw04531jbkqkgv59cx10h0000gn/T//ccwgMclc.s:610    .text.main:0000000000000000 main
/var/folders/p7/nwmyw04531jbkqkgv59cx10h0000gn/T//ccwgMclc.s:670    .text.main:000000000000003c $d
                            *COM*:0000000000000004 globalTick
                            *COM*:0000000000000078 UART_transmit_buffer
                            *COM*:000000000000000c SPI_transmit_buffer
                            *COM*:000000000000000c SPI_recieve_buffer
                            *COM*:0000000000000004 RTCdate
                            *COM*:0000000000000014 RTCtime
/var/folders/p7/nwmyw04531jbkqkgv59cx10h0000gn/T//ccwgMclc.s:682    .rodata.SystemClock_Config.str1.4:0000000000000000 $d
                     .debug_frame:0000000000000010 $d

UNDEFINED SYMBOLS
HAL_GPIO_WritePin
HAL_Delay
HAL_RCC_OscConfig
HAL_RCC_ClockConfig
HAL_RCCEx_PeriphCLKConfig
HAL_RCC_GetHCLKFreq
HAL_SYSTICK_Config
HAL_SYSTICK_CLKSourceConfig
HAL_NVIC_SetPriority
_Error_Handler
HAL_Init
MX_GPIO_Init
ARM GAS  /var/folders/p7/nwmyw04531jbkqkgv59cx10h0000gn/T//ccwgMclc.s 			page 19


MX_DMA_Init
MX_ADC1_Init
MX_ADC2_Init
MX_CAN_Init
MX_RTC_Init
MX_SPI1_Init
MX_USART3_UART_Init
set_UV_OV_threshold
