ARM GAS  /var/folders/p7/nwmyw04531jbkqkgv59cx10h0000gn/T//ccRzNwwu.s 			page 1


   1              		.cpu cortex-m4
   2              		.eabi_attribute 27, 1
   3              		.eabi_attribute 28, 1
   4              		.eabi_attribute 20, 1
   5              		.eabi_attribute 21, 1
   6              		.eabi_attribute 23, 3
   7              		.eabi_attribute 24, 1
   8              		.eabi_attribute 25, 1
   9              		.eabi_attribute 26, 1
  10              		.eabi_attribute 30, 1
  11              		.eabi_attribute 34, 1
  12              		.eabi_attribute 18, 4
  13              		.file	"stm32f3xx_hal_dma.c"
  14              		.text
  15              	.Ltext0:
  16              		.cfi_sections	.debug_frame
  17              		.section	.text.DMA_SetConfig,"ax",%progbits
  18              		.align	1
  19              		.syntax unified
  20              		.thumb
  21              		.thumb_func
  22              		.fpu fpv4-sp-d16
  24              	DMA_SetConfig:
  25              	.LFB136:
  26              		.file 1 "Drivers/STM32F3xx_HAL_Driver/Src/stm32f3xx_hal_dma.c"
   1:Drivers/STM32F3xx_HAL_Driver/Src/stm32f3xx_hal_dma.c **** /**
   2:Drivers/STM32F3xx_HAL_Driver/Src/stm32f3xx_hal_dma.c ****   ******************************************************************************
   3:Drivers/STM32F3xx_HAL_Driver/Src/stm32f3xx_hal_dma.c ****   * @file    stm32f3xx_hal_dma.c
   4:Drivers/STM32F3xx_HAL_Driver/Src/stm32f3xx_hal_dma.c ****   * @author  MCD Application Team
   5:Drivers/STM32F3xx_HAL_Driver/Src/stm32f3xx_hal_dma.c ****   * @version V1.4.0
   6:Drivers/STM32F3xx_HAL_Driver/Src/stm32f3xx_hal_dma.c ****   * @date    16-December-2016
   7:Drivers/STM32F3xx_HAL_Driver/Src/stm32f3xx_hal_dma.c ****   * @brief   DMA HAL module driver.
   8:Drivers/STM32F3xx_HAL_Driver/Src/stm32f3xx_hal_dma.c ****   *    
   9:Drivers/STM32F3xx_HAL_Driver/Src/stm32f3xx_hal_dma.c ****   *         This file provides firmware functions to manage the following 
  10:Drivers/STM32F3xx_HAL_Driver/Src/stm32f3xx_hal_dma.c ****   *         functionalities of the Direct Memory Access (DMA) peripheral:
  11:Drivers/STM32F3xx_HAL_Driver/Src/stm32f3xx_hal_dma.c ****   *           + Initialization and de-initialization functions
  12:Drivers/STM32F3xx_HAL_Driver/Src/stm32f3xx_hal_dma.c ****   *           + IO operation functions
  13:Drivers/STM32F3xx_HAL_Driver/Src/stm32f3xx_hal_dma.c ****   *           + Peripheral State and errors functions
  14:Drivers/STM32F3xx_HAL_Driver/Src/stm32f3xx_hal_dma.c ****   @verbatim     
  15:Drivers/STM32F3xx_HAL_Driver/Src/stm32f3xx_hal_dma.c ****   ==============================================================================      
  16:Drivers/STM32F3xx_HAL_Driver/Src/stm32f3xx_hal_dma.c ****                         ##### How to use this driver #####
  17:Drivers/STM32F3xx_HAL_Driver/Src/stm32f3xx_hal_dma.c ****   ============================================================================== 
  18:Drivers/STM32F3xx_HAL_Driver/Src/stm32f3xx_hal_dma.c ****   [..]
  19:Drivers/STM32F3xx_HAL_Driver/Src/stm32f3xx_hal_dma.c ****    (#) Enable and configure the peripheral to be connected to the DMA Channel
  20:Drivers/STM32F3xx_HAL_Driver/Src/stm32f3xx_hal_dma.c ****        (except for internal SRAM / FLASH memories: no initialization is 
  21:Drivers/STM32F3xx_HAL_Driver/Src/stm32f3xx_hal_dma.c ****        necessary). Please refer to Reference manual for connection between peripherals
  22:Drivers/STM32F3xx_HAL_Driver/Src/stm32f3xx_hal_dma.c ****        and DMA requests .
  23:Drivers/STM32F3xx_HAL_Driver/Src/stm32f3xx_hal_dma.c **** 
  24:Drivers/STM32F3xx_HAL_Driver/Src/stm32f3xx_hal_dma.c ****    (#) For a given Channel, program the required configuration through the following parameters:   
  25:Drivers/STM32F3xx_HAL_Driver/Src/stm32f3xx_hal_dma.c ****        Transfer Direction, Source and Destination data formats, 
  26:Drivers/STM32F3xx_HAL_Driver/Src/stm32f3xx_hal_dma.c ****        Circular or Normal mode, Channel Priority level, Source and Destination Increment mode, 
  27:Drivers/STM32F3xx_HAL_Driver/Src/stm32f3xx_hal_dma.c ****        using HAL_DMA_Init() function.
  28:Drivers/STM32F3xx_HAL_Driver/Src/stm32f3xx_hal_dma.c **** 
  29:Drivers/STM32F3xx_HAL_Driver/Src/stm32f3xx_hal_dma.c ****    (#) Use HAL_DMA_GetState() function to return the DMA state and HAL_DMA_GetError() in case of er
  30:Drivers/STM32F3xx_HAL_Driver/Src/stm32f3xx_hal_dma.c ****        detection.
  31:Drivers/STM32F3xx_HAL_Driver/Src/stm32f3xx_hal_dma.c ****                     
  32:Drivers/STM32F3xx_HAL_Driver/Src/stm32f3xx_hal_dma.c ****    (#) Use HAL_DMA_Abort() function to abort the current transfer
ARM GAS  /var/folders/p7/nwmyw04531jbkqkgv59cx10h0000gn/T//ccRzNwwu.s 			page 2


  33:Drivers/STM32F3xx_HAL_Driver/Src/stm32f3xx_hal_dma.c ****                    
  34:Drivers/STM32F3xx_HAL_Driver/Src/stm32f3xx_hal_dma.c ****      -@-   In Memory-to-Memory transfer mode, Circular mode is not allowed.
  35:Drivers/STM32F3xx_HAL_Driver/Src/stm32f3xx_hal_dma.c ****      *** Polling mode IO operation ***
  36:Drivers/STM32F3xx_HAL_Driver/Src/stm32f3xx_hal_dma.c ****      =================================   
  37:Drivers/STM32F3xx_HAL_Driver/Src/stm32f3xx_hal_dma.c ****     [..] 
  38:Drivers/STM32F3xx_HAL_Driver/Src/stm32f3xx_hal_dma.c ****       (+) Use HAL_DMA_Start() to start DMA transfer after the configuration of Source 
  39:Drivers/STM32F3xx_HAL_Driver/Src/stm32f3xx_hal_dma.c ****           address and destination address and the Length of data to be transferred
  40:Drivers/STM32F3xx_HAL_Driver/Src/stm32f3xx_hal_dma.c ****       (+) Use HAL_DMA_PollForTransfer() to poll for the end of current transfer, in this  
  41:Drivers/STM32F3xx_HAL_Driver/Src/stm32f3xx_hal_dma.c ****           case a fixed Timeout can be configured by User depending from his application.
  42:Drivers/STM32F3xx_HAL_Driver/Src/stm32f3xx_hal_dma.c **** 
  43:Drivers/STM32F3xx_HAL_Driver/Src/stm32f3xx_hal_dma.c ****      *** Interrupt mode IO operation ***    
  44:Drivers/STM32F3xx_HAL_Driver/Src/stm32f3xx_hal_dma.c ****      =================================== 
  45:Drivers/STM32F3xx_HAL_Driver/Src/stm32f3xx_hal_dma.c ****     [..]
  46:Drivers/STM32F3xx_HAL_Driver/Src/stm32f3xx_hal_dma.c ****       (+) Configure the DMA interrupt priority using HAL_NVIC_SetPriority()
  47:Drivers/STM32F3xx_HAL_Driver/Src/stm32f3xx_hal_dma.c ****       (+) Enable the DMA IRQ handler using HAL_NVIC_EnableIRQ() 
  48:Drivers/STM32F3xx_HAL_Driver/Src/stm32f3xx_hal_dma.c ****       (+) Use HAL_DMA_Start_IT() to start DMA transfer after the configuration of  
  49:Drivers/STM32F3xx_HAL_Driver/Src/stm32f3xx_hal_dma.c ****           Source address and destination address and the Length of data to be transferred. 
  50:Drivers/STM32F3xx_HAL_Driver/Src/stm32f3xx_hal_dma.c ****           In this case the DMA interrupt is configured 
  51:Drivers/STM32F3xx_HAL_Driver/Src/stm32f3xx_hal_dma.c ****       (+) Use HAL_DMA_Channel_IRQHandler() called under DMA_IRQHandler() Interrupt subroutine
  52:Drivers/STM32F3xx_HAL_Driver/Src/stm32f3xx_hal_dma.c ****       (+) At the end of data transfer HAL_DMA_IRQHandler() function is executed and user can 
  53:Drivers/STM32F3xx_HAL_Driver/Src/stm32f3xx_hal_dma.c ****           add his own function by customization of function pointer XferCpltCallback and 
  54:Drivers/STM32F3xx_HAL_Driver/Src/stm32f3xx_hal_dma.c ****           XferErrorCallback (i.e a member of DMA handle structure). 
  55:Drivers/STM32F3xx_HAL_Driver/Src/stm32f3xx_hal_dma.c **** 
  56:Drivers/STM32F3xx_HAL_Driver/Src/stm32f3xx_hal_dma.c ****      *** DMA HAL driver macros list ***
  57:Drivers/STM32F3xx_HAL_Driver/Src/stm32f3xx_hal_dma.c ****      ============================================= 
  58:Drivers/STM32F3xx_HAL_Driver/Src/stm32f3xx_hal_dma.c ****      [..]
  59:Drivers/STM32F3xx_HAL_Driver/Src/stm32f3xx_hal_dma.c ****        Below the list of most used macros in DMA HAL driver.
  60:Drivers/STM32F3xx_HAL_Driver/Src/stm32f3xx_hal_dma.c **** 
  61:Drivers/STM32F3xx_HAL_Driver/Src/stm32f3xx_hal_dma.c ****      [..] 
  62:Drivers/STM32F3xx_HAL_Driver/Src/stm32f3xx_hal_dma.c ****       (@) You can refer to the DMA HAL driver header file for more useful macros  
  63:Drivers/STM32F3xx_HAL_Driver/Src/stm32f3xx_hal_dma.c **** 
  64:Drivers/STM32F3xx_HAL_Driver/Src/stm32f3xx_hal_dma.c ****   @endverbatim
  65:Drivers/STM32F3xx_HAL_Driver/Src/stm32f3xx_hal_dma.c ****   ******************************************************************************
  66:Drivers/STM32F3xx_HAL_Driver/Src/stm32f3xx_hal_dma.c ****   * @attention
  67:Drivers/STM32F3xx_HAL_Driver/Src/stm32f3xx_hal_dma.c ****   *
  68:Drivers/STM32F3xx_HAL_Driver/Src/stm32f3xx_hal_dma.c ****   * <h2><center>&copy; COPYRIGHT(c) 2016 STMicroelectronics</center></h2>
  69:Drivers/STM32F3xx_HAL_Driver/Src/stm32f3xx_hal_dma.c ****   *
  70:Drivers/STM32F3xx_HAL_Driver/Src/stm32f3xx_hal_dma.c ****   * Redistribution and use in source and binary forms, with or without modification,
  71:Drivers/STM32F3xx_HAL_Driver/Src/stm32f3xx_hal_dma.c ****   * are permitted provided that the following conditions are met:
  72:Drivers/STM32F3xx_HAL_Driver/Src/stm32f3xx_hal_dma.c ****   *   1. Redistributions of source code must retain the above copyright notice,
  73:Drivers/STM32F3xx_HAL_Driver/Src/stm32f3xx_hal_dma.c ****   *      this list of conditions and the following disclaimer.
  74:Drivers/STM32F3xx_HAL_Driver/Src/stm32f3xx_hal_dma.c ****   *   2. Redistributions in binary form must reproduce the above copyright notice,
  75:Drivers/STM32F3xx_HAL_Driver/Src/stm32f3xx_hal_dma.c ****   *      this list of conditions and the following disclaimer in the documentation
  76:Drivers/STM32F3xx_HAL_Driver/Src/stm32f3xx_hal_dma.c ****   *      and/or other materials provided with the distribution.
  77:Drivers/STM32F3xx_HAL_Driver/Src/stm32f3xx_hal_dma.c ****   *   3. Neither the name of STMicroelectronics nor the names of its contributors
  78:Drivers/STM32F3xx_HAL_Driver/Src/stm32f3xx_hal_dma.c ****   *      may be used to endorse or promote products derived from this software
  79:Drivers/STM32F3xx_HAL_Driver/Src/stm32f3xx_hal_dma.c ****   *      without specific prior written permission.
  80:Drivers/STM32F3xx_HAL_Driver/Src/stm32f3xx_hal_dma.c ****   *
  81:Drivers/STM32F3xx_HAL_Driver/Src/stm32f3xx_hal_dma.c ****   * THIS SOFTWARE IS PROVIDED BY THE COPYRIGHT HOLDERS AND CONTRIBUTORS "AS IS"
  82:Drivers/STM32F3xx_HAL_Driver/Src/stm32f3xx_hal_dma.c ****   * AND ANY EXPRESS OR IMPLIED WARRANTIES, INCLUDING, BUT NOT LIMITED TO, THE
  83:Drivers/STM32F3xx_HAL_Driver/Src/stm32f3xx_hal_dma.c ****   * IMPLIED WARRANTIES OF MERCHANTABILITY AND FITNESS FOR A PARTICULAR PURPOSE ARE
  84:Drivers/STM32F3xx_HAL_Driver/Src/stm32f3xx_hal_dma.c ****   * DISCLAIMED. IN NO EVENT SHALL THE COPYRIGHT HOLDER OR CONTRIBUTORS BE LIABLE
  85:Drivers/STM32F3xx_HAL_Driver/Src/stm32f3xx_hal_dma.c ****   * FOR ANY DIRECT, INDIRECT, INCIDENTAL, SPECIAL, EXEMPLARY, OR CONSEQUENTIAL
  86:Drivers/STM32F3xx_HAL_Driver/Src/stm32f3xx_hal_dma.c ****   * DAMAGES (INCLUDING, BUT NOT LIMITED TO, PROCUREMENT OF SUBSTITUTE GOODS OR
  87:Drivers/STM32F3xx_HAL_Driver/Src/stm32f3xx_hal_dma.c ****   * SERVICES; LOSS OF USE, DATA, OR PROFITS; OR BUSINESS INTERRUPTION) HOWEVER
  88:Drivers/STM32F3xx_HAL_Driver/Src/stm32f3xx_hal_dma.c ****   * CAUSED AND ON ANY THEORY OF LIABILITY, WHETHER IN CONTRACT, STRICT LIABILITY,
  89:Drivers/STM32F3xx_HAL_Driver/Src/stm32f3xx_hal_dma.c ****   * OR TORT (INCLUDING NEGLIGENCE OR OTHERWISE) ARISING IN ANY WAY OUT OF THE USE
ARM GAS  /var/folders/p7/nwmyw04531jbkqkgv59cx10h0000gn/T//ccRzNwwu.s 			page 3


  90:Drivers/STM32F3xx_HAL_Driver/Src/stm32f3xx_hal_dma.c ****   * OF THIS SOFTWARE, EVEN IF ADVISED OF THE POSSIBILITY OF SUCH DAMAGE.
  91:Drivers/STM32F3xx_HAL_Driver/Src/stm32f3xx_hal_dma.c ****   *
  92:Drivers/STM32F3xx_HAL_Driver/Src/stm32f3xx_hal_dma.c ****   ******************************************************************************
  93:Drivers/STM32F3xx_HAL_Driver/Src/stm32f3xx_hal_dma.c ****   */ 
  94:Drivers/STM32F3xx_HAL_Driver/Src/stm32f3xx_hal_dma.c **** 
  95:Drivers/STM32F3xx_HAL_Driver/Src/stm32f3xx_hal_dma.c **** /* Includes ------------------------------------------------------------------*/
  96:Drivers/STM32F3xx_HAL_Driver/Src/stm32f3xx_hal_dma.c **** #include "stm32f3xx_hal.h"
  97:Drivers/STM32F3xx_HAL_Driver/Src/stm32f3xx_hal_dma.c **** 
  98:Drivers/STM32F3xx_HAL_Driver/Src/stm32f3xx_hal_dma.c **** /** @addtogroup STM32F3xx_HAL_Driver
  99:Drivers/STM32F3xx_HAL_Driver/Src/stm32f3xx_hal_dma.c ****   * @{
 100:Drivers/STM32F3xx_HAL_Driver/Src/stm32f3xx_hal_dma.c ****   */
 101:Drivers/STM32F3xx_HAL_Driver/Src/stm32f3xx_hal_dma.c **** 
 102:Drivers/STM32F3xx_HAL_Driver/Src/stm32f3xx_hal_dma.c **** /** @defgroup DMA DMA
 103:Drivers/STM32F3xx_HAL_Driver/Src/stm32f3xx_hal_dma.c ****   * @brief DMA HAL module driver
 104:Drivers/STM32F3xx_HAL_Driver/Src/stm32f3xx_hal_dma.c ****   * @{
 105:Drivers/STM32F3xx_HAL_Driver/Src/stm32f3xx_hal_dma.c ****   */
 106:Drivers/STM32F3xx_HAL_Driver/Src/stm32f3xx_hal_dma.c **** 
 107:Drivers/STM32F3xx_HAL_Driver/Src/stm32f3xx_hal_dma.c **** #ifdef HAL_DMA_MODULE_ENABLED
 108:Drivers/STM32F3xx_HAL_Driver/Src/stm32f3xx_hal_dma.c **** 
 109:Drivers/STM32F3xx_HAL_Driver/Src/stm32f3xx_hal_dma.c **** /* Private typedef -----------------------------------------------------------*/
 110:Drivers/STM32F3xx_HAL_Driver/Src/stm32f3xx_hal_dma.c **** /* Private define ------------------------------------------------------------*/
 111:Drivers/STM32F3xx_HAL_Driver/Src/stm32f3xx_hal_dma.c **** /* Private macro -------------------------------------------------------------*/
 112:Drivers/STM32F3xx_HAL_Driver/Src/stm32f3xx_hal_dma.c **** /* Private variables ---------------------------------------------------------*/
 113:Drivers/STM32F3xx_HAL_Driver/Src/stm32f3xx_hal_dma.c **** /* Private function prototypes -----------------------------------------------*/
 114:Drivers/STM32F3xx_HAL_Driver/Src/stm32f3xx_hal_dma.c **** /** @defgroup DMA_Private_Functions DMA Private Functions
 115:Drivers/STM32F3xx_HAL_Driver/Src/stm32f3xx_hal_dma.c ****   * @{
 116:Drivers/STM32F3xx_HAL_Driver/Src/stm32f3xx_hal_dma.c ****   */
 117:Drivers/STM32F3xx_HAL_Driver/Src/stm32f3xx_hal_dma.c **** static void DMA_SetConfig(DMA_HandleTypeDef *hdma, uint32_t SrcAddress, uint32_t DstAddress, uint32
 118:Drivers/STM32F3xx_HAL_Driver/Src/stm32f3xx_hal_dma.c **** static void DMA_CalcBaseAndBitshift(DMA_HandleTypeDef *hdma);
 119:Drivers/STM32F3xx_HAL_Driver/Src/stm32f3xx_hal_dma.c **** /**
 120:Drivers/STM32F3xx_HAL_Driver/Src/stm32f3xx_hal_dma.c ****   * @}
 121:Drivers/STM32F3xx_HAL_Driver/Src/stm32f3xx_hal_dma.c ****   */
 122:Drivers/STM32F3xx_HAL_Driver/Src/stm32f3xx_hal_dma.c **** 
 123:Drivers/STM32F3xx_HAL_Driver/Src/stm32f3xx_hal_dma.c **** /* Exported functions ---------------------------------------------------------*/
 124:Drivers/STM32F3xx_HAL_Driver/Src/stm32f3xx_hal_dma.c **** 
 125:Drivers/STM32F3xx_HAL_Driver/Src/stm32f3xx_hal_dma.c **** /** @defgroup DMA_Exported_Functions DMA Exported Functions
 126:Drivers/STM32F3xx_HAL_Driver/Src/stm32f3xx_hal_dma.c ****   * @{
 127:Drivers/STM32F3xx_HAL_Driver/Src/stm32f3xx_hal_dma.c ****   */
 128:Drivers/STM32F3xx_HAL_Driver/Src/stm32f3xx_hal_dma.c **** 
 129:Drivers/STM32F3xx_HAL_Driver/Src/stm32f3xx_hal_dma.c **** /** @defgroup DMA_Exported_Functions_Group1 Initialization and de-initialization functions
 130:Drivers/STM32F3xx_HAL_Driver/Src/stm32f3xx_hal_dma.c ****  *  @brief   Initialization and de-initialization functions 
 131:Drivers/STM32F3xx_HAL_Driver/Src/stm32f3xx_hal_dma.c ****  *
 132:Drivers/STM32F3xx_HAL_Driver/Src/stm32f3xx_hal_dma.c **** @verbatim   
 133:Drivers/STM32F3xx_HAL_Driver/Src/stm32f3xx_hal_dma.c ****  ===============================================================================
 134:Drivers/STM32F3xx_HAL_Driver/Src/stm32f3xx_hal_dma.c ****              ##### Initialization and de-initialization functions  #####
 135:Drivers/STM32F3xx_HAL_Driver/Src/stm32f3xx_hal_dma.c ****  ===============================================================================  
 136:Drivers/STM32F3xx_HAL_Driver/Src/stm32f3xx_hal_dma.c ****     [..]
 137:Drivers/STM32F3xx_HAL_Driver/Src/stm32f3xx_hal_dma.c ****     This section provides functions allowing to initialize the DMA Channel source
 138:Drivers/STM32F3xx_HAL_Driver/Src/stm32f3xx_hal_dma.c ****     and destination addresses, incrementation and data sizes, transfer direction, 
 139:Drivers/STM32F3xx_HAL_Driver/Src/stm32f3xx_hal_dma.c ****     circular/normal mode selection, memory-to-memory mode selection and Channel priority value.
 140:Drivers/STM32F3xx_HAL_Driver/Src/stm32f3xx_hal_dma.c ****     [..]
 141:Drivers/STM32F3xx_HAL_Driver/Src/stm32f3xx_hal_dma.c ****     The HAL_DMA_Init() function follows the DMA configuration procedures as described in
 142:Drivers/STM32F3xx_HAL_Driver/Src/stm32f3xx_hal_dma.c ****     reference manual.  
 143:Drivers/STM32F3xx_HAL_Driver/Src/stm32f3xx_hal_dma.c **** 
 144:Drivers/STM32F3xx_HAL_Driver/Src/stm32f3xx_hal_dma.c **** @endverbatim
 145:Drivers/STM32F3xx_HAL_Driver/Src/stm32f3xx_hal_dma.c ****   * @{
 146:Drivers/STM32F3xx_HAL_Driver/Src/stm32f3xx_hal_dma.c ****   */
ARM GAS  /var/folders/p7/nwmyw04531jbkqkgv59cx10h0000gn/T//ccRzNwwu.s 			page 4


 147:Drivers/STM32F3xx_HAL_Driver/Src/stm32f3xx_hal_dma.c ****   
 148:Drivers/STM32F3xx_HAL_Driver/Src/stm32f3xx_hal_dma.c **** /**
 149:Drivers/STM32F3xx_HAL_Driver/Src/stm32f3xx_hal_dma.c ****   * @brief  Initialize the DMA according to the specified
 150:Drivers/STM32F3xx_HAL_Driver/Src/stm32f3xx_hal_dma.c ****   *         parameters in the DMA_InitTypeDef and initialize the associated handle.
 151:Drivers/STM32F3xx_HAL_Driver/Src/stm32f3xx_hal_dma.c ****   * @param  hdma: Pointer to a DMA_HandleTypeDef structure that contains
 152:Drivers/STM32F3xx_HAL_Driver/Src/stm32f3xx_hal_dma.c ****   *               the configuration information for the specified DMA Channel.  
 153:Drivers/STM32F3xx_HAL_Driver/Src/stm32f3xx_hal_dma.c ****   * @retval HAL status
 154:Drivers/STM32F3xx_HAL_Driver/Src/stm32f3xx_hal_dma.c ****   */
 155:Drivers/STM32F3xx_HAL_Driver/Src/stm32f3xx_hal_dma.c **** HAL_StatusTypeDef HAL_DMA_Init(DMA_HandleTypeDef *hdma)
 156:Drivers/STM32F3xx_HAL_Driver/Src/stm32f3xx_hal_dma.c **** { 
 157:Drivers/STM32F3xx_HAL_Driver/Src/stm32f3xx_hal_dma.c ****   uint32_t tmp = 0U;
 158:Drivers/STM32F3xx_HAL_Driver/Src/stm32f3xx_hal_dma.c ****   
 159:Drivers/STM32F3xx_HAL_Driver/Src/stm32f3xx_hal_dma.c ****   /* Check the DMA handle allocation */
 160:Drivers/STM32F3xx_HAL_Driver/Src/stm32f3xx_hal_dma.c ****   if(NULL == hdma)
 161:Drivers/STM32F3xx_HAL_Driver/Src/stm32f3xx_hal_dma.c ****   {
 162:Drivers/STM32F3xx_HAL_Driver/Src/stm32f3xx_hal_dma.c ****     return HAL_ERROR;
 163:Drivers/STM32F3xx_HAL_Driver/Src/stm32f3xx_hal_dma.c ****   }
 164:Drivers/STM32F3xx_HAL_Driver/Src/stm32f3xx_hal_dma.c ****   
 165:Drivers/STM32F3xx_HAL_Driver/Src/stm32f3xx_hal_dma.c ****   /* Check the parameters */
 166:Drivers/STM32F3xx_HAL_Driver/Src/stm32f3xx_hal_dma.c ****   assert_param(IS_DMA_ALL_INSTANCE(hdma->Instance));
 167:Drivers/STM32F3xx_HAL_Driver/Src/stm32f3xx_hal_dma.c ****   assert_param(IS_DMA_DIRECTION(hdma->Init.Direction));
 168:Drivers/STM32F3xx_HAL_Driver/Src/stm32f3xx_hal_dma.c ****   assert_param(IS_DMA_PERIPHERAL_INC_STATE(hdma->Init.PeriphInc));
 169:Drivers/STM32F3xx_HAL_Driver/Src/stm32f3xx_hal_dma.c ****   assert_param(IS_DMA_MEMORY_INC_STATE(hdma->Init.MemInc));
 170:Drivers/STM32F3xx_HAL_Driver/Src/stm32f3xx_hal_dma.c ****   assert_param(IS_DMA_PERIPHERAL_DATA_SIZE(hdma->Init.PeriphDataAlignment));
 171:Drivers/STM32F3xx_HAL_Driver/Src/stm32f3xx_hal_dma.c ****   assert_param(IS_DMA_MEMORY_DATA_SIZE(hdma->Init.MemDataAlignment));
 172:Drivers/STM32F3xx_HAL_Driver/Src/stm32f3xx_hal_dma.c ****   assert_param(IS_DMA_MODE(hdma->Init.Mode));
 173:Drivers/STM32F3xx_HAL_Driver/Src/stm32f3xx_hal_dma.c ****   assert_param(IS_DMA_PRIORITY(hdma->Init.Priority));
 174:Drivers/STM32F3xx_HAL_Driver/Src/stm32f3xx_hal_dma.c ****   
 175:Drivers/STM32F3xx_HAL_Driver/Src/stm32f3xx_hal_dma.c ****   /* Change DMA peripheral state */
 176:Drivers/STM32F3xx_HAL_Driver/Src/stm32f3xx_hal_dma.c ****   hdma->State = HAL_DMA_STATE_BUSY;
 177:Drivers/STM32F3xx_HAL_Driver/Src/stm32f3xx_hal_dma.c **** 
 178:Drivers/STM32F3xx_HAL_Driver/Src/stm32f3xx_hal_dma.c ****   /* Get the CR register value */
 179:Drivers/STM32F3xx_HAL_Driver/Src/stm32f3xx_hal_dma.c ****   tmp = hdma->Instance->CCR;
 180:Drivers/STM32F3xx_HAL_Driver/Src/stm32f3xx_hal_dma.c ****   
 181:Drivers/STM32F3xx_HAL_Driver/Src/stm32f3xx_hal_dma.c ****   /* Clear PL, MSIZE, PSIZE, MINC, PINC, CIRC, DIR bits */
 182:Drivers/STM32F3xx_HAL_Driver/Src/stm32f3xx_hal_dma.c ****   tmp &= ((uint32_t)~(DMA_CCR_PL    | DMA_CCR_MSIZE  | DMA_CCR_PSIZE  | \
 183:Drivers/STM32F3xx_HAL_Driver/Src/stm32f3xx_hal_dma.c ****                       DMA_CCR_MINC  | DMA_CCR_PINC   | DMA_CCR_CIRC   | \
 184:Drivers/STM32F3xx_HAL_Driver/Src/stm32f3xx_hal_dma.c ****                       DMA_CCR_DIR));
 185:Drivers/STM32F3xx_HAL_Driver/Src/stm32f3xx_hal_dma.c ****   
 186:Drivers/STM32F3xx_HAL_Driver/Src/stm32f3xx_hal_dma.c ****   /* Prepare the DMA Channel configuration */
 187:Drivers/STM32F3xx_HAL_Driver/Src/stm32f3xx_hal_dma.c ****   tmp |=  hdma->Init.Direction        |
 188:Drivers/STM32F3xx_HAL_Driver/Src/stm32f3xx_hal_dma.c ****           hdma->Init.PeriphInc           | hdma->Init.MemInc           |
 189:Drivers/STM32F3xx_HAL_Driver/Src/stm32f3xx_hal_dma.c ****           hdma->Init.PeriphDataAlignment | hdma->Init.MemDataAlignment |
 190:Drivers/STM32F3xx_HAL_Driver/Src/stm32f3xx_hal_dma.c ****           hdma->Init.Mode                | hdma->Init.Priority;
 191:Drivers/STM32F3xx_HAL_Driver/Src/stm32f3xx_hal_dma.c **** 
 192:Drivers/STM32F3xx_HAL_Driver/Src/stm32f3xx_hal_dma.c ****   /* Write to DMA Channel CR register */
 193:Drivers/STM32F3xx_HAL_Driver/Src/stm32f3xx_hal_dma.c ****   hdma->Instance->CCR = tmp;  
 194:Drivers/STM32F3xx_HAL_Driver/Src/stm32f3xx_hal_dma.c ****   
 195:Drivers/STM32F3xx_HAL_Driver/Src/stm32f3xx_hal_dma.c ****   /* Initialize DmaBaseAddress and ChannelIndex parameters used 
 196:Drivers/STM32F3xx_HAL_Driver/Src/stm32f3xx_hal_dma.c ****      by HAL_DMA_IRQHandler() and HAL_DMA_PollForTransfer() */
 197:Drivers/STM32F3xx_HAL_Driver/Src/stm32f3xx_hal_dma.c ****   DMA_CalcBaseAndBitshift(hdma);
 198:Drivers/STM32F3xx_HAL_Driver/Src/stm32f3xx_hal_dma.c ****   
 199:Drivers/STM32F3xx_HAL_Driver/Src/stm32f3xx_hal_dma.c ****   /* Clean callbacks */
 200:Drivers/STM32F3xx_HAL_Driver/Src/stm32f3xx_hal_dma.c ****   hdma->XferCpltCallback = NULL;
 201:Drivers/STM32F3xx_HAL_Driver/Src/stm32f3xx_hal_dma.c ****   hdma->XferHalfCpltCallback = NULL;
 202:Drivers/STM32F3xx_HAL_Driver/Src/stm32f3xx_hal_dma.c ****   hdma->XferErrorCallback = NULL;
 203:Drivers/STM32F3xx_HAL_Driver/Src/stm32f3xx_hal_dma.c ****   hdma->XferAbortCallback = NULL;
ARM GAS  /var/folders/p7/nwmyw04531jbkqkgv59cx10h0000gn/T//ccRzNwwu.s 			page 5


 204:Drivers/STM32F3xx_HAL_Driver/Src/stm32f3xx_hal_dma.c ****   
 205:Drivers/STM32F3xx_HAL_Driver/Src/stm32f3xx_hal_dma.c ****   /* Initialise the error code */
 206:Drivers/STM32F3xx_HAL_Driver/Src/stm32f3xx_hal_dma.c ****   hdma->ErrorCode = HAL_DMA_ERROR_NONE;
 207:Drivers/STM32F3xx_HAL_Driver/Src/stm32f3xx_hal_dma.c **** 
 208:Drivers/STM32F3xx_HAL_Driver/Src/stm32f3xx_hal_dma.c ****   /* Initialize the DMA state*/
 209:Drivers/STM32F3xx_HAL_Driver/Src/stm32f3xx_hal_dma.c ****   hdma->State = HAL_DMA_STATE_READY;
 210:Drivers/STM32F3xx_HAL_Driver/Src/stm32f3xx_hal_dma.c ****   
 211:Drivers/STM32F3xx_HAL_Driver/Src/stm32f3xx_hal_dma.c ****   /* Allocate lock resource and initialize it */
 212:Drivers/STM32F3xx_HAL_Driver/Src/stm32f3xx_hal_dma.c ****   hdma->Lock = HAL_UNLOCKED;
 213:Drivers/STM32F3xx_HAL_Driver/Src/stm32f3xx_hal_dma.c ****   
 214:Drivers/STM32F3xx_HAL_Driver/Src/stm32f3xx_hal_dma.c ****   return HAL_OK;
 215:Drivers/STM32F3xx_HAL_Driver/Src/stm32f3xx_hal_dma.c **** }  
 216:Drivers/STM32F3xx_HAL_Driver/Src/stm32f3xx_hal_dma.c ****   
 217:Drivers/STM32F3xx_HAL_Driver/Src/stm32f3xx_hal_dma.c **** /**
 218:Drivers/STM32F3xx_HAL_Driver/Src/stm32f3xx_hal_dma.c ****   * @brief  DeInitialize the DMA peripheral 
 219:Drivers/STM32F3xx_HAL_Driver/Src/stm32f3xx_hal_dma.c ****   * @param  hdma: pointer to a DMA_HandleTypeDef structure that contains
 220:Drivers/STM32F3xx_HAL_Driver/Src/stm32f3xx_hal_dma.c ****   *               the configuration information for the specified DMA Channel.  
 221:Drivers/STM32F3xx_HAL_Driver/Src/stm32f3xx_hal_dma.c ****   * @retval HAL status
 222:Drivers/STM32F3xx_HAL_Driver/Src/stm32f3xx_hal_dma.c ****   */
 223:Drivers/STM32F3xx_HAL_Driver/Src/stm32f3xx_hal_dma.c **** HAL_StatusTypeDef HAL_DMA_DeInit(DMA_HandleTypeDef *hdma)
 224:Drivers/STM32F3xx_HAL_Driver/Src/stm32f3xx_hal_dma.c **** {
 225:Drivers/STM32F3xx_HAL_Driver/Src/stm32f3xx_hal_dma.c ****   /* Check the DMA handle allocation */
 226:Drivers/STM32F3xx_HAL_Driver/Src/stm32f3xx_hal_dma.c ****   if(NULL == hdma)
 227:Drivers/STM32F3xx_HAL_Driver/Src/stm32f3xx_hal_dma.c ****   {
 228:Drivers/STM32F3xx_HAL_Driver/Src/stm32f3xx_hal_dma.c ****     return HAL_ERROR;
 229:Drivers/STM32F3xx_HAL_Driver/Src/stm32f3xx_hal_dma.c ****   }
 230:Drivers/STM32F3xx_HAL_Driver/Src/stm32f3xx_hal_dma.c ****   
 231:Drivers/STM32F3xx_HAL_Driver/Src/stm32f3xx_hal_dma.c ****   /* Check the parameters */
 232:Drivers/STM32F3xx_HAL_Driver/Src/stm32f3xx_hal_dma.c ****   assert_param(IS_DMA_ALL_INSTANCE(hdma->Instance));
 233:Drivers/STM32F3xx_HAL_Driver/Src/stm32f3xx_hal_dma.c **** 
 234:Drivers/STM32F3xx_HAL_Driver/Src/stm32f3xx_hal_dma.c ****   /* Disable the selected DMA Channelx */
 235:Drivers/STM32F3xx_HAL_Driver/Src/stm32f3xx_hal_dma.c ****   hdma->Instance->CCR &= ~DMA_CCR_EN;
 236:Drivers/STM32F3xx_HAL_Driver/Src/stm32f3xx_hal_dma.c **** 
 237:Drivers/STM32F3xx_HAL_Driver/Src/stm32f3xx_hal_dma.c ****   /* Reset DMA Channel control register */
 238:Drivers/STM32F3xx_HAL_Driver/Src/stm32f3xx_hal_dma.c ****   hdma->Instance->CCR  = 0U;
 239:Drivers/STM32F3xx_HAL_Driver/Src/stm32f3xx_hal_dma.c **** 
 240:Drivers/STM32F3xx_HAL_Driver/Src/stm32f3xx_hal_dma.c ****   /* Reset DMA Channel Number of Data to Transfer register */
 241:Drivers/STM32F3xx_HAL_Driver/Src/stm32f3xx_hal_dma.c ****   hdma->Instance->CNDTR = 0U;
 242:Drivers/STM32F3xx_HAL_Driver/Src/stm32f3xx_hal_dma.c **** 
 243:Drivers/STM32F3xx_HAL_Driver/Src/stm32f3xx_hal_dma.c ****   /* Reset DMA Channel peripheral address register */
 244:Drivers/STM32F3xx_HAL_Driver/Src/stm32f3xx_hal_dma.c ****   hdma->Instance->CPAR  = 0U;
 245:Drivers/STM32F3xx_HAL_Driver/Src/stm32f3xx_hal_dma.c ****   
 246:Drivers/STM32F3xx_HAL_Driver/Src/stm32f3xx_hal_dma.c ****   /* Reset DMA Channel memory address register */
 247:Drivers/STM32F3xx_HAL_Driver/Src/stm32f3xx_hal_dma.c ****   hdma->Instance->CMAR = 0U;
 248:Drivers/STM32F3xx_HAL_Driver/Src/stm32f3xx_hal_dma.c **** 
 249:Drivers/STM32F3xx_HAL_Driver/Src/stm32f3xx_hal_dma.c ****   /* Get DMA Base Address */  
 250:Drivers/STM32F3xx_HAL_Driver/Src/stm32f3xx_hal_dma.c ****   DMA_CalcBaseAndBitshift(hdma);
 251:Drivers/STM32F3xx_HAL_Driver/Src/stm32f3xx_hal_dma.c **** 
 252:Drivers/STM32F3xx_HAL_Driver/Src/stm32f3xx_hal_dma.c ****   /* Clear all flags */
 253:Drivers/STM32F3xx_HAL_Driver/Src/stm32f3xx_hal_dma.c ****   hdma->DmaBaseAddress->IFCR = DMA_FLAG_GL1 << hdma->ChannelIndex;
 254:Drivers/STM32F3xx_HAL_Driver/Src/stm32f3xx_hal_dma.c **** 
 255:Drivers/STM32F3xx_HAL_Driver/Src/stm32f3xx_hal_dma.c ****   /* Initialize the error code */
 256:Drivers/STM32F3xx_HAL_Driver/Src/stm32f3xx_hal_dma.c ****   hdma->ErrorCode = HAL_DMA_ERROR_NONE;
 257:Drivers/STM32F3xx_HAL_Driver/Src/stm32f3xx_hal_dma.c **** 
 258:Drivers/STM32F3xx_HAL_Driver/Src/stm32f3xx_hal_dma.c ****   /* Initialize the DMA state */
 259:Drivers/STM32F3xx_HAL_Driver/Src/stm32f3xx_hal_dma.c ****   hdma->State = HAL_DMA_STATE_RESET;
 260:Drivers/STM32F3xx_HAL_Driver/Src/stm32f3xx_hal_dma.c **** 
ARM GAS  /var/folders/p7/nwmyw04531jbkqkgv59cx10h0000gn/T//ccRzNwwu.s 			page 6


 261:Drivers/STM32F3xx_HAL_Driver/Src/stm32f3xx_hal_dma.c ****   /* Release Lock */
 262:Drivers/STM32F3xx_HAL_Driver/Src/stm32f3xx_hal_dma.c ****   __HAL_UNLOCK(hdma);
 263:Drivers/STM32F3xx_HAL_Driver/Src/stm32f3xx_hal_dma.c **** 
 264:Drivers/STM32F3xx_HAL_Driver/Src/stm32f3xx_hal_dma.c ****   return HAL_OK;
 265:Drivers/STM32F3xx_HAL_Driver/Src/stm32f3xx_hal_dma.c **** }
 266:Drivers/STM32F3xx_HAL_Driver/Src/stm32f3xx_hal_dma.c **** 
 267:Drivers/STM32F3xx_HAL_Driver/Src/stm32f3xx_hal_dma.c **** /**
 268:Drivers/STM32F3xx_HAL_Driver/Src/stm32f3xx_hal_dma.c ****   * @}
 269:Drivers/STM32F3xx_HAL_Driver/Src/stm32f3xx_hal_dma.c ****   */
 270:Drivers/STM32F3xx_HAL_Driver/Src/stm32f3xx_hal_dma.c **** 
 271:Drivers/STM32F3xx_HAL_Driver/Src/stm32f3xx_hal_dma.c **** /** @defgroup DMA_Exported_Functions_Group2 Input and Output operation functions 
 272:Drivers/STM32F3xx_HAL_Driver/Src/stm32f3xx_hal_dma.c ****  *  @brief   I/O operation functions  
 273:Drivers/STM32F3xx_HAL_Driver/Src/stm32f3xx_hal_dma.c ****  *
 274:Drivers/STM32F3xx_HAL_Driver/Src/stm32f3xx_hal_dma.c **** @verbatim   
 275:Drivers/STM32F3xx_HAL_Driver/Src/stm32f3xx_hal_dma.c ****  ===============================================================================
 276:Drivers/STM32F3xx_HAL_Driver/Src/stm32f3xx_hal_dma.c ****                       #####  IO operation functions  #####
 277:Drivers/STM32F3xx_HAL_Driver/Src/stm32f3xx_hal_dma.c ****  ===============================================================================  
 278:Drivers/STM32F3xx_HAL_Driver/Src/stm32f3xx_hal_dma.c ****     [..]  This section provides functions allowing to:
 279:Drivers/STM32F3xx_HAL_Driver/Src/stm32f3xx_hal_dma.c ****       (+) Configure the source, destination address and data length and Start DMA transfer
 280:Drivers/STM32F3xx_HAL_Driver/Src/stm32f3xx_hal_dma.c ****       (+) Configure the source, destination address and data length and 
 281:Drivers/STM32F3xx_HAL_Driver/Src/stm32f3xx_hal_dma.c ****           Start DMA transfer with interrupt
 282:Drivers/STM32F3xx_HAL_Driver/Src/stm32f3xx_hal_dma.c ****       (+) Abort DMA transfer
 283:Drivers/STM32F3xx_HAL_Driver/Src/stm32f3xx_hal_dma.c ****       (+) Poll for transfer complete
 284:Drivers/STM32F3xx_HAL_Driver/Src/stm32f3xx_hal_dma.c ****       (+) Handle DMA interrupt request  
 285:Drivers/STM32F3xx_HAL_Driver/Src/stm32f3xx_hal_dma.c **** 
 286:Drivers/STM32F3xx_HAL_Driver/Src/stm32f3xx_hal_dma.c **** @endverbatim
 287:Drivers/STM32F3xx_HAL_Driver/Src/stm32f3xx_hal_dma.c ****   * @{
 288:Drivers/STM32F3xx_HAL_Driver/Src/stm32f3xx_hal_dma.c ****   */
 289:Drivers/STM32F3xx_HAL_Driver/Src/stm32f3xx_hal_dma.c **** 
 290:Drivers/STM32F3xx_HAL_Driver/Src/stm32f3xx_hal_dma.c **** /**
 291:Drivers/STM32F3xx_HAL_Driver/Src/stm32f3xx_hal_dma.c ****   * @brief  Start the DMA Transfer.
 292:Drivers/STM32F3xx_HAL_Driver/Src/stm32f3xx_hal_dma.c ****   * @param  hdma      : pointer to a DMA_HandleTypeDef structure that contains
 293:Drivers/STM32F3xx_HAL_Driver/Src/stm32f3xx_hal_dma.c ****   *                     the configuration information for the specified DMA Channel.  
 294:Drivers/STM32F3xx_HAL_Driver/Src/stm32f3xx_hal_dma.c ****   * @param  SrcAddress: The source memory Buffer address
 295:Drivers/STM32F3xx_HAL_Driver/Src/stm32f3xx_hal_dma.c ****   * @param  DstAddress: The destination memory Buffer address
 296:Drivers/STM32F3xx_HAL_Driver/Src/stm32f3xx_hal_dma.c ****   * @param  DataLength: The length of data to be transferred from source to destination
 297:Drivers/STM32F3xx_HAL_Driver/Src/stm32f3xx_hal_dma.c ****   * @retval HAL status
 298:Drivers/STM32F3xx_HAL_Driver/Src/stm32f3xx_hal_dma.c ****   */
 299:Drivers/STM32F3xx_HAL_Driver/Src/stm32f3xx_hal_dma.c **** HAL_StatusTypeDef HAL_DMA_Start(DMA_HandleTypeDef *hdma, uint32_t SrcAddress, uint32_t DstAddress, 
 300:Drivers/STM32F3xx_HAL_Driver/Src/stm32f3xx_hal_dma.c **** {
 301:Drivers/STM32F3xx_HAL_Driver/Src/stm32f3xx_hal_dma.c **** 	HAL_StatusTypeDef status = HAL_OK;
 302:Drivers/STM32F3xx_HAL_Driver/Src/stm32f3xx_hal_dma.c **** 
 303:Drivers/STM32F3xx_HAL_Driver/Src/stm32f3xx_hal_dma.c ****   /* Check the parameters */
 304:Drivers/STM32F3xx_HAL_Driver/Src/stm32f3xx_hal_dma.c ****   assert_param(IS_DMA_BUFFER_SIZE(DataLength));
 305:Drivers/STM32F3xx_HAL_Driver/Src/stm32f3xx_hal_dma.c ****   
 306:Drivers/STM32F3xx_HAL_Driver/Src/stm32f3xx_hal_dma.c ****   /* Process locked */
 307:Drivers/STM32F3xx_HAL_Driver/Src/stm32f3xx_hal_dma.c ****   __HAL_LOCK(hdma);
 308:Drivers/STM32F3xx_HAL_Driver/Src/stm32f3xx_hal_dma.c ****   
 309:Drivers/STM32F3xx_HAL_Driver/Src/stm32f3xx_hal_dma.c ****   if(HAL_DMA_STATE_READY == hdma->State)
 310:Drivers/STM32F3xx_HAL_Driver/Src/stm32f3xx_hal_dma.c ****   {
 311:Drivers/STM32F3xx_HAL_Driver/Src/stm32f3xx_hal_dma.c ****   	/* Change DMA peripheral state */  
 312:Drivers/STM32F3xx_HAL_Driver/Src/stm32f3xx_hal_dma.c ****   	hdma->State = HAL_DMA_STATE_BUSY;
 313:Drivers/STM32F3xx_HAL_Driver/Src/stm32f3xx_hal_dma.c ****   	
 314:Drivers/STM32F3xx_HAL_Driver/Src/stm32f3xx_hal_dma.c ****   	hdma->ErrorCode = HAL_DMA_ERROR_NONE;
 315:Drivers/STM32F3xx_HAL_Driver/Src/stm32f3xx_hal_dma.c ****   	
 316:Drivers/STM32F3xx_HAL_Driver/Src/stm32f3xx_hal_dma.c ****   	/* Disable the peripheral */
 317:Drivers/STM32F3xx_HAL_Driver/Src/stm32f3xx_hal_dma.c ****   	hdma->Instance->CCR &= ~DMA_CCR_EN;  
ARM GAS  /var/folders/p7/nwmyw04531jbkqkgv59cx10h0000gn/T//ccRzNwwu.s 			page 7


 318:Drivers/STM32F3xx_HAL_Driver/Src/stm32f3xx_hal_dma.c ****   	
 319:Drivers/STM32F3xx_HAL_Driver/Src/stm32f3xx_hal_dma.c ****   	/* Configure the source, destination address and the data length */
 320:Drivers/STM32F3xx_HAL_Driver/Src/stm32f3xx_hal_dma.c ****   	DMA_SetConfig(hdma, SrcAddress, DstAddress, DataLength);
 321:Drivers/STM32F3xx_HAL_Driver/Src/stm32f3xx_hal_dma.c ****   	
 322:Drivers/STM32F3xx_HAL_Driver/Src/stm32f3xx_hal_dma.c ****   	/* Enable the Peripheral */
 323:Drivers/STM32F3xx_HAL_Driver/Src/stm32f3xx_hal_dma.c ****   	hdma->Instance->CCR |= DMA_CCR_EN;  
 324:Drivers/STM32F3xx_HAL_Driver/Src/stm32f3xx_hal_dma.c ****   }
 325:Drivers/STM32F3xx_HAL_Driver/Src/stm32f3xx_hal_dma.c ****   else
 326:Drivers/STM32F3xx_HAL_Driver/Src/stm32f3xx_hal_dma.c ****   {
 327:Drivers/STM32F3xx_HAL_Driver/Src/stm32f3xx_hal_dma.c ****   	/* Process Unlocked */
 328:Drivers/STM32F3xx_HAL_Driver/Src/stm32f3xx_hal_dma.c ****   	__HAL_UNLOCK(hdma);
 329:Drivers/STM32F3xx_HAL_Driver/Src/stm32f3xx_hal_dma.c ****   	
 330:Drivers/STM32F3xx_HAL_Driver/Src/stm32f3xx_hal_dma.c ****   	/* Remain BUSY */
 331:Drivers/STM32F3xx_HAL_Driver/Src/stm32f3xx_hal_dma.c ****   	status = HAL_BUSY;
 332:Drivers/STM32F3xx_HAL_Driver/Src/stm32f3xx_hal_dma.c ****   }  
 333:Drivers/STM32F3xx_HAL_Driver/Src/stm32f3xx_hal_dma.c **** 
 334:Drivers/STM32F3xx_HAL_Driver/Src/stm32f3xx_hal_dma.c ****   return status; 
 335:Drivers/STM32F3xx_HAL_Driver/Src/stm32f3xx_hal_dma.c **** } 
 336:Drivers/STM32F3xx_HAL_Driver/Src/stm32f3xx_hal_dma.c **** 
 337:Drivers/STM32F3xx_HAL_Driver/Src/stm32f3xx_hal_dma.c **** /**
 338:Drivers/STM32F3xx_HAL_Driver/Src/stm32f3xx_hal_dma.c ****   * @brief  Start the DMA Transfer with interrupt enabled.
 339:Drivers/STM32F3xx_HAL_Driver/Src/stm32f3xx_hal_dma.c ****   * @param  hdma:       pointer to a DMA_HandleTypeDef structure that contains
 340:Drivers/STM32F3xx_HAL_Driver/Src/stm32f3xx_hal_dma.c ****   *                     the configuration information for the specified DMA Channel.  
 341:Drivers/STM32F3xx_HAL_Driver/Src/stm32f3xx_hal_dma.c ****   * @param  SrcAddress: The source memory Buffer address
 342:Drivers/STM32F3xx_HAL_Driver/Src/stm32f3xx_hal_dma.c ****   * @param  DstAddress: The destination memory Buffer address
 343:Drivers/STM32F3xx_HAL_Driver/Src/stm32f3xx_hal_dma.c ****   * @param  DataLength: The length of data to be transferred from source to destination
 344:Drivers/STM32F3xx_HAL_Driver/Src/stm32f3xx_hal_dma.c ****   * @retval HAL status
 345:Drivers/STM32F3xx_HAL_Driver/Src/stm32f3xx_hal_dma.c ****   */
 346:Drivers/STM32F3xx_HAL_Driver/Src/stm32f3xx_hal_dma.c **** HAL_StatusTypeDef HAL_DMA_Start_IT(DMA_HandleTypeDef *hdma, uint32_t SrcAddress, uint32_t DstAddres
 347:Drivers/STM32F3xx_HAL_Driver/Src/stm32f3xx_hal_dma.c **** {
 348:Drivers/STM32F3xx_HAL_Driver/Src/stm32f3xx_hal_dma.c **** 	HAL_StatusTypeDef status = HAL_OK;
 349:Drivers/STM32F3xx_HAL_Driver/Src/stm32f3xx_hal_dma.c **** 
 350:Drivers/STM32F3xx_HAL_Driver/Src/stm32f3xx_hal_dma.c ****   /* Check the parameters */
 351:Drivers/STM32F3xx_HAL_Driver/Src/stm32f3xx_hal_dma.c ****   assert_param(IS_DMA_BUFFER_SIZE(DataLength));
 352:Drivers/STM32F3xx_HAL_Driver/Src/stm32f3xx_hal_dma.c ****   
 353:Drivers/STM32F3xx_HAL_Driver/Src/stm32f3xx_hal_dma.c ****   /* Process locked */
 354:Drivers/STM32F3xx_HAL_Driver/Src/stm32f3xx_hal_dma.c ****   __HAL_LOCK(hdma);
 355:Drivers/STM32F3xx_HAL_Driver/Src/stm32f3xx_hal_dma.c ****   
 356:Drivers/STM32F3xx_HAL_Driver/Src/stm32f3xx_hal_dma.c ****   if(HAL_DMA_STATE_READY == hdma->State)
 357:Drivers/STM32F3xx_HAL_Driver/Src/stm32f3xx_hal_dma.c ****   {
 358:Drivers/STM32F3xx_HAL_Driver/Src/stm32f3xx_hal_dma.c ****   	/* Change DMA peripheral state */  
 359:Drivers/STM32F3xx_HAL_Driver/Src/stm32f3xx_hal_dma.c ****   	hdma->State = HAL_DMA_STATE_BUSY;
 360:Drivers/STM32F3xx_HAL_Driver/Src/stm32f3xx_hal_dma.c ****   	
 361:Drivers/STM32F3xx_HAL_Driver/Src/stm32f3xx_hal_dma.c ****   	hdma->ErrorCode = HAL_DMA_ERROR_NONE;
 362:Drivers/STM32F3xx_HAL_Driver/Src/stm32f3xx_hal_dma.c ****   	
 363:Drivers/STM32F3xx_HAL_Driver/Src/stm32f3xx_hal_dma.c ****   	/* Disable the peripheral */
 364:Drivers/STM32F3xx_HAL_Driver/Src/stm32f3xx_hal_dma.c ****   	hdma->Instance->CCR &= ~DMA_CCR_EN;
 365:Drivers/STM32F3xx_HAL_Driver/Src/stm32f3xx_hal_dma.c ****   	
 366:Drivers/STM32F3xx_HAL_Driver/Src/stm32f3xx_hal_dma.c ****   	/* Configure the source, destination address and the data length */  
 367:Drivers/STM32F3xx_HAL_Driver/Src/stm32f3xx_hal_dma.c ****   	DMA_SetConfig(hdma, SrcAddress, DstAddress, DataLength);
 368:Drivers/STM32F3xx_HAL_Driver/Src/stm32f3xx_hal_dma.c ****   	
 369:Drivers/STM32F3xx_HAL_Driver/Src/stm32f3xx_hal_dma.c ****   	/* Enable the transfer complete, & transfer error interrupts */
 370:Drivers/STM32F3xx_HAL_Driver/Src/stm32f3xx_hal_dma.c ****   	/* Half transfer interrupt is optional: enable it only if associated callback is available */
 371:Drivers/STM32F3xx_HAL_Driver/Src/stm32f3xx_hal_dma.c ****     if(NULL != hdma->XferHalfCpltCallback )
 372:Drivers/STM32F3xx_HAL_Driver/Src/stm32f3xx_hal_dma.c ****     {
 373:Drivers/STM32F3xx_HAL_Driver/Src/stm32f3xx_hal_dma.c ****       hdma->Instance->CCR |= (DMA_IT_TC | DMA_IT_HT | DMA_IT_TE);
 374:Drivers/STM32F3xx_HAL_Driver/Src/stm32f3xx_hal_dma.c ****     }
ARM GAS  /var/folders/p7/nwmyw04531jbkqkgv59cx10h0000gn/T//ccRzNwwu.s 			page 8


 375:Drivers/STM32F3xx_HAL_Driver/Src/stm32f3xx_hal_dma.c ****   	else
 376:Drivers/STM32F3xx_HAL_Driver/Src/stm32f3xx_hal_dma.c ****   	{
 377:Drivers/STM32F3xx_HAL_Driver/Src/stm32f3xx_hal_dma.c ****   		hdma->Instance->CCR |= (DMA_IT_TC | DMA_IT_TE);
 378:Drivers/STM32F3xx_HAL_Driver/Src/stm32f3xx_hal_dma.c ****   		hdma->Instance->CCR &= ~DMA_IT_HT;
 379:Drivers/STM32F3xx_HAL_Driver/Src/stm32f3xx_hal_dma.c ****   	}
 380:Drivers/STM32F3xx_HAL_Driver/Src/stm32f3xx_hal_dma.c ****   	
 381:Drivers/STM32F3xx_HAL_Driver/Src/stm32f3xx_hal_dma.c ****   	/* Enable the Peripheral */
 382:Drivers/STM32F3xx_HAL_Driver/Src/stm32f3xx_hal_dma.c ****   	hdma->Instance->CCR |= DMA_CCR_EN;
 383:Drivers/STM32F3xx_HAL_Driver/Src/stm32f3xx_hal_dma.c ****   }
 384:Drivers/STM32F3xx_HAL_Driver/Src/stm32f3xx_hal_dma.c ****   else
 385:Drivers/STM32F3xx_HAL_Driver/Src/stm32f3xx_hal_dma.c ****   {
 386:Drivers/STM32F3xx_HAL_Driver/Src/stm32f3xx_hal_dma.c ****   	/* Process Unlocked */
 387:Drivers/STM32F3xx_HAL_Driver/Src/stm32f3xx_hal_dma.c ****     __HAL_UNLOCK(hdma); 
 388:Drivers/STM32F3xx_HAL_Driver/Src/stm32f3xx_hal_dma.c ****   
 389:Drivers/STM32F3xx_HAL_Driver/Src/stm32f3xx_hal_dma.c ****     /* Remain BUSY */
 390:Drivers/STM32F3xx_HAL_Driver/Src/stm32f3xx_hal_dma.c ****     status = HAL_BUSY;
 391:Drivers/STM32F3xx_HAL_Driver/Src/stm32f3xx_hal_dma.c ****   }     
 392:Drivers/STM32F3xx_HAL_Driver/Src/stm32f3xx_hal_dma.c ****   
 393:Drivers/STM32F3xx_HAL_Driver/Src/stm32f3xx_hal_dma.c ****   return status;    
 394:Drivers/STM32F3xx_HAL_Driver/Src/stm32f3xx_hal_dma.c **** } 
 395:Drivers/STM32F3xx_HAL_Driver/Src/stm32f3xx_hal_dma.c **** 
 396:Drivers/STM32F3xx_HAL_Driver/Src/stm32f3xx_hal_dma.c **** /**
 397:Drivers/STM32F3xx_HAL_Driver/Src/stm32f3xx_hal_dma.c ****   * @brief  Abort the DMA Transfer.
 398:Drivers/STM32F3xx_HAL_Driver/Src/stm32f3xx_hal_dma.c ****   * @param  hdma  : pointer to a DMA_HandleTypeDef structure that contains
 399:Drivers/STM32F3xx_HAL_Driver/Src/stm32f3xx_hal_dma.c ****   *                 the configuration information for the specified DMA Channel.                  
 400:Drivers/STM32F3xx_HAL_Driver/Src/stm32f3xx_hal_dma.c ****   * @retval HAL status
 401:Drivers/STM32F3xx_HAL_Driver/Src/stm32f3xx_hal_dma.c ****   */
 402:Drivers/STM32F3xx_HAL_Driver/Src/stm32f3xx_hal_dma.c **** HAL_StatusTypeDef HAL_DMA_Abort(DMA_HandleTypeDef *hdma)
 403:Drivers/STM32F3xx_HAL_Driver/Src/stm32f3xx_hal_dma.c **** {
 404:Drivers/STM32F3xx_HAL_Driver/Src/stm32f3xx_hal_dma.c **** 	/* Disable DMA IT */
 405:Drivers/STM32F3xx_HAL_Driver/Src/stm32f3xx_hal_dma.c **** 	 hdma->Instance->CCR &= ~(DMA_IT_TC | DMA_IT_HT | DMA_IT_TE);
 406:Drivers/STM32F3xx_HAL_Driver/Src/stm32f3xx_hal_dma.c **** 	
 407:Drivers/STM32F3xx_HAL_Driver/Src/stm32f3xx_hal_dma.c **** 	/* Disable the channel */
 408:Drivers/STM32F3xx_HAL_Driver/Src/stm32f3xx_hal_dma.c **** 	hdma->Instance->CCR &= ~DMA_CCR_EN;
 409:Drivers/STM32F3xx_HAL_Driver/Src/stm32f3xx_hal_dma.c **** 	
 410:Drivers/STM32F3xx_HAL_Driver/Src/stm32f3xx_hal_dma.c **** 	/* Clear all flags */
 411:Drivers/STM32F3xx_HAL_Driver/Src/stm32f3xx_hal_dma.c **** 	hdma->DmaBaseAddress->IFCR = (DMA_FLAG_GL1 << hdma->ChannelIndex);
 412:Drivers/STM32F3xx_HAL_Driver/Src/stm32f3xx_hal_dma.c **** 	
 413:Drivers/STM32F3xx_HAL_Driver/Src/stm32f3xx_hal_dma.c **** 	/* Change the DMA state*/
 414:Drivers/STM32F3xx_HAL_Driver/Src/stm32f3xx_hal_dma.c **** 	hdma->State = HAL_DMA_STATE_READY; 
 415:Drivers/STM32F3xx_HAL_Driver/Src/stm32f3xx_hal_dma.c **** 	
 416:Drivers/STM32F3xx_HAL_Driver/Src/stm32f3xx_hal_dma.c **** 	/* Process Unlocked */
 417:Drivers/STM32F3xx_HAL_Driver/Src/stm32f3xx_hal_dma.c **** 	__HAL_UNLOCK(hdma);
 418:Drivers/STM32F3xx_HAL_Driver/Src/stm32f3xx_hal_dma.c **** 	
 419:Drivers/STM32F3xx_HAL_Driver/Src/stm32f3xx_hal_dma.c **** 	return HAL_OK; 
 420:Drivers/STM32F3xx_HAL_Driver/Src/stm32f3xx_hal_dma.c **** }
 421:Drivers/STM32F3xx_HAL_Driver/Src/stm32f3xx_hal_dma.c **** 
 422:Drivers/STM32F3xx_HAL_Driver/Src/stm32f3xx_hal_dma.c **** /**
 423:Drivers/STM32F3xx_HAL_Driver/Src/stm32f3xx_hal_dma.c ****   * @brief  Abort the DMA Transfer in Interrupt mode.
 424:Drivers/STM32F3xx_HAL_Driver/Src/stm32f3xx_hal_dma.c ****   * @param  hdma  : pointer to a DMA_HandleTypeDef structure that contains
 425:Drivers/STM32F3xx_HAL_Driver/Src/stm32f3xx_hal_dma.c ****   *                 the configuration information for the specified DMA Stream.
 426:Drivers/STM32F3xx_HAL_Driver/Src/stm32f3xx_hal_dma.c ****   * @retval HAL status
 427:Drivers/STM32F3xx_HAL_Driver/Src/stm32f3xx_hal_dma.c ****   */
 428:Drivers/STM32F3xx_HAL_Driver/Src/stm32f3xx_hal_dma.c **** HAL_StatusTypeDef HAL_DMA_Abort_IT(DMA_HandleTypeDef *hdma)
 429:Drivers/STM32F3xx_HAL_Driver/Src/stm32f3xx_hal_dma.c **** {  
 430:Drivers/STM32F3xx_HAL_Driver/Src/stm32f3xx_hal_dma.c ****   HAL_StatusTypeDef status = HAL_OK;
 431:Drivers/STM32F3xx_HAL_Driver/Src/stm32f3xx_hal_dma.c ****   
ARM GAS  /var/folders/p7/nwmyw04531jbkqkgv59cx10h0000gn/T//ccRzNwwu.s 			page 9


 432:Drivers/STM32F3xx_HAL_Driver/Src/stm32f3xx_hal_dma.c ****   if(HAL_DMA_STATE_BUSY != hdma->State)
 433:Drivers/STM32F3xx_HAL_Driver/Src/stm32f3xx_hal_dma.c ****   {
 434:Drivers/STM32F3xx_HAL_Driver/Src/stm32f3xx_hal_dma.c ****     /* no transfer ongoing */
 435:Drivers/STM32F3xx_HAL_Driver/Src/stm32f3xx_hal_dma.c ****     hdma->ErrorCode = HAL_DMA_ERROR_NO_XFER;
 436:Drivers/STM32F3xx_HAL_Driver/Src/stm32f3xx_hal_dma.c ****         
 437:Drivers/STM32F3xx_HAL_Driver/Src/stm32f3xx_hal_dma.c ****     status = HAL_ERROR;
 438:Drivers/STM32F3xx_HAL_Driver/Src/stm32f3xx_hal_dma.c ****   }
 439:Drivers/STM32F3xx_HAL_Driver/Src/stm32f3xx_hal_dma.c ****   else
 440:Drivers/STM32F3xx_HAL_Driver/Src/stm32f3xx_hal_dma.c ****   { 
 441:Drivers/STM32F3xx_HAL_Driver/Src/stm32f3xx_hal_dma.c ****   
 442:Drivers/STM32F3xx_HAL_Driver/Src/stm32f3xx_hal_dma.c ****     /* Disable DMA IT */
 443:Drivers/STM32F3xx_HAL_Driver/Src/stm32f3xx_hal_dma.c ****     hdma->Instance->CCR &= ~(DMA_IT_TC | DMA_IT_HT | DMA_IT_TE);
 444:Drivers/STM32F3xx_HAL_Driver/Src/stm32f3xx_hal_dma.c ****     
 445:Drivers/STM32F3xx_HAL_Driver/Src/stm32f3xx_hal_dma.c ****     /* Disable the channel */
 446:Drivers/STM32F3xx_HAL_Driver/Src/stm32f3xx_hal_dma.c ****     hdma->Instance->CCR &= ~DMA_CCR_EN;
 447:Drivers/STM32F3xx_HAL_Driver/Src/stm32f3xx_hal_dma.c ****     
 448:Drivers/STM32F3xx_HAL_Driver/Src/stm32f3xx_hal_dma.c ****     /* Clear all flags */
 449:Drivers/STM32F3xx_HAL_Driver/Src/stm32f3xx_hal_dma.c ****     hdma->DmaBaseAddress->IFCR = DMA_FLAG_GL1 << hdma->ChannelIndex;
 450:Drivers/STM32F3xx_HAL_Driver/Src/stm32f3xx_hal_dma.c ****     
 451:Drivers/STM32F3xx_HAL_Driver/Src/stm32f3xx_hal_dma.c ****     /* Change the DMA state */
 452:Drivers/STM32F3xx_HAL_Driver/Src/stm32f3xx_hal_dma.c ****     hdma->State = HAL_DMA_STATE_READY;
 453:Drivers/STM32F3xx_HAL_Driver/Src/stm32f3xx_hal_dma.c ****     
 454:Drivers/STM32F3xx_HAL_Driver/Src/stm32f3xx_hal_dma.c ****     /* Process Unlocked */
 455:Drivers/STM32F3xx_HAL_Driver/Src/stm32f3xx_hal_dma.c ****     __HAL_UNLOCK(hdma);
 456:Drivers/STM32F3xx_HAL_Driver/Src/stm32f3xx_hal_dma.c ****     
 457:Drivers/STM32F3xx_HAL_Driver/Src/stm32f3xx_hal_dma.c ****     /* Call User Abort callback */ 
 458:Drivers/STM32F3xx_HAL_Driver/Src/stm32f3xx_hal_dma.c ****     if(hdma->XferAbortCallback != NULL)
 459:Drivers/STM32F3xx_HAL_Driver/Src/stm32f3xx_hal_dma.c ****     {
 460:Drivers/STM32F3xx_HAL_Driver/Src/stm32f3xx_hal_dma.c ****       hdma->XferAbortCallback(hdma);
 461:Drivers/STM32F3xx_HAL_Driver/Src/stm32f3xx_hal_dma.c ****     } 
 462:Drivers/STM32F3xx_HAL_Driver/Src/stm32f3xx_hal_dma.c ****   }
 463:Drivers/STM32F3xx_HAL_Driver/Src/stm32f3xx_hal_dma.c ****   return status;
 464:Drivers/STM32F3xx_HAL_Driver/Src/stm32f3xx_hal_dma.c **** }
 465:Drivers/STM32F3xx_HAL_Driver/Src/stm32f3xx_hal_dma.c **** 
 466:Drivers/STM32F3xx_HAL_Driver/Src/stm32f3xx_hal_dma.c **** /**
 467:Drivers/STM32F3xx_HAL_Driver/Src/stm32f3xx_hal_dma.c ****   * @brief  Polling for transfer complete.
 468:Drivers/STM32F3xx_HAL_Driver/Src/stm32f3xx_hal_dma.c ****   * @param  hdma:    pointer to a DMA_HandleTypeDef structure that contains
 469:Drivers/STM32F3xx_HAL_Driver/Src/stm32f3xx_hal_dma.c ****   *                  the configuration information for the specified DMA Channel.
 470:Drivers/STM32F3xx_HAL_Driver/Src/stm32f3xx_hal_dma.c ****   * @param  CompleteLevel: Specifies the DMA level complete.  
 471:Drivers/STM32F3xx_HAL_Driver/Src/stm32f3xx_hal_dma.c ****   * @param  Timeout:       Timeout duration.
 472:Drivers/STM32F3xx_HAL_Driver/Src/stm32f3xx_hal_dma.c ****   * @retval HAL status
 473:Drivers/STM32F3xx_HAL_Driver/Src/stm32f3xx_hal_dma.c ****   */
 474:Drivers/STM32F3xx_HAL_Driver/Src/stm32f3xx_hal_dma.c **** HAL_StatusTypeDef HAL_DMA_PollForTransfer(DMA_HandleTypeDef *hdma, uint32_t CompleteLevel, uint32_t
 475:Drivers/STM32F3xx_HAL_Driver/Src/stm32f3xx_hal_dma.c **** {
 476:Drivers/STM32F3xx_HAL_Driver/Src/stm32f3xx_hal_dma.c ****   uint32_t temp;
 477:Drivers/STM32F3xx_HAL_Driver/Src/stm32f3xx_hal_dma.c ****   uint32_t tickstart = 0U;
 478:Drivers/STM32F3xx_HAL_Driver/Src/stm32f3xx_hal_dma.c ****   
 479:Drivers/STM32F3xx_HAL_Driver/Src/stm32f3xx_hal_dma.c ****   if(HAL_DMA_STATE_BUSY != hdma->State)
 480:Drivers/STM32F3xx_HAL_Driver/Src/stm32f3xx_hal_dma.c ****   {
 481:Drivers/STM32F3xx_HAL_Driver/Src/stm32f3xx_hal_dma.c ****     /* no transfer ongoing */
 482:Drivers/STM32F3xx_HAL_Driver/Src/stm32f3xx_hal_dma.c ****     hdma->ErrorCode = HAL_DMA_ERROR_NO_XFER;
 483:Drivers/STM32F3xx_HAL_Driver/Src/stm32f3xx_hal_dma.c ****     __HAL_UNLOCK(hdma);
 484:Drivers/STM32F3xx_HAL_Driver/Src/stm32f3xx_hal_dma.c ****     return HAL_ERROR;
 485:Drivers/STM32F3xx_HAL_Driver/Src/stm32f3xx_hal_dma.c ****   }
 486:Drivers/STM32F3xx_HAL_Driver/Src/stm32f3xx_hal_dma.c ****   
 487:Drivers/STM32F3xx_HAL_Driver/Src/stm32f3xx_hal_dma.c ****   /* Polling mode not supported in circular mode */
 488:Drivers/STM32F3xx_HAL_Driver/Src/stm32f3xx_hal_dma.c ****   if (RESET != (hdma->Instance->CCR & DMA_CCR_CIRC))
ARM GAS  /var/folders/p7/nwmyw04531jbkqkgv59cx10h0000gn/T//ccRzNwwu.s 			page 10


 489:Drivers/STM32F3xx_HAL_Driver/Src/stm32f3xx_hal_dma.c ****   {
 490:Drivers/STM32F3xx_HAL_Driver/Src/stm32f3xx_hal_dma.c ****     hdma->ErrorCode = HAL_DMA_ERROR_NOT_SUPPORTED;
 491:Drivers/STM32F3xx_HAL_Driver/Src/stm32f3xx_hal_dma.c ****     return HAL_ERROR;
 492:Drivers/STM32F3xx_HAL_Driver/Src/stm32f3xx_hal_dma.c ****   }
 493:Drivers/STM32F3xx_HAL_Driver/Src/stm32f3xx_hal_dma.c ****   
 494:Drivers/STM32F3xx_HAL_Driver/Src/stm32f3xx_hal_dma.c ****   /* Get the level transfer complete flag */
 495:Drivers/STM32F3xx_HAL_Driver/Src/stm32f3xx_hal_dma.c ****   if(HAL_DMA_FULL_TRANSFER == CompleteLevel)
 496:Drivers/STM32F3xx_HAL_Driver/Src/stm32f3xx_hal_dma.c ****   {
 497:Drivers/STM32F3xx_HAL_Driver/Src/stm32f3xx_hal_dma.c ****     /* Transfer Complete flag */
 498:Drivers/STM32F3xx_HAL_Driver/Src/stm32f3xx_hal_dma.c ****     temp = DMA_FLAG_TC1 << hdma->ChannelIndex;
 499:Drivers/STM32F3xx_HAL_Driver/Src/stm32f3xx_hal_dma.c ****   }
 500:Drivers/STM32F3xx_HAL_Driver/Src/stm32f3xx_hal_dma.c ****   else
 501:Drivers/STM32F3xx_HAL_Driver/Src/stm32f3xx_hal_dma.c ****   {
 502:Drivers/STM32F3xx_HAL_Driver/Src/stm32f3xx_hal_dma.c ****     /* Half Transfer Complete flag */
 503:Drivers/STM32F3xx_HAL_Driver/Src/stm32f3xx_hal_dma.c ****     temp = DMA_FLAG_HT1 << hdma->ChannelIndex;
 504:Drivers/STM32F3xx_HAL_Driver/Src/stm32f3xx_hal_dma.c ****   }
 505:Drivers/STM32F3xx_HAL_Driver/Src/stm32f3xx_hal_dma.c **** 
 506:Drivers/STM32F3xx_HAL_Driver/Src/stm32f3xx_hal_dma.c ****   /* Get tick */
 507:Drivers/STM32F3xx_HAL_Driver/Src/stm32f3xx_hal_dma.c ****   tickstart = HAL_GetTick();
 508:Drivers/STM32F3xx_HAL_Driver/Src/stm32f3xx_hal_dma.c **** 
 509:Drivers/STM32F3xx_HAL_Driver/Src/stm32f3xx_hal_dma.c ****   while(RESET == (hdma->DmaBaseAddress->ISR & temp))
 510:Drivers/STM32F3xx_HAL_Driver/Src/stm32f3xx_hal_dma.c ****   {
 511:Drivers/STM32F3xx_HAL_Driver/Src/stm32f3xx_hal_dma.c ****     if(RESET != (hdma->DmaBaseAddress->ISR & (DMA_FLAG_TE1 << hdma->ChannelIndex)))
 512:Drivers/STM32F3xx_HAL_Driver/Src/stm32f3xx_hal_dma.c ****     {      
 513:Drivers/STM32F3xx_HAL_Driver/Src/stm32f3xx_hal_dma.c ****       /* When a DMA transfer error occurs */
 514:Drivers/STM32F3xx_HAL_Driver/Src/stm32f3xx_hal_dma.c ****       /* A hardware clear of its EN bits is performed */
 515:Drivers/STM32F3xx_HAL_Driver/Src/stm32f3xx_hal_dma.c ****       /* Clear all flags */
 516:Drivers/STM32F3xx_HAL_Driver/Src/stm32f3xx_hal_dma.c ****       hdma->DmaBaseAddress->IFCR = DMA_FLAG_GL1 << hdma->ChannelIndex;
 517:Drivers/STM32F3xx_HAL_Driver/Src/stm32f3xx_hal_dma.c ****       
 518:Drivers/STM32F3xx_HAL_Driver/Src/stm32f3xx_hal_dma.c ****       /* Update error code */
 519:Drivers/STM32F3xx_HAL_Driver/Src/stm32f3xx_hal_dma.c ****       hdma->ErrorCode = HAL_DMA_ERROR_TE;
 520:Drivers/STM32F3xx_HAL_Driver/Src/stm32f3xx_hal_dma.c **** 
 521:Drivers/STM32F3xx_HAL_Driver/Src/stm32f3xx_hal_dma.c ****       /* Change the DMA state */
 522:Drivers/STM32F3xx_HAL_Driver/Src/stm32f3xx_hal_dma.c ****       hdma->State= HAL_DMA_STATE_READY;       
 523:Drivers/STM32F3xx_HAL_Driver/Src/stm32f3xx_hal_dma.c ****       
 524:Drivers/STM32F3xx_HAL_Driver/Src/stm32f3xx_hal_dma.c ****       /* Process Unlocked */
 525:Drivers/STM32F3xx_HAL_Driver/Src/stm32f3xx_hal_dma.c ****       __HAL_UNLOCK(hdma);
 526:Drivers/STM32F3xx_HAL_Driver/Src/stm32f3xx_hal_dma.c ****       
 527:Drivers/STM32F3xx_HAL_Driver/Src/stm32f3xx_hal_dma.c ****       return HAL_ERROR;      
 528:Drivers/STM32F3xx_HAL_Driver/Src/stm32f3xx_hal_dma.c ****     }      
 529:Drivers/STM32F3xx_HAL_Driver/Src/stm32f3xx_hal_dma.c ****     /* Check for the Timeout */
 530:Drivers/STM32F3xx_HAL_Driver/Src/stm32f3xx_hal_dma.c ****     if(Timeout != HAL_MAX_DELAY)
 531:Drivers/STM32F3xx_HAL_Driver/Src/stm32f3xx_hal_dma.c ****     {
 532:Drivers/STM32F3xx_HAL_Driver/Src/stm32f3xx_hal_dma.c ****       if((Timeout == 0U) || ((HAL_GetTick() - tickstart) > Timeout))
 533:Drivers/STM32F3xx_HAL_Driver/Src/stm32f3xx_hal_dma.c ****       {
 534:Drivers/STM32F3xx_HAL_Driver/Src/stm32f3xx_hal_dma.c ****         /* Update error code */
 535:Drivers/STM32F3xx_HAL_Driver/Src/stm32f3xx_hal_dma.c ****         hdma->ErrorCode = HAL_DMA_ERROR_TIMEOUT;
 536:Drivers/STM32F3xx_HAL_Driver/Src/stm32f3xx_hal_dma.c ****         
 537:Drivers/STM32F3xx_HAL_Driver/Src/stm32f3xx_hal_dma.c ****         /* Change the DMA state */
 538:Drivers/STM32F3xx_HAL_Driver/Src/stm32f3xx_hal_dma.c ****         hdma->State = HAL_DMA_STATE_READY;
 539:Drivers/STM32F3xx_HAL_Driver/Src/stm32f3xx_hal_dma.c **** 
 540:Drivers/STM32F3xx_HAL_Driver/Src/stm32f3xx_hal_dma.c ****         /* Process Unlocked */
 541:Drivers/STM32F3xx_HAL_Driver/Src/stm32f3xx_hal_dma.c ****         __HAL_UNLOCK(hdma);
 542:Drivers/STM32F3xx_HAL_Driver/Src/stm32f3xx_hal_dma.c **** 
 543:Drivers/STM32F3xx_HAL_Driver/Src/stm32f3xx_hal_dma.c ****         return HAL_ERROR;
 544:Drivers/STM32F3xx_HAL_Driver/Src/stm32f3xx_hal_dma.c ****       }
 545:Drivers/STM32F3xx_HAL_Driver/Src/stm32f3xx_hal_dma.c ****     }
ARM GAS  /var/folders/p7/nwmyw04531jbkqkgv59cx10h0000gn/T//ccRzNwwu.s 			page 11


 546:Drivers/STM32F3xx_HAL_Driver/Src/stm32f3xx_hal_dma.c ****   }
 547:Drivers/STM32F3xx_HAL_Driver/Src/stm32f3xx_hal_dma.c **** 
 548:Drivers/STM32F3xx_HAL_Driver/Src/stm32f3xx_hal_dma.c ****   if(HAL_DMA_FULL_TRANSFER == CompleteLevel)
 549:Drivers/STM32F3xx_HAL_Driver/Src/stm32f3xx_hal_dma.c ****   {
 550:Drivers/STM32F3xx_HAL_Driver/Src/stm32f3xx_hal_dma.c ****     /* Clear the transfer complete flag */
 551:Drivers/STM32F3xx_HAL_Driver/Src/stm32f3xx_hal_dma.c ****     hdma->DmaBaseAddress->IFCR = DMA_FLAG_TC1 << hdma->ChannelIndex;
 552:Drivers/STM32F3xx_HAL_Driver/Src/stm32f3xx_hal_dma.c **** 
 553:Drivers/STM32F3xx_HAL_Driver/Src/stm32f3xx_hal_dma.c ****     /* The selected Channelx EN bit is cleared (DMA is disabled and 
 554:Drivers/STM32F3xx_HAL_Driver/Src/stm32f3xx_hal_dma.c ****     all transfers are complete) */
 555:Drivers/STM32F3xx_HAL_Driver/Src/stm32f3xx_hal_dma.c ****     hdma->State = HAL_DMA_STATE_READY;
 556:Drivers/STM32F3xx_HAL_Driver/Src/stm32f3xx_hal_dma.c ****   }
 557:Drivers/STM32F3xx_HAL_Driver/Src/stm32f3xx_hal_dma.c ****   else
 558:Drivers/STM32F3xx_HAL_Driver/Src/stm32f3xx_hal_dma.c ****   { 
 559:Drivers/STM32F3xx_HAL_Driver/Src/stm32f3xx_hal_dma.c ****     /* Clear the half transfer complete flag */
 560:Drivers/STM32F3xx_HAL_Driver/Src/stm32f3xx_hal_dma.c ****     hdma->DmaBaseAddress->IFCR = DMA_FLAG_HT1 << hdma->ChannelIndex;
 561:Drivers/STM32F3xx_HAL_Driver/Src/stm32f3xx_hal_dma.c ****   }
 562:Drivers/STM32F3xx_HAL_Driver/Src/stm32f3xx_hal_dma.c ****   
 563:Drivers/STM32F3xx_HAL_Driver/Src/stm32f3xx_hal_dma.c ****   /* Process unlocked */
 564:Drivers/STM32F3xx_HAL_Driver/Src/stm32f3xx_hal_dma.c ****   __HAL_UNLOCK(hdma);  
 565:Drivers/STM32F3xx_HAL_Driver/Src/stm32f3xx_hal_dma.c **** 
 566:Drivers/STM32F3xx_HAL_Driver/Src/stm32f3xx_hal_dma.c ****   return HAL_OK;
 567:Drivers/STM32F3xx_HAL_Driver/Src/stm32f3xx_hal_dma.c **** }
 568:Drivers/STM32F3xx_HAL_Driver/Src/stm32f3xx_hal_dma.c **** 
 569:Drivers/STM32F3xx_HAL_Driver/Src/stm32f3xx_hal_dma.c **** /**
 570:Drivers/STM32F3xx_HAL_Driver/Src/stm32f3xx_hal_dma.c ****   * @brief  Handle DMA interrupt request.
 571:Drivers/STM32F3xx_HAL_Driver/Src/stm32f3xx_hal_dma.c ****   * @param  hdma: pointer to a DMA_HandleTypeDef structure that contains
 572:Drivers/STM32F3xx_HAL_Driver/Src/stm32f3xx_hal_dma.c ****   *               the configuration information for the specified DMA Channel.  
 573:Drivers/STM32F3xx_HAL_Driver/Src/stm32f3xx_hal_dma.c ****   * @retval None
 574:Drivers/STM32F3xx_HAL_Driver/Src/stm32f3xx_hal_dma.c ****   */
 575:Drivers/STM32F3xx_HAL_Driver/Src/stm32f3xx_hal_dma.c **** void HAL_DMA_IRQHandler(DMA_HandleTypeDef *hdma)
 576:Drivers/STM32F3xx_HAL_Driver/Src/stm32f3xx_hal_dma.c **** {
 577:Drivers/STM32F3xx_HAL_Driver/Src/stm32f3xx_hal_dma.c **** 	uint32_t flag_it = hdma->DmaBaseAddress->ISR;
 578:Drivers/STM32F3xx_HAL_Driver/Src/stm32f3xx_hal_dma.c ****   uint32_t source_it = hdma->Instance->CCR;
 579:Drivers/STM32F3xx_HAL_Driver/Src/stm32f3xx_hal_dma.c ****           
 580:Drivers/STM32F3xx_HAL_Driver/Src/stm32f3xx_hal_dma.c ****   /* Half Transfer Complete Interrupt management ******************************/
 581:Drivers/STM32F3xx_HAL_Driver/Src/stm32f3xx_hal_dma.c ****   if ((RESET != (flag_it & (DMA_FLAG_HT1 << hdma->ChannelIndex))) && (RESET != (source_it & DMA_IT_
 582:Drivers/STM32F3xx_HAL_Driver/Src/stm32f3xx_hal_dma.c ****   {
 583:Drivers/STM32F3xx_HAL_Driver/Src/stm32f3xx_hal_dma.c ****   	/* Disable the half transfer interrupt if the DMA mode is not CIRCULAR */
 584:Drivers/STM32F3xx_HAL_Driver/Src/stm32f3xx_hal_dma.c ****   	if((hdma->Instance->CCR & DMA_CCR_CIRC) == 0U)
 585:Drivers/STM32F3xx_HAL_Driver/Src/stm32f3xx_hal_dma.c ****   	{
 586:Drivers/STM32F3xx_HAL_Driver/Src/stm32f3xx_hal_dma.c ****   		/* Disable the half transfer interrupt */
 587:Drivers/STM32F3xx_HAL_Driver/Src/stm32f3xx_hal_dma.c ****   		hdma->Instance->CCR &= ~DMA_IT_HT;
 588:Drivers/STM32F3xx_HAL_Driver/Src/stm32f3xx_hal_dma.c ****   	}
 589:Drivers/STM32F3xx_HAL_Driver/Src/stm32f3xx_hal_dma.c ****   	
 590:Drivers/STM32F3xx_HAL_Driver/Src/stm32f3xx_hal_dma.c ****   	/* Clear the half transfer complete flag */
 591:Drivers/STM32F3xx_HAL_Driver/Src/stm32f3xx_hal_dma.c ****   	hdma->DmaBaseAddress->IFCR = DMA_FLAG_HT1 << hdma->ChannelIndex;
 592:Drivers/STM32F3xx_HAL_Driver/Src/stm32f3xx_hal_dma.c ****   	
 593:Drivers/STM32F3xx_HAL_Driver/Src/stm32f3xx_hal_dma.c ****   	/* DMA peripheral state is not updated in Half Transfer */
 594:Drivers/STM32F3xx_HAL_Driver/Src/stm32f3xx_hal_dma.c ****   	/* State is updated only in Transfer Complete case */
 595:Drivers/STM32F3xx_HAL_Driver/Src/stm32f3xx_hal_dma.c ****   	
 596:Drivers/STM32F3xx_HAL_Driver/Src/stm32f3xx_hal_dma.c ****   	if(hdma->XferHalfCpltCallback != NULL)
 597:Drivers/STM32F3xx_HAL_Driver/Src/stm32f3xx_hal_dma.c ****   	{
 598:Drivers/STM32F3xx_HAL_Driver/Src/stm32f3xx_hal_dma.c ****   		/* Half transfer callback */
 599:Drivers/STM32F3xx_HAL_Driver/Src/stm32f3xx_hal_dma.c ****   		hdma->XferHalfCpltCallback(hdma);
 600:Drivers/STM32F3xx_HAL_Driver/Src/stm32f3xx_hal_dma.c ****   	}
 601:Drivers/STM32F3xx_HAL_Driver/Src/stm32f3xx_hal_dma.c ****   }
 602:Drivers/STM32F3xx_HAL_Driver/Src/stm32f3xx_hal_dma.c ****   
ARM GAS  /var/folders/p7/nwmyw04531jbkqkgv59cx10h0000gn/T//ccRzNwwu.s 			page 12


 603:Drivers/STM32F3xx_HAL_Driver/Src/stm32f3xx_hal_dma.c ****   /* Transfer Complete Interrupt management ***********************************/
 604:Drivers/STM32F3xx_HAL_Driver/Src/stm32f3xx_hal_dma.c ****   else if ((RESET != (flag_it & (DMA_FLAG_TC1 << hdma->ChannelIndex))) && (RESET != (source_it & DM
 605:Drivers/STM32F3xx_HAL_Driver/Src/stm32f3xx_hal_dma.c ****   {
 606:Drivers/STM32F3xx_HAL_Driver/Src/stm32f3xx_hal_dma.c ****   	if((hdma->Instance->CCR & DMA_CCR_CIRC) == 0U)
 607:Drivers/STM32F3xx_HAL_Driver/Src/stm32f3xx_hal_dma.c ****   	{
 608:Drivers/STM32F3xx_HAL_Driver/Src/stm32f3xx_hal_dma.c ****   		/* Disable the transfer complete  & transfer error interrupts */
 609:Drivers/STM32F3xx_HAL_Driver/Src/stm32f3xx_hal_dma.c ****   		/* if the DMA mode is not CIRCULAR */
 610:Drivers/STM32F3xx_HAL_Driver/Src/stm32f3xx_hal_dma.c ****   		hdma->Instance->CCR &= ~(DMA_IT_TC | DMA_IT_TE);
 611:Drivers/STM32F3xx_HAL_Driver/Src/stm32f3xx_hal_dma.c ****   		
 612:Drivers/STM32F3xx_HAL_Driver/Src/stm32f3xx_hal_dma.c ****   		/* Change the DMA state */
 613:Drivers/STM32F3xx_HAL_Driver/Src/stm32f3xx_hal_dma.c ****   		hdma->State = HAL_DMA_STATE_READY;
 614:Drivers/STM32F3xx_HAL_Driver/Src/stm32f3xx_hal_dma.c ****   	}
 615:Drivers/STM32F3xx_HAL_Driver/Src/stm32f3xx_hal_dma.c ****   	
 616:Drivers/STM32F3xx_HAL_Driver/Src/stm32f3xx_hal_dma.c ****   	/* Clear the transfer complete flag */
 617:Drivers/STM32F3xx_HAL_Driver/Src/stm32f3xx_hal_dma.c ****   	hdma->DmaBaseAddress->IFCR = DMA_FLAG_TC1 << hdma->ChannelIndex;
 618:Drivers/STM32F3xx_HAL_Driver/Src/stm32f3xx_hal_dma.c ****   	
 619:Drivers/STM32F3xx_HAL_Driver/Src/stm32f3xx_hal_dma.c ****   	/* Process Unlocked */
 620:Drivers/STM32F3xx_HAL_Driver/Src/stm32f3xx_hal_dma.c ****   	__HAL_UNLOCK(hdma);
 621:Drivers/STM32F3xx_HAL_Driver/Src/stm32f3xx_hal_dma.c ****   	
 622:Drivers/STM32F3xx_HAL_Driver/Src/stm32f3xx_hal_dma.c ****   	if(hdma->XferCpltCallback != NULL)
 623:Drivers/STM32F3xx_HAL_Driver/Src/stm32f3xx_hal_dma.c ****   	{
 624:Drivers/STM32F3xx_HAL_Driver/Src/stm32f3xx_hal_dma.c ****   		/* Transfer complete callback */
 625:Drivers/STM32F3xx_HAL_Driver/Src/stm32f3xx_hal_dma.c ****   		hdma->XferCpltCallback(hdma);
 626:Drivers/STM32F3xx_HAL_Driver/Src/stm32f3xx_hal_dma.c ****   	}
 627:Drivers/STM32F3xx_HAL_Driver/Src/stm32f3xx_hal_dma.c ****   }
 628:Drivers/STM32F3xx_HAL_Driver/Src/stm32f3xx_hal_dma.c ****   
 629:Drivers/STM32F3xx_HAL_Driver/Src/stm32f3xx_hal_dma.c ****   /* Transfer Error Interrupt management ***************************************/
 630:Drivers/STM32F3xx_HAL_Driver/Src/stm32f3xx_hal_dma.c ****   else if (( RESET != (flag_it & (DMA_FLAG_TE1 << hdma->ChannelIndex))) && (RESET != (source_it & D
 631:Drivers/STM32F3xx_HAL_Driver/Src/stm32f3xx_hal_dma.c ****   {
 632:Drivers/STM32F3xx_HAL_Driver/Src/stm32f3xx_hal_dma.c ****   	/* When a DMA transfer error occurs */
 633:Drivers/STM32F3xx_HAL_Driver/Src/stm32f3xx_hal_dma.c ****     /* A hardware clear of its EN bits is performed */
 634:Drivers/STM32F3xx_HAL_Driver/Src/stm32f3xx_hal_dma.c ****     /* Then, disable all DMA interrupts */
 635:Drivers/STM32F3xx_HAL_Driver/Src/stm32f3xx_hal_dma.c ****     hdma->Instance->CCR &= ~(DMA_IT_TC | DMA_IT_HT | DMA_IT_TE);
 636:Drivers/STM32F3xx_HAL_Driver/Src/stm32f3xx_hal_dma.c ****     
 637:Drivers/STM32F3xx_HAL_Driver/Src/stm32f3xx_hal_dma.c ****     /* Clear all flags */
 638:Drivers/STM32F3xx_HAL_Driver/Src/stm32f3xx_hal_dma.c ****     hdma->DmaBaseAddress->IFCR = DMA_FLAG_GL1 << hdma->ChannelIndex;
 639:Drivers/STM32F3xx_HAL_Driver/Src/stm32f3xx_hal_dma.c ****     
 640:Drivers/STM32F3xx_HAL_Driver/Src/stm32f3xx_hal_dma.c ****     /* Update error code */
 641:Drivers/STM32F3xx_HAL_Driver/Src/stm32f3xx_hal_dma.c ****     hdma->ErrorCode = HAL_DMA_ERROR_TE;
 642:Drivers/STM32F3xx_HAL_Driver/Src/stm32f3xx_hal_dma.c ****     
 643:Drivers/STM32F3xx_HAL_Driver/Src/stm32f3xx_hal_dma.c ****     /* Change the DMA state */
 644:Drivers/STM32F3xx_HAL_Driver/Src/stm32f3xx_hal_dma.c ****     hdma->State = HAL_DMA_STATE_READY;    
 645:Drivers/STM32F3xx_HAL_Driver/Src/stm32f3xx_hal_dma.c ****     
 646:Drivers/STM32F3xx_HAL_Driver/Src/stm32f3xx_hal_dma.c ****     /* Process Unlocked */
 647:Drivers/STM32F3xx_HAL_Driver/Src/stm32f3xx_hal_dma.c ****     __HAL_UNLOCK(hdma); 
 648:Drivers/STM32F3xx_HAL_Driver/Src/stm32f3xx_hal_dma.c ****     
 649:Drivers/STM32F3xx_HAL_Driver/Src/stm32f3xx_hal_dma.c ****     if(hdma->XferErrorCallback != NULL)
 650:Drivers/STM32F3xx_HAL_Driver/Src/stm32f3xx_hal_dma.c ****     {
 651:Drivers/STM32F3xx_HAL_Driver/Src/stm32f3xx_hal_dma.c ****     	/* Transfer error callback */
 652:Drivers/STM32F3xx_HAL_Driver/Src/stm32f3xx_hal_dma.c ****     	hdma->XferErrorCallback(hdma);
 653:Drivers/STM32F3xx_HAL_Driver/Src/stm32f3xx_hal_dma.c ****     }
 654:Drivers/STM32F3xx_HAL_Driver/Src/stm32f3xx_hal_dma.c ****   }
 655:Drivers/STM32F3xx_HAL_Driver/Src/stm32f3xx_hal_dma.c **** }  
 656:Drivers/STM32F3xx_HAL_Driver/Src/stm32f3xx_hal_dma.c **** 
 657:Drivers/STM32F3xx_HAL_Driver/Src/stm32f3xx_hal_dma.c **** /**
 658:Drivers/STM32F3xx_HAL_Driver/Src/stm32f3xx_hal_dma.c ****   * @brief  Register callbacks
 659:Drivers/STM32F3xx_HAL_Driver/Src/stm32f3xx_hal_dma.c ****   * @param  hdma:                 pointer to a DMA_HandleTypeDef structure that contains
ARM GAS  /var/folders/p7/nwmyw04531jbkqkgv59cx10h0000gn/T//ccRzNwwu.s 			page 13


 660:Drivers/STM32F3xx_HAL_Driver/Src/stm32f3xx_hal_dma.c ****   *                               the configuration information for the specified DMA Stream.
 661:Drivers/STM32F3xx_HAL_Driver/Src/stm32f3xx_hal_dma.c ****   * @param  CallbackID:           User Callback identifer
 662:Drivers/STM32F3xx_HAL_Driver/Src/stm32f3xx_hal_dma.c ****   *                               a HAL_DMA_CallbackIDTypeDef ENUM as parameter.
 663:Drivers/STM32F3xx_HAL_Driver/Src/stm32f3xx_hal_dma.c ****   * @param  pCallback:            pointer to private callback function which has pointer to 
 664:Drivers/STM32F3xx_HAL_Driver/Src/stm32f3xx_hal_dma.c ****   *                               a DMA_HandleTypeDef structure as parameter.
 665:Drivers/STM32F3xx_HAL_Driver/Src/stm32f3xx_hal_dma.c ****   * @retval HAL status
 666:Drivers/STM32F3xx_HAL_Driver/Src/stm32f3xx_hal_dma.c ****   */                          
 667:Drivers/STM32F3xx_HAL_Driver/Src/stm32f3xx_hal_dma.c **** HAL_StatusTypeDef HAL_DMA_RegisterCallback(DMA_HandleTypeDef *hdma, HAL_DMA_CallbackIDTypeDef Callb
 668:Drivers/STM32F3xx_HAL_Driver/Src/stm32f3xx_hal_dma.c **** {
 669:Drivers/STM32F3xx_HAL_Driver/Src/stm32f3xx_hal_dma.c ****   HAL_StatusTypeDef status = HAL_OK;
 670:Drivers/STM32F3xx_HAL_Driver/Src/stm32f3xx_hal_dma.c ****   
 671:Drivers/STM32F3xx_HAL_Driver/Src/stm32f3xx_hal_dma.c ****   /* Process locked */
 672:Drivers/STM32F3xx_HAL_Driver/Src/stm32f3xx_hal_dma.c ****   __HAL_LOCK(hdma);
 673:Drivers/STM32F3xx_HAL_Driver/Src/stm32f3xx_hal_dma.c ****   
 674:Drivers/STM32F3xx_HAL_Driver/Src/stm32f3xx_hal_dma.c ****   if(HAL_DMA_STATE_READY == hdma->State)
 675:Drivers/STM32F3xx_HAL_Driver/Src/stm32f3xx_hal_dma.c ****   {
 676:Drivers/STM32F3xx_HAL_Driver/Src/stm32f3xx_hal_dma.c ****     switch (CallbackID)
 677:Drivers/STM32F3xx_HAL_Driver/Src/stm32f3xx_hal_dma.c ****     {
 678:Drivers/STM32F3xx_HAL_Driver/Src/stm32f3xx_hal_dma.c ****      case  HAL_DMA_XFER_CPLT_CB_ID:
 679:Drivers/STM32F3xx_HAL_Driver/Src/stm32f3xx_hal_dma.c ****            hdma->XferCpltCallback = pCallback;
 680:Drivers/STM32F3xx_HAL_Driver/Src/stm32f3xx_hal_dma.c ****            break;
 681:Drivers/STM32F3xx_HAL_Driver/Src/stm32f3xx_hal_dma.c ****        
 682:Drivers/STM32F3xx_HAL_Driver/Src/stm32f3xx_hal_dma.c ****      case  HAL_DMA_XFER_HALFCPLT_CB_ID:
 683:Drivers/STM32F3xx_HAL_Driver/Src/stm32f3xx_hal_dma.c ****            hdma->XferHalfCpltCallback = pCallback;
 684:Drivers/STM32F3xx_HAL_Driver/Src/stm32f3xx_hal_dma.c ****            break;         
 685:Drivers/STM32F3xx_HAL_Driver/Src/stm32f3xx_hal_dma.c **** 
 686:Drivers/STM32F3xx_HAL_Driver/Src/stm32f3xx_hal_dma.c ****      case  HAL_DMA_XFER_ERROR_CB_ID:
 687:Drivers/STM32F3xx_HAL_Driver/Src/stm32f3xx_hal_dma.c ****            hdma->XferErrorCallback = pCallback;
 688:Drivers/STM32F3xx_HAL_Driver/Src/stm32f3xx_hal_dma.c ****            break;         
 689:Drivers/STM32F3xx_HAL_Driver/Src/stm32f3xx_hal_dma.c ****            
 690:Drivers/STM32F3xx_HAL_Driver/Src/stm32f3xx_hal_dma.c ****      case  HAL_DMA_XFER_ABORT_CB_ID:
 691:Drivers/STM32F3xx_HAL_Driver/Src/stm32f3xx_hal_dma.c ****            hdma->XferAbortCallback = pCallback;
 692:Drivers/STM32F3xx_HAL_Driver/Src/stm32f3xx_hal_dma.c ****            break; 
 693:Drivers/STM32F3xx_HAL_Driver/Src/stm32f3xx_hal_dma.c ****            
 694:Drivers/STM32F3xx_HAL_Driver/Src/stm32f3xx_hal_dma.c ****      default:
 695:Drivers/STM32F3xx_HAL_Driver/Src/stm32f3xx_hal_dma.c ****            status = HAL_ERROR;
 696:Drivers/STM32F3xx_HAL_Driver/Src/stm32f3xx_hal_dma.c ****            break;                                                            
 697:Drivers/STM32F3xx_HAL_Driver/Src/stm32f3xx_hal_dma.c ****     }
 698:Drivers/STM32F3xx_HAL_Driver/Src/stm32f3xx_hal_dma.c ****   }
 699:Drivers/STM32F3xx_HAL_Driver/Src/stm32f3xx_hal_dma.c ****   else
 700:Drivers/STM32F3xx_HAL_Driver/Src/stm32f3xx_hal_dma.c ****   {
 701:Drivers/STM32F3xx_HAL_Driver/Src/stm32f3xx_hal_dma.c ****     status = HAL_ERROR;
 702:Drivers/STM32F3xx_HAL_Driver/Src/stm32f3xx_hal_dma.c ****   } 
 703:Drivers/STM32F3xx_HAL_Driver/Src/stm32f3xx_hal_dma.c ****   
 704:Drivers/STM32F3xx_HAL_Driver/Src/stm32f3xx_hal_dma.c ****   /* Release Lock */
 705:Drivers/STM32F3xx_HAL_Driver/Src/stm32f3xx_hal_dma.c ****   __HAL_UNLOCK(hdma);
 706:Drivers/STM32F3xx_HAL_Driver/Src/stm32f3xx_hal_dma.c ****   
 707:Drivers/STM32F3xx_HAL_Driver/Src/stm32f3xx_hal_dma.c ****   return status;
 708:Drivers/STM32F3xx_HAL_Driver/Src/stm32f3xx_hal_dma.c **** }
 709:Drivers/STM32F3xx_HAL_Driver/Src/stm32f3xx_hal_dma.c **** 
 710:Drivers/STM32F3xx_HAL_Driver/Src/stm32f3xx_hal_dma.c **** /**
 711:Drivers/STM32F3xx_HAL_Driver/Src/stm32f3xx_hal_dma.c ****   * @brief  UnRegister callbacks
 712:Drivers/STM32F3xx_HAL_Driver/Src/stm32f3xx_hal_dma.c ****   * @param  hdma:                 pointer to a DMA_HandleTypeDef structure that contains
 713:Drivers/STM32F3xx_HAL_Driver/Src/stm32f3xx_hal_dma.c ****   *                               the configuration information for the specified DMA Stream.
 714:Drivers/STM32F3xx_HAL_Driver/Src/stm32f3xx_hal_dma.c ****   * @param  CallbackID:           User Callback identifer
 715:Drivers/STM32F3xx_HAL_Driver/Src/stm32f3xx_hal_dma.c ****   *                               a HAL_DMA_CallbackIDTypeDef ENUM as parameter.
 716:Drivers/STM32F3xx_HAL_Driver/Src/stm32f3xx_hal_dma.c ****   * @retval HAL status
ARM GAS  /var/folders/p7/nwmyw04531jbkqkgv59cx10h0000gn/T//ccRzNwwu.s 			page 14


 717:Drivers/STM32F3xx_HAL_Driver/Src/stm32f3xx_hal_dma.c ****   */              
 718:Drivers/STM32F3xx_HAL_Driver/Src/stm32f3xx_hal_dma.c **** HAL_StatusTypeDef HAL_DMA_UnRegisterCallback(DMA_HandleTypeDef *hdma, HAL_DMA_CallbackIDTypeDef Cal
 719:Drivers/STM32F3xx_HAL_Driver/Src/stm32f3xx_hal_dma.c **** {
 720:Drivers/STM32F3xx_HAL_Driver/Src/stm32f3xx_hal_dma.c ****   HAL_StatusTypeDef status = HAL_OK;
 721:Drivers/STM32F3xx_HAL_Driver/Src/stm32f3xx_hal_dma.c **** 
 722:Drivers/STM32F3xx_HAL_Driver/Src/stm32f3xx_hal_dma.c ****     /* Process locked */
 723:Drivers/STM32F3xx_HAL_Driver/Src/stm32f3xx_hal_dma.c ****   __HAL_LOCK(hdma);
 724:Drivers/STM32F3xx_HAL_Driver/Src/stm32f3xx_hal_dma.c ****   
 725:Drivers/STM32F3xx_HAL_Driver/Src/stm32f3xx_hal_dma.c ****   if(HAL_DMA_STATE_READY == hdma->State)
 726:Drivers/STM32F3xx_HAL_Driver/Src/stm32f3xx_hal_dma.c ****   {
 727:Drivers/STM32F3xx_HAL_Driver/Src/stm32f3xx_hal_dma.c ****     switch (CallbackID)
 728:Drivers/STM32F3xx_HAL_Driver/Src/stm32f3xx_hal_dma.c ****     {
 729:Drivers/STM32F3xx_HAL_Driver/Src/stm32f3xx_hal_dma.c ****      case  HAL_DMA_XFER_CPLT_CB_ID:
 730:Drivers/STM32F3xx_HAL_Driver/Src/stm32f3xx_hal_dma.c ****            hdma->XferCpltCallback = NULL;
 731:Drivers/STM32F3xx_HAL_Driver/Src/stm32f3xx_hal_dma.c ****            break;
 732:Drivers/STM32F3xx_HAL_Driver/Src/stm32f3xx_hal_dma.c ****        
 733:Drivers/STM32F3xx_HAL_Driver/Src/stm32f3xx_hal_dma.c ****      case  HAL_DMA_XFER_HALFCPLT_CB_ID:
 734:Drivers/STM32F3xx_HAL_Driver/Src/stm32f3xx_hal_dma.c ****            hdma->XferHalfCpltCallback = NULL;
 735:Drivers/STM32F3xx_HAL_Driver/Src/stm32f3xx_hal_dma.c ****            break;         
 736:Drivers/STM32F3xx_HAL_Driver/Src/stm32f3xx_hal_dma.c **** 
 737:Drivers/STM32F3xx_HAL_Driver/Src/stm32f3xx_hal_dma.c ****      case  HAL_DMA_XFER_ERROR_CB_ID:
 738:Drivers/STM32F3xx_HAL_Driver/Src/stm32f3xx_hal_dma.c ****            hdma->XferErrorCallback = NULL;
 739:Drivers/STM32F3xx_HAL_Driver/Src/stm32f3xx_hal_dma.c ****            break;         
 740:Drivers/STM32F3xx_HAL_Driver/Src/stm32f3xx_hal_dma.c ****            
 741:Drivers/STM32F3xx_HAL_Driver/Src/stm32f3xx_hal_dma.c ****      case  HAL_DMA_XFER_ABORT_CB_ID:
 742:Drivers/STM32F3xx_HAL_Driver/Src/stm32f3xx_hal_dma.c ****            hdma->XferAbortCallback = NULL;
 743:Drivers/STM32F3xx_HAL_Driver/Src/stm32f3xx_hal_dma.c ****            break; 
 744:Drivers/STM32F3xx_HAL_Driver/Src/stm32f3xx_hal_dma.c ****      
 745:Drivers/STM32F3xx_HAL_Driver/Src/stm32f3xx_hal_dma.c ****     case   HAL_DMA_XFER_ALL_CB_ID:
 746:Drivers/STM32F3xx_HAL_Driver/Src/stm32f3xx_hal_dma.c ****            hdma->XferCpltCallback = NULL;
 747:Drivers/STM32F3xx_HAL_Driver/Src/stm32f3xx_hal_dma.c ****            hdma->XferHalfCpltCallback = NULL;
 748:Drivers/STM32F3xx_HAL_Driver/Src/stm32f3xx_hal_dma.c ****            hdma->XferErrorCallback = NULL;
 749:Drivers/STM32F3xx_HAL_Driver/Src/stm32f3xx_hal_dma.c ****            hdma->XferAbortCallback = NULL;
 750:Drivers/STM32F3xx_HAL_Driver/Src/stm32f3xx_hal_dma.c ****            break; 
 751:Drivers/STM32F3xx_HAL_Driver/Src/stm32f3xx_hal_dma.c ****      
 752:Drivers/STM32F3xx_HAL_Driver/Src/stm32f3xx_hal_dma.c ****     default:
 753:Drivers/STM32F3xx_HAL_Driver/Src/stm32f3xx_hal_dma.c ****            status = HAL_ERROR;
 754:Drivers/STM32F3xx_HAL_Driver/Src/stm32f3xx_hal_dma.c ****            break;                                                            
 755:Drivers/STM32F3xx_HAL_Driver/Src/stm32f3xx_hal_dma.c ****     }
 756:Drivers/STM32F3xx_HAL_Driver/Src/stm32f3xx_hal_dma.c ****   }
 757:Drivers/STM32F3xx_HAL_Driver/Src/stm32f3xx_hal_dma.c ****   else
 758:Drivers/STM32F3xx_HAL_Driver/Src/stm32f3xx_hal_dma.c ****   {
 759:Drivers/STM32F3xx_HAL_Driver/Src/stm32f3xx_hal_dma.c ****     status = HAL_ERROR;
 760:Drivers/STM32F3xx_HAL_Driver/Src/stm32f3xx_hal_dma.c ****   } 
 761:Drivers/STM32F3xx_HAL_Driver/Src/stm32f3xx_hal_dma.c ****   
 762:Drivers/STM32F3xx_HAL_Driver/Src/stm32f3xx_hal_dma.c ****   /* Release Lock */
 763:Drivers/STM32F3xx_HAL_Driver/Src/stm32f3xx_hal_dma.c ****   __HAL_UNLOCK(hdma);
 764:Drivers/STM32F3xx_HAL_Driver/Src/stm32f3xx_hal_dma.c ****   
 765:Drivers/STM32F3xx_HAL_Driver/Src/stm32f3xx_hal_dma.c ****   return status;
 766:Drivers/STM32F3xx_HAL_Driver/Src/stm32f3xx_hal_dma.c **** }
 767:Drivers/STM32F3xx_HAL_Driver/Src/stm32f3xx_hal_dma.c **** 
 768:Drivers/STM32F3xx_HAL_Driver/Src/stm32f3xx_hal_dma.c **** /**
 769:Drivers/STM32F3xx_HAL_Driver/Src/stm32f3xx_hal_dma.c ****   * @}
 770:Drivers/STM32F3xx_HAL_Driver/Src/stm32f3xx_hal_dma.c ****   */
 771:Drivers/STM32F3xx_HAL_Driver/Src/stm32f3xx_hal_dma.c **** 
 772:Drivers/STM32F3xx_HAL_Driver/Src/stm32f3xx_hal_dma.c **** /** @defgroup DMA_Exported_Functions_Group3 Peripheral State functions
 773:Drivers/STM32F3xx_HAL_Driver/Src/stm32f3xx_hal_dma.c ****  *  @brief    Peripheral State functions 
ARM GAS  /var/folders/p7/nwmyw04531jbkqkgv59cx10h0000gn/T//ccRzNwwu.s 			page 15


 774:Drivers/STM32F3xx_HAL_Driver/Src/stm32f3xx_hal_dma.c ****  *
 775:Drivers/STM32F3xx_HAL_Driver/Src/stm32f3xx_hal_dma.c **** @verbatim   
 776:Drivers/STM32F3xx_HAL_Driver/Src/stm32f3xx_hal_dma.c ****  ===============================================================================
 777:Drivers/STM32F3xx_HAL_Driver/Src/stm32f3xx_hal_dma.c ****                     ##### State and Errors functions #####
 778:Drivers/STM32F3xx_HAL_Driver/Src/stm32f3xx_hal_dma.c ****  ===============================================================================  
 779:Drivers/STM32F3xx_HAL_Driver/Src/stm32f3xx_hal_dma.c ****     [..]
 780:Drivers/STM32F3xx_HAL_Driver/Src/stm32f3xx_hal_dma.c ****     This subsection provides functions allowing to
 781:Drivers/STM32F3xx_HAL_Driver/Src/stm32f3xx_hal_dma.c ****       (+) Check the DMA state
 782:Drivers/STM32F3xx_HAL_Driver/Src/stm32f3xx_hal_dma.c ****       (+) Get error code
 783:Drivers/STM32F3xx_HAL_Driver/Src/stm32f3xx_hal_dma.c **** 
 784:Drivers/STM32F3xx_HAL_Driver/Src/stm32f3xx_hal_dma.c **** @endverbatim
 785:Drivers/STM32F3xx_HAL_Driver/Src/stm32f3xx_hal_dma.c ****   * @{
 786:Drivers/STM32F3xx_HAL_Driver/Src/stm32f3xx_hal_dma.c ****   */  
 787:Drivers/STM32F3xx_HAL_Driver/Src/stm32f3xx_hal_dma.c **** 
 788:Drivers/STM32F3xx_HAL_Driver/Src/stm32f3xx_hal_dma.c **** /**
 789:Drivers/STM32F3xx_HAL_Driver/Src/stm32f3xx_hal_dma.c ****   * @brief  Returns the DMA state.
 790:Drivers/STM32F3xx_HAL_Driver/Src/stm32f3xx_hal_dma.c ****   * @param  hdma: pointer to a DMA_HandleTypeDef structure that contains
 791:Drivers/STM32F3xx_HAL_Driver/Src/stm32f3xx_hal_dma.c ****   *               the configuration information for the specified DMA Channel.  
 792:Drivers/STM32F3xx_HAL_Driver/Src/stm32f3xx_hal_dma.c ****   * @retval HAL state
 793:Drivers/STM32F3xx_HAL_Driver/Src/stm32f3xx_hal_dma.c ****   */
 794:Drivers/STM32F3xx_HAL_Driver/Src/stm32f3xx_hal_dma.c **** HAL_DMA_StateTypeDef HAL_DMA_GetState(DMA_HandleTypeDef *hdma)
 795:Drivers/STM32F3xx_HAL_Driver/Src/stm32f3xx_hal_dma.c **** {
 796:Drivers/STM32F3xx_HAL_Driver/Src/stm32f3xx_hal_dma.c ****   return hdma->State;
 797:Drivers/STM32F3xx_HAL_Driver/Src/stm32f3xx_hal_dma.c **** }
 798:Drivers/STM32F3xx_HAL_Driver/Src/stm32f3xx_hal_dma.c **** 
 799:Drivers/STM32F3xx_HAL_Driver/Src/stm32f3xx_hal_dma.c **** /**
 800:Drivers/STM32F3xx_HAL_Driver/Src/stm32f3xx_hal_dma.c ****   * @brief  Return the DMA error code
 801:Drivers/STM32F3xx_HAL_Driver/Src/stm32f3xx_hal_dma.c ****   * @param  hdma : pointer to a DMA_HandleTypeDef structure that contains
 802:Drivers/STM32F3xx_HAL_Driver/Src/stm32f3xx_hal_dma.c ****   *              the configuration information for the specified DMA Channel.
 803:Drivers/STM32F3xx_HAL_Driver/Src/stm32f3xx_hal_dma.c ****   * @retval DMA Error Code
 804:Drivers/STM32F3xx_HAL_Driver/Src/stm32f3xx_hal_dma.c ****   */
 805:Drivers/STM32F3xx_HAL_Driver/Src/stm32f3xx_hal_dma.c **** uint32_t HAL_DMA_GetError(DMA_HandleTypeDef *hdma)
 806:Drivers/STM32F3xx_HAL_Driver/Src/stm32f3xx_hal_dma.c **** {
 807:Drivers/STM32F3xx_HAL_Driver/Src/stm32f3xx_hal_dma.c ****   return hdma->ErrorCode;
 808:Drivers/STM32F3xx_HAL_Driver/Src/stm32f3xx_hal_dma.c **** }
 809:Drivers/STM32F3xx_HAL_Driver/Src/stm32f3xx_hal_dma.c **** 
 810:Drivers/STM32F3xx_HAL_Driver/Src/stm32f3xx_hal_dma.c **** /**
 811:Drivers/STM32F3xx_HAL_Driver/Src/stm32f3xx_hal_dma.c ****   * @}
 812:Drivers/STM32F3xx_HAL_Driver/Src/stm32f3xx_hal_dma.c ****   */
 813:Drivers/STM32F3xx_HAL_Driver/Src/stm32f3xx_hal_dma.c **** 
 814:Drivers/STM32F3xx_HAL_Driver/Src/stm32f3xx_hal_dma.c **** /**
 815:Drivers/STM32F3xx_HAL_Driver/Src/stm32f3xx_hal_dma.c ****   * @}
 816:Drivers/STM32F3xx_HAL_Driver/Src/stm32f3xx_hal_dma.c ****   */
 817:Drivers/STM32F3xx_HAL_Driver/Src/stm32f3xx_hal_dma.c **** 
 818:Drivers/STM32F3xx_HAL_Driver/Src/stm32f3xx_hal_dma.c **** /** @addtogroup DMA_Private_Functions
 819:Drivers/STM32F3xx_HAL_Driver/Src/stm32f3xx_hal_dma.c ****   * @{
 820:Drivers/STM32F3xx_HAL_Driver/Src/stm32f3xx_hal_dma.c ****   */
 821:Drivers/STM32F3xx_HAL_Driver/Src/stm32f3xx_hal_dma.c **** 
 822:Drivers/STM32F3xx_HAL_Driver/Src/stm32f3xx_hal_dma.c **** /**
 823:Drivers/STM32F3xx_HAL_Driver/Src/stm32f3xx_hal_dma.c ****   * @brief  Set the DMA Transfer parameters.
 824:Drivers/STM32F3xx_HAL_Driver/Src/stm32f3xx_hal_dma.c ****   * @param  hdma:       pointer to a DMA_HandleTypeDef structure that contains
 825:Drivers/STM32F3xx_HAL_Driver/Src/stm32f3xx_hal_dma.c ****   *                     the configuration information for the specified DMA Channel.  
 826:Drivers/STM32F3xx_HAL_Driver/Src/stm32f3xx_hal_dma.c ****   * @param  SrcAddress: The source memory Buffer address
 827:Drivers/STM32F3xx_HAL_Driver/Src/stm32f3xx_hal_dma.c ****   * @param  DstAddress: The destination memory Buffer address
 828:Drivers/STM32F3xx_HAL_Driver/Src/stm32f3xx_hal_dma.c ****   * @param  DataLength: The length of data to be transferred from source to destination
 829:Drivers/STM32F3xx_HAL_Driver/Src/stm32f3xx_hal_dma.c ****   * @retval HAL status
 830:Drivers/STM32F3xx_HAL_Driver/Src/stm32f3xx_hal_dma.c ****   */
ARM GAS  /var/folders/p7/nwmyw04531jbkqkgv59cx10h0000gn/T//ccRzNwwu.s 			page 16


 831:Drivers/STM32F3xx_HAL_Driver/Src/stm32f3xx_hal_dma.c **** static void DMA_SetConfig(DMA_HandleTypeDef *hdma, uint32_t SrcAddress, uint32_t DstAddress, uint32
 832:Drivers/STM32F3xx_HAL_Driver/Src/stm32f3xx_hal_dma.c **** {
  27              		.loc 1 832 0
  28              		.cfi_startproc
  29              		@ args = 0, pretend = 0, frame = 0
  30              		@ frame_needed = 0, uses_anonymous_args = 0
  31              		@ link register save eliminated.
  32              	.LVL0:
  33 0000 70B4     		push	{r4, r5, r6}
  34              	.LCFI0:
  35              		.cfi_def_cfa_offset 12
  36              		.cfi_offset 4, -12
  37              		.cfi_offset 5, -8
  38              		.cfi_offset 6, -4
 833:Drivers/STM32F3xx_HAL_Driver/Src/stm32f3xx_hal_dma.c **** 	/* Clear all flags */
 834:Drivers/STM32F3xx_HAL_Driver/Src/stm32f3xx_hal_dma.c ****   hdma->DmaBaseAddress->IFCR  = (DMA_FLAG_GL1 << hdma->ChannelIndex);
  39              		.loc 1 834 0
  40 0002 C56B     		ldr	r5, [r0, #60]
  41 0004 066C     		ldr	r6, [r0, #64]
  42 0006 0124     		movs	r4, #1
  43 0008 B440     		lsls	r4, r4, r6
  44 000a 6C60     		str	r4, [r5, #4]
 835:Drivers/STM32F3xx_HAL_Driver/Src/stm32f3xx_hal_dma.c ****   
 836:Drivers/STM32F3xx_HAL_Driver/Src/stm32f3xx_hal_dma.c ****   /* Configure DMA Channel data length */
 837:Drivers/STM32F3xx_HAL_Driver/Src/stm32f3xx_hal_dma.c ****   hdma->Instance->CNDTR = DataLength;
  45              		.loc 1 837 0
  46 000c 0468     		ldr	r4, [r0]
  47 000e 6360     		str	r3, [r4, #4]
 838:Drivers/STM32F3xx_HAL_Driver/Src/stm32f3xx_hal_dma.c ****   
 839:Drivers/STM32F3xx_HAL_Driver/Src/stm32f3xx_hal_dma.c ****   /* Peripheral to Memory */
 840:Drivers/STM32F3xx_HAL_Driver/Src/stm32f3xx_hal_dma.c ****   if((hdma->Init.Direction) == DMA_MEMORY_TO_PERIPH)
  48              		.loc 1 840 0
  49 0010 4368     		ldr	r3, [r0, #4]
  50              	.LVL1:
  51 0012 102B     		cmp	r3, #16
  52 0014 05D0     		beq	.L5
 841:Drivers/STM32F3xx_HAL_Driver/Src/stm32f3xx_hal_dma.c ****   {   
 842:Drivers/STM32F3xx_HAL_Driver/Src/stm32f3xx_hal_dma.c ****     /* Configure DMA Channel destination address */
 843:Drivers/STM32F3xx_HAL_Driver/Src/stm32f3xx_hal_dma.c ****     hdma->Instance->CPAR = DstAddress;
 844:Drivers/STM32F3xx_HAL_Driver/Src/stm32f3xx_hal_dma.c ****     
 845:Drivers/STM32F3xx_HAL_Driver/Src/stm32f3xx_hal_dma.c ****     /* Configure DMA Channel source address */
 846:Drivers/STM32F3xx_HAL_Driver/Src/stm32f3xx_hal_dma.c ****     hdma->Instance->CMAR = SrcAddress;
 847:Drivers/STM32F3xx_HAL_Driver/Src/stm32f3xx_hal_dma.c ****   }
 848:Drivers/STM32F3xx_HAL_Driver/Src/stm32f3xx_hal_dma.c ****   /* Memory to Peripheral */
 849:Drivers/STM32F3xx_HAL_Driver/Src/stm32f3xx_hal_dma.c ****   else
 850:Drivers/STM32F3xx_HAL_Driver/Src/stm32f3xx_hal_dma.c ****   {
 851:Drivers/STM32F3xx_HAL_Driver/Src/stm32f3xx_hal_dma.c ****     /* Configure DMA Channel source address */
 852:Drivers/STM32F3xx_HAL_Driver/Src/stm32f3xx_hal_dma.c ****     hdma->Instance->CPAR = SrcAddress;
  53              		.loc 1 852 0
  54 0016 0368     		ldr	r3, [r0]
  55 0018 9960     		str	r1, [r3, #8]
  56              	.LVL2:
 853:Drivers/STM32F3xx_HAL_Driver/Src/stm32f3xx_hal_dma.c ****     
 854:Drivers/STM32F3xx_HAL_Driver/Src/stm32f3xx_hal_dma.c ****     /* Configure DMA Channel destination address */
 855:Drivers/STM32F3xx_HAL_Driver/Src/stm32f3xx_hal_dma.c ****     hdma->Instance->CMAR = DstAddress;
  57              		.loc 1 855 0
  58 001a 0368     		ldr	r3, [r0]
ARM GAS  /var/folders/p7/nwmyw04531jbkqkgv59cx10h0000gn/T//ccRzNwwu.s 			page 17


  59 001c DA60     		str	r2, [r3, #12]
  60              	.L1:
 856:Drivers/STM32F3xx_HAL_Driver/Src/stm32f3xx_hal_dma.c ****   }
 857:Drivers/STM32F3xx_HAL_Driver/Src/stm32f3xx_hal_dma.c **** }
  61              		.loc 1 857 0
  62 001e 70BC     		pop	{r4, r5, r6}
  63              	.LCFI1:
  64              		.cfi_remember_state
  65              		.cfi_restore 6
  66              		.cfi_restore 5
  67              		.cfi_restore 4
  68              		.cfi_def_cfa_offset 0
  69 0020 7047     		bx	lr
  70              	.LVL3:
  71              	.L5:
  72              	.LCFI2:
  73              		.cfi_restore_state
 843:Drivers/STM32F3xx_HAL_Driver/Src/stm32f3xx_hal_dma.c ****     
  74              		.loc 1 843 0
  75 0022 0368     		ldr	r3, [r0]
  76 0024 9A60     		str	r2, [r3, #8]
  77              	.LVL4:
 846:Drivers/STM32F3xx_HAL_Driver/Src/stm32f3xx_hal_dma.c ****   }
  78              		.loc 1 846 0
  79 0026 0368     		ldr	r3, [r0]
  80 0028 D960     		str	r1, [r3, #12]
  81 002a F8E7     		b	.L1
  82              		.cfi_endproc
  83              	.LFE136:
  85              		.section	.text.DMA_CalcBaseAndBitshift,"ax",%progbits
  86              		.align	1
  87              		.syntax unified
  88              		.thumb
  89              		.thumb_func
  90              		.fpu fpv4-sp-d16
  92              	DMA_CalcBaseAndBitshift:
  93              	.LFB137:
 858:Drivers/STM32F3xx_HAL_Driver/Src/stm32f3xx_hal_dma.c **** 
 859:Drivers/STM32F3xx_HAL_Driver/Src/stm32f3xx_hal_dma.c **** /**
 860:Drivers/STM32F3xx_HAL_Driver/Src/stm32f3xx_hal_dma.c ****   * @brief  Set the DMA base address and channel index depending on DMA instance
 861:Drivers/STM32F3xx_HAL_Driver/Src/stm32f3xx_hal_dma.c ****   * @param  hdma:       pointer to a DMA_HandleTypeDef structure that contains
 862:Drivers/STM32F3xx_HAL_Driver/Src/stm32f3xx_hal_dma.c ****   *                     the configuration information for the specified DMA Stream. 
 863:Drivers/STM32F3xx_HAL_Driver/Src/stm32f3xx_hal_dma.c ****   * @retval None
 864:Drivers/STM32F3xx_HAL_Driver/Src/stm32f3xx_hal_dma.c ****   */
 865:Drivers/STM32F3xx_HAL_Driver/Src/stm32f3xx_hal_dma.c **** static void DMA_CalcBaseAndBitshift(DMA_HandleTypeDef *hdma)
 866:Drivers/STM32F3xx_HAL_Driver/Src/stm32f3xx_hal_dma.c **** {
  94              		.loc 1 866 0
  95              		.cfi_startproc
  96              		@ args = 0, pretend = 0, frame = 0
  97              		@ frame_needed = 0, uses_anonymous_args = 0
  98              		@ link register save eliminated.
  99              	.LVL5:
 867:Drivers/STM32F3xx_HAL_Driver/Src/stm32f3xx_hal_dma.c **** #if defined (DMA2)
 868:Drivers/STM32F3xx_HAL_Driver/Src/stm32f3xx_hal_dma.c ****   /* calculation of the channel index */
 869:Drivers/STM32F3xx_HAL_Driver/Src/stm32f3xx_hal_dma.c ****   if ((uint32_t)(hdma->Instance) < (uint32_t)(DMA2_Channel1))
 870:Drivers/STM32F3xx_HAL_Driver/Src/stm32f3xx_hal_dma.c ****   {
 871:Drivers/STM32F3xx_HAL_Driver/Src/stm32f3xx_hal_dma.c ****     /* DMA1 */
ARM GAS  /var/folders/p7/nwmyw04531jbkqkgv59cx10h0000gn/T//ccRzNwwu.s 			page 18


 872:Drivers/STM32F3xx_HAL_Driver/Src/stm32f3xx_hal_dma.c ****     hdma->ChannelIndex = (((uint32_t)hdma->Instance - (uint32_t)DMA1_Channel1) / ((uint32_t)DMA1_Ch
 873:Drivers/STM32F3xx_HAL_Driver/Src/stm32f3xx_hal_dma.c ****     hdma->DmaBaseAddress = DMA1;
 874:Drivers/STM32F3xx_HAL_Driver/Src/stm32f3xx_hal_dma.c ****   }
 875:Drivers/STM32F3xx_HAL_Driver/Src/stm32f3xx_hal_dma.c ****   else 
 876:Drivers/STM32F3xx_HAL_Driver/Src/stm32f3xx_hal_dma.c ****   {
 877:Drivers/STM32F3xx_HAL_Driver/Src/stm32f3xx_hal_dma.c ****     /* DMA2 */
 878:Drivers/STM32F3xx_HAL_Driver/Src/stm32f3xx_hal_dma.c ****     hdma->ChannelIndex = (((uint32_t)hdma->Instance - (uint32_t)DMA2_Channel1) / ((uint32_t)DMA2_Ch
 879:Drivers/STM32F3xx_HAL_Driver/Src/stm32f3xx_hal_dma.c ****     hdma->DmaBaseAddress = DMA2;
 880:Drivers/STM32F3xx_HAL_Driver/Src/stm32f3xx_hal_dma.c ****   }
 881:Drivers/STM32F3xx_HAL_Driver/Src/stm32f3xx_hal_dma.c **** #else
 882:Drivers/STM32F3xx_HAL_Driver/Src/stm32f3xx_hal_dma.c ****   /* calculation of the channel index */
 883:Drivers/STM32F3xx_HAL_Driver/Src/stm32f3xx_hal_dma.c ****   /* DMA1 */
 884:Drivers/STM32F3xx_HAL_Driver/Src/stm32f3xx_hal_dma.c ****   hdma->ChannelIndex = (((uint32_t)hdma->Instance - (uint32_t)DMA1_Channel1) / ((uint32_t)DMA1_Chan
 100              		.loc 1 884 0
 101 0000 0268     		ldr	r2, [r0]
 102 0002 054B     		ldr	r3, .L7
 103 0004 1344     		add	r3, r3, r2
 104 0006 054A     		ldr	r2, .L7+4
 105 0008 A2FB0323 		umull	r2, r3, r2, r3
 106 000c 1B09     		lsrs	r3, r3, #4
 107 000e 9B00     		lsls	r3, r3, #2
 108 0010 0364     		str	r3, [r0, #64]
 885:Drivers/STM32F3xx_HAL_Driver/Src/stm32f3xx_hal_dma.c ****   hdma->DmaBaseAddress = DMA1;
 109              		.loc 1 885 0
 110 0012 034B     		ldr	r3, .L7+8
 111 0014 C363     		str	r3, [r0, #60]
 112 0016 7047     		bx	lr
 113              	.L8:
 114              		.align	2
 115              	.L7:
 116 0018 F8FFFDBF 		.word	-1073872904
 117 001c CDCCCCCC 		.word	-858993459
 118 0020 00000240 		.word	1073872896
 119              		.cfi_endproc
 120              	.LFE137:
 122              		.section	.text.HAL_DMA_Init,"ax",%progbits
 123              		.align	1
 124              		.global	HAL_DMA_Init
 125              		.syntax unified
 126              		.thumb
 127              		.thumb_func
 128              		.fpu fpv4-sp-d16
 130              	HAL_DMA_Init:
 131              	.LFB124:
 156:Drivers/STM32F3xx_HAL_Driver/Src/stm32f3xx_hal_dma.c ****   uint32_t tmp = 0U;
 132              		.loc 1 156 0
 133              		.cfi_startproc
 134              		@ args = 0, pretend = 0, frame = 0
 135              		@ frame_needed = 0, uses_anonymous_args = 0
 136              	.LVL6:
 160:Drivers/STM32F3xx_HAL_Driver/Src/stm32f3xx_hal_dma.c ****   {
 137              		.loc 1 160 0
 138 0000 40B3     		cbz	r0, .L11
 156:Drivers/STM32F3xx_HAL_Driver/Src/stm32f3xx_hal_dma.c ****   uint32_t tmp = 0U;
 139              		.loc 1 156 0
 140 0002 10B5     		push	{r4, lr}
 141              	.LCFI3:
ARM GAS  /var/folders/p7/nwmyw04531jbkqkgv59cx10h0000gn/T//ccRzNwwu.s 			page 19


 142              		.cfi_def_cfa_offset 8
 143              		.cfi_offset 4, -8
 144              		.cfi_offset 14, -4
 145 0004 0446     		mov	r4, r0
 176:Drivers/STM32F3xx_HAL_Driver/Src/stm32f3xx_hal_dma.c **** 
 146              		.loc 1 176 0
 147 0006 0223     		movs	r3, #2
 148 0008 80F82130 		strb	r3, [r0, #33]
 179:Drivers/STM32F3xx_HAL_Driver/Src/stm32f3xx_hal_dma.c ****   
 149              		.loc 1 179 0
 150 000c 0168     		ldr	r1, [r0]
 151 000e 0A68     		ldr	r2, [r1]
 152              	.LVL7:
 182:Drivers/STM32F3xx_HAL_Driver/Src/stm32f3xx_hal_dma.c ****                       DMA_CCR_MINC  | DMA_CCR_PINC   | DMA_CCR_CIRC   | \
 153              		.loc 1 182 0
 154 0010 22F47F52 		bic	r2, r2, #16320
 155              	.LVL8:
 156 0014 22F03002 		bic	r2, r2, #48
 157              	.LVL9:
 187:Drivers/STM32F3xx_HAL_Driver/Src/stm32f3xx_hal_dma.c ****           hdma->Init.PeriphInc           | hdma->Init.MemInc           |
 158              		.loc 1 187 0
 159 0018 4368     		ldr	r3, [r0, #4]
 188:Drivers/STM32F3xx_HAL_Driver/Src/stm32f3xx_hal_dma.c ****           hdma->Init.PeriphDataAlignment | hdma->Init.MemDataAlignment |
 160              		.loc 1 188 0
 161 001a 8068     		ldr	r0, [r0, #8]
 162              	.LVL10:
 187:Drivers/STM32F3xx_HAL_Driver/Src/stm32f3xx_hal_dma.c ****           hdma->Init.PeriphInc           | hdma->Init.MemInc           |
 163              		.loc 1 187 0
 164 001c 0343     		orrs	r3, r3, r0
 188:Drivers/STM32F3xx_HAL_Driver/Src/stm32f3xx_hal_dma.c ****           hdma->Init.PeriphDataAlignment | hdma->Init.MemDataAlignment |
 165              		.loc 1 188 0
 166 001e E068     		ldr	r0, [r4, #12]
 167 0020 0343     		orrs	r3, r3, r0
 189:Drivers/STM32F3xx_HAL_Driver/Src/stm32f3xx_hal_dma.c ****           hdma->Init.Mode                | hdma->Init.Priority;
 168              		.loc 1 189 0
 169 0022 2069     		ldr	r0, [r4, #16]
 188:Drivers/STM32F3xx_HAL_Driver/Src/stm32f3xx_hal_dma.c ****           hdma->Init.PeriphDataAlignment | hdma->Init.MemDataAlignment |
 170              		.loc 1 188 0
 171 0024 0343     		orrs	r3, r3, r0
 189:Drivers/STM32F3xx_HAL_Driver/Src/stm32f3xx_hal_dma.c ****           hdma->Init.Mode                | hdma->Init.Priority;
 172              		.loc 1 189 0
 173 0026 6069     		ldr	r0, [r4, #20]
 174 0028 0343     		orrs	r3, r3, r0
 190:Drivers/STM32F3xx_HAL_Driver/Src/stm32f3xx_hal_dma.c **** 
 175              		.loc 1 190 0
 176 002a A069     		ldr	r0, [r4, #24]
 189:Drivers/STM32F3xx_HAL_Driver/Src/stm32f3xx_hal_dma.c ****           hdma->Init.Mode                | hdma->Init.Priority;
 177              		.loc 1 189 0
 178 002c 0343     		orrs	r3, r3, r0
 190:Drivers/STM32F3xx_HAL_Driver/Src/stm32f3xx_hal_dma.c **** 
 179              		.loc 1 190 0
 180 002e E069     		ldr	r0, [r4, #28]
 181 0030 0343     		orrs	r3, r3, r0
 187:Drivers/STM32F3xx_HAL_Driver/Src/stm32f3xx_hal_dma.c ****           hdma->Init.PeriphInc           | hdma->Init.MemInc           |
 182              		.loc 1 187 0
 183 0032 1343     		orrs	r3, r3, r2
 184              	.LVL11:
ARM GAS  /var/folders/p7/nwmyw04531jbkqkgv59cx10h0000gn/T//ccRzNwwu.s 			page 20


 193:Drivers/STM32F3xx_HAL_Driver/Src/stm32f3xx_hal_dma.c ****   
 185              		.loc 1 193 0
 186 0034 0B60     		str	r3, [r1]
 197:Drivers/STM32F3xx_HAL_Driver/Src/stm32f3xx_hal_dma.c ****   
 187              		.loc 1 197 0
 188 0036 2046     		mov	r0, r4
 189 0038 FFF7FEFF 		bl	DMA_CalcBaseAndBitshift
 190              	.LVL12:
 200:Drivers/STM32F3xx_HAL_Driver/Src/stm32f3xx_hal_dma.c ****   hdma->XferHalfCpltCallback = NULL;
 191              		.loc 1 200 0
 192 003c 0020     		movs	r0, #0
 193 003e A062     		str	r0, [r4, #40]
 201:Drivers/STM32F3xx_HAL_Driver/Src/stm32f3xx_hal_dma.c ****   hdma->XferErrorCallback = NULL;
 194              		.loc 1 201 0
 195 0040 E062     		str	r0, [r4, #44]
 202:Drivers/STM32F3xx_HAL_Driver/Src/stm32f3xx_hal_dma.c ****   hdma->XferAbortCallback = NULL;
 196              		.loc 1 202 0
 197 0042 2063     		str	r0, [r4, #48]
 203:Drivers/STM32F3xx_HAL_Driver/Src/stm32f3xx_hal_dma.c ****   
 198              		.loc 1 203 0
 199 0044 6063     		str	r0, [r4, #52]
 206:Drivers/STM32F3xx_HAL_Driver/Src/stm32f3xx_hal_dma.c **** 
 200              		.loc 1 206 0
 201 0046 A063     		str	r0, [r4, #56]
 209:Drivers/STM32F3xx_HAL_Driver/Src/stm32f3xx_hal_dma.c ****   
 202              		.loc 1 209 0
 203 0048 0123     		movs	r3, #1
 204 004a 84F82130 		strb	r3, [r4, #33]
 212:Drivers/STM32F3xx_HAL_Driver/Src/stm32f3xx_hal_dma.c ****   
 205              		.loc 1 212 0
 206 004e 84F82000 		strb	r0, [r4, #32]
 214:Drivers/STM32F3xx_HAL_Driver/Src/stm32f3xx_hal_dma.c **** }  
 207              		.loc 1 214 0
 208 0052 10BD     		pop	{r4, pc}
 209              	.LVL13:
 210              	.L11:
 211              	.LCFI4:
 212              		.cfi_def_cfa_offset 0
 213              		.cfi_restore 4
 214              		.cfi_restore 14
 162:Drivers/STM32F3xx_HAL_Driver/Src/stm32f3xx_hal_dma.c ****   }
 215              		.loc 1 162 0
 216 0054 0120     		movs	r0, #1
 217              	.LVL14:
 218 0056 7047     		bx	lr
 219              		.cfi_endproc
 220              	.LFE124:
 222              		.section	.text.HAL_DMA_DeInit,"ax",%progbits
 223              		.align	1
 224              		.global	HAL_DMA_DeInit
 225              		.syntax unified
 226              		.thumb
 227              		.thumb_func
 228              		.fpu fpv4-sp-d16
 230              	HAL_DMA_DeInit:
 231              	.LFB125:
 224:Drivers/STM32F3xx_HAL_Driver/Src/stm32f3xx_hal_dma.c ****   /* Check the DMA handle allocation */
ARM GAS  /var/folders/p7/nwmyw04531jbkqkgv59cx10h0000gn/T//ccRzNwwu.s 			page 21


 232              		.loc 1 224 0
 233              		.cfi_startproc
 234              		@ args = 0, pretend = 0, frame = 0
 235              		@ frame_needed = 0, uses_anonymous_args = 0
 236              	.LVL15:
 226:Drivers/STM32F3xx_HAL_Driver/Src/stm32f3xx_hal_dma.c ****   {
 237              		.loc 1 226 0
 238 0000 E8B1     		cbz	r0, .L18
 224:Drivers/STM32F3xx_HAL_Driver/Src/stm32f3xx_hal_dma.c ****   /* Check the DMA handle allocation */
 239              		.loc 1 224 0
 240 0002 38B5     		push	{r3, r4, r5, lr}
 241              	.LCFI5:
 242              		.cfi_def_cfa_offset 16
 243              		.cfi_offset 3, -16
 244              		.cfi_offset 4, -12
 245              		.cfi_offset 5, -8
 246              		.cfi_offset 14, -4
 247 0004 0446     		mov	r4, r0
 235:Drivers/STM32F3xx_HAL_Driver/Src/stm32f3xx_hal_dma.c **** 
 248              		.loc 1 235 0
 249 0006 0268     		ldr	r2, [r0]
 250 0008 1368     		ldr	r3, [r2]
 251 000a 23F00103 		bic	r3, r3, #1
 252 000e 1360     		str	r3, [r2]
 238:Drivers/STM32F3xx_HAL_Driver/Src/stm32f3xx_hal_dma.c **** 
 253              		.loc 1 238 0
 254 0010 0368     		ldr	r3, [r0]
 255 0012 0025     		movs	r5, #0
 256 0014 1D60     		str	r5, [r3]
 241:Drivers/STM32F3xx_HAL_Driver/Src/stm32f3xx_hal_dma.c **** 
 257              		.loc 1 241 0
 258 0016 0368     		ldr	r3, [r0]
 259 0018 5D60     		str	r5, [r3, #4]
 244:Drivers/STM32F3xx_HAL_Driver/Src/stm32f3xx_hal_dma.c ****   
 260              		.loc 1 244 0
 261 001a 0368     		ldr	r3, [r0]
 262 001c 9D60     		str	r5, [r3, #8]
 247:Drivers/STM32F3xx_HAL_Driver/Src/stm32f3xx_hal_dma.c **** 
 263              		.loc 1 247 0
 264 001e 0368     		ldr	r3, [r0]
 265 0020 DD60     		str	r5, [r3, #12]
 250:Drivers/STM32F3xx_HAL_Driver/Src/stm32f3xx_hal_dma.c **** 
 266              		.loc 1 250 0
 267 0022 FFF7FEFF 		bl	DMA_CalcBaseAndBitshift
 268              	.LVL16:
 253:Drivers/STM32F3xx_HAL_Driver/Src/stm32f3xx_hal_dma.c **** 
 269              		.loc 1 253 0
 270 0026 E26B     		ldr	r2, [r4, #60]
 271 0028 216C     		ldr	r1, [r4, #64]
 272 002a 0123     		movs	r3, #1
 273 002c 8B40     		lsls	r3, r3, r1
 274 002e 5360     		str	r3, [r2, #4]
 256:Drivers/STM32F3xx_HAL_Driver/Src/stm32f3xx_hal_dma.c **** 
 275              		.loc 1 256 0
 276 0030 A563     		str	r5, [r4, #56]
 259:Drivers/STM32F3xx_HAL_Driver/Src/stm32f3xx_hal_dma.c **** 
 277              		.loc 1 259 0
ARM GAS  /var/folders/p7/nwmyw04531jbkqkgv59cx10h0000gn/T//ccRzNwwu.s 			page 22


 278 0032 84F82150 		strb	r5, [r4, #33]
 262:Drivers/STM32F3xx_HAL_Driver/Src/stm32f3xx_hal_dma.c **** 
 279              		.loc 1 262 0
 280 0036 84F82050 		strb	r5, [r4, #32]
 264:Drivers/STM32F3xx_HAL_Driver/Src/stm32f3xx_hal_dma.c **** }
 281              		.loc 1 264 0
 282 003a 2846     		mov	r0, r5
 283 003c 38BD     		pop	{r3, r4, r5, pc}
 284              	.LVL17:
 285              	.L18:
 286              	.LCFI6:
 287              		.cfi_def_cfa_offset 0
 288              		.cfi_restore 3
 289              		.cfi_restore 4
 290              		.cfi_restore 5
 291              		.cfi_restore 14
 228:Drivers/STM32F3xx_HAL_Driver/Src/stm32f3xx_hal_dma.c ****   }
 292              		.loc 1 228 0
 293 003e 0120     		movs	r0, #1
 294              	.LVL18:
 295 0040 7047     		bx	lr
 296              		.cfi_endproc
 297              	.LFE125:
 299              		.section	.text.HAL_DMA_Start,"ax",%progbits
 300              		.align	1
 301              		.global	HAL_DMA_Start
 302              		.syntax unified
 303              		.thumb
 304              		.thumb_func
 305              		.fpu fpv4-sp-d16
 307              	HAL_DMA_Start:
 308              	.LFB126:
 300:Drivers/STM32F3xx_HAL_Driver/Src/stm32f3xx_hal_dma.c **** 	HAL_StatusTypeDef status = HAL_OK;
 309              		.loc 1 300 0
 310              		.cfi_startproc
 311              		@ args = 0, pretend = 0, frame = 0
 312              		@ frame_needed = 0, uses_anonymous_args = 0
 313              	.LVL19:
 314 0000 70B5     		push	{r4, r5, r6, lr}
 315              	.LCFI7:
 316              		.cfi_def_cfa_offset 16
 317              		.cfi_offset 4, -16
 318              		.cfi_offset 5, -12
 319              		.cfi_offset 6, -8
 320              		.cfi_offset 14, -4
 321              	.LVL20:
 307:Drivers/STM32F3xx_HAL_Driver/Src/stm32f3xx_hal_dma.c ****   
 322              		.loc 1 307 0
 323 0002 90F82040 		ldrb	r4, [r0, #32]	@ zero_extendqisi2
 324 0006 012C     		cmp	r4, #1
 325 0008 20D0     		beq	.L26
 307:Drivers/STM32F3xx_HAL_Driver/Src/stm32f3xx_hal_dma.c ****   
 326              		.loc 1 307 0 is_stmt 0 discriminator 2
 327 000a 0124     		movs	r4, #1
 328 000c 80F82040 		strb	r4, [r0, #32]
 309:Drivers/STM32F3xx_HAL_Driver/Src/stm32f3xx_hal_dma.c ****   {
 329              		.loc 1 309 0 is_stmt 1 discriminator 2
ARM GAS  /var/folders/p7/nwmyw04531jbkqkgv59cx10h0000gn/T//ccRzNwwu.s 			page 23


 330 0010 90F82140 		ldrb	r4, [r0, #33]	@ zero_extendqisi2
 331 0014 012C     		cmp	r4, #1
 332 0016 04D0     		beq	.L28
 328:Drivers/STM32F3xx_HAL_Driver/Src/stm32f3xx_hal_dma.c ****   	
 333              		.loc 1 328 0
 334 0018 0023     		movs	r3, #0
 335              	.LVL21:
 336 001a 80F82030 		strb	r3, [r0, #32]
 337              	.LVL22:
 331:Drivers/STM32F3xx_HAL_Driver/Src/stm32f3xx_hal_dma.c ****   }  
 338              		.loc 1 331 0
 339 001e 0220     		movs	r0, #2
 340              	.LVL23:
 341 0020 70BD     		pop	{r4, r5, r6, pc}
 342              	.LVL24:
 343              	.L28:
 344 0022 0446     		mov	r4, r0
 312:Drivers/STM32F3xx_HAL_Driver/Src/stm32f3xx_hal_dma.c ****   	
 345              		.loc 1 312 0
 346 0024 0220     		movs	r0, #2
 347              	.LVL25:
 348 0026 84F82100 		strb	r0, [r4, #33]
 314:Drivers/STM32F3xx_HAL_Driver/Src/stm32f3xx_hal_dma.c ****   	
 349              		.loc 1 314 0
 350 002a 0025     		movs	r5, #0
 351 002c A563     		str	r5, [r4, #56]
 317:Drivers/STM32F3xx_HAL_Driver/Src/stm32f3xx_hal_dma.c ****   	
 352              		.loc 1 317 0
 353 002e 2668     		ldr	r6, [r4]
 354 0030 3068     		ldr	r0, [r6]
 355 0032 20F00100 		bic	r0, r0, #1
 356 0036 3060     		str	r0, [r6]
 320:Drivers/STM32F3xx_HAL_Driver/Src/stm32f3xx_hal_dma.c ****   	
 357              		.loc 1 320 0
 358 0038 2046     		mov	r0, r4
 359 003a FFF7FEFF 		bl	DMA_SetConfig
 360              	.LVL26:
 323:Drivers/STM32F3xx_HAL_Driver/Src/stm32f3xx_hal_dma.c ****   }
 361              		.loc 1 323 0
 362 003e 2268     		ldr	r2, [r4]
 363 0040 1368     		ldr	r3, [r2]
 364 0042 43F00103 		orr	r3, r3, #1
 365 0046 1360     		str	r3, [r2]
 301:Drivers/STM32F3xx_HAL_Driver/Src/stm32f3xx_hal_dma.c **** 
 366              		.loc 1 301 0
 367 0048 2846     		mov	r0, r5
 368 004a 70BD     		pop	{r4, r5, r6, pc}
 369              	.LVL27:
 370              	.L26:
 307:Drivers/STM32F3xx_HAL_Driver/Src/stm32f3xx_hal_dma.c ****   
 371              		.loc 1 307 0
 372 004c 0220     		movs	r0, #2
 373              	.LVL28:
 335:Drivers/STM32F3xx_HAL_Driver/Src/stm32f3xx_hal_dma.c **** 
 374              		.loc 1 335 0
 375 004e 70BD     		pop	{r4, r5, r6, pc}
 376              		.cfi_endproc
ARM GAS  /var/folders/p7/nwmyw04531jbkqkgv59cx10h0000gn/T//ccRzNwwu.s 			page 24


 377              	.LFE126:
 379              		.section	.text.HAL_DMA_Start_IT,"ax",%progbits
 380              		.align	1
 381              		.global	HAL_DMA_Start_IT
 382              		.syntax unified
 383              		.thumb
 384              		.thumb_func
 385              		.fpu fpv4-sp-d16
 387              	HAL_DMA_Start_IT:
 388              	.LFB127:
 347:Drivers/STM32F3xx_HAL_Driver/Src/stm32f3xx_hal_dma.c **** 	HAL_StatusTypeDef status = HAL_OK;
 389              		.loc 1 347 0
 390              		.cfi_startproc
 391              		@ args = 0, pretend = 0, frame = 0
 392              		@ frame_needed = 0, uses_anonymous_args = 0
 393              	.LVL29:
 394 0000 38B5     		push	{r3, r4, r5, lr}
 395              	.LCFI8:
 396              		.cfi_def_cfa_offset 16
 397              		.cfi_offset 3, -16
 398              		.cfi_offset 4, -12
 399              		.cfi_offset 5, -8
 400              		.cfi_offset 14, -4
 401              	.LVL30:
 354:Drivers/STM32F3xx_HAL_Driver/Src/stm32f3xx_hal_dma.c ****   
 402              		.loc 1 354 0
 403 0002 90F82040 		ldrb	r4, [r0, #32]	@ zero_extendqisi2
 404 0006 012C     		cmp	r4, #1
 405 0008 32D0     		beq	.L34
 354:Drivers/STM32F3xx_HAL_Driver/Src/stm32f3xx_hal_dma.c ****   
 406              		.loc 1 354 0 is_stmt 0 discriminator 2
 407 000a 0124     		movs	r4, #1
 408 000c 80F82040 		strb	r4, [r0, #32]
 356:Drivers/STM32F3xx_HAL_Driver/Src/stm32f3xx_hal_dma.c ****   {
 409              		.loc 1 356 0 is_stmt 1 discriminator 2
 410 0010 90F82140 		ldrb	r4, [r0, #33]	@ zero_extendqisi2
 411 0014 012C     		cmp	r4, #1
 412 0016 04D0     		beq	.L36
 387:Drivers/STM32F3xx_HAL_Driver/Src/stm32f3xx_hal_dma.c ****   
 413              		.loc 1 387 0
 414 0018 0023     		movs	r3, #0
 415              	.LVL31:
 416 001a 80F82030 		strb	r3, [r0, #32]
 417              	.LVL32:
 390:Drivers/STM32F3xx_HAL_Driver/Src/stm32f3xx_hal_dma.c ****   }     
 418              		.loc 1 390 0
 419 001e 0220     		movs	r0, #2
 420              	.LVL33:
 421 0020 38BD     		pop	{r3, r4, r5, pc}
 422              	.LVL34:
 423              	.L36:
 424 0022 0446     		mov	r4, r0
 359:Drivers/STM32F3xx_HAL_Driver/Src/stm32f3xx_hal_dma.c ****   	
 425              		.loc 1 359 0
 426 0024 0220     		movs	r0, #2
 427              	.LVL35:
 428 0026 84F82100 		strb	r0, [r4, #33]
ARM GAS  /var/folders/p7/nwmyw04531jbkqkgv59cx10h0000gn/T//ccRzNwwu.s 			page 25


 361:Drivers/STM32F3xx_HAL_Driver/Src/stm32f3xx_hal_dma.c ****   	
 429              		.loc 1 361 0
 430 002a 0020     		movs	r0, #0
 431 002c A063     		str	r0, [r4, #56]
 364:Drivers/STM32F3xx_HAL_Driver/Src/stm32f3xx_hal_dma.c ****   	
 432              		.loc 1 364 0
 433 002e 2568     		ldr	r5, [r4]
 434 0030 2868     		ldr	r0, [r5]
 435 0032 20F00100 		bic	r0, r0, #1
 436 0036 2860     		str	r0, [r5]
 367:Drivers/STM32F3xx_HAL_Driver/Src/stm32f3xx_hal_dma.c ****   	
 437              		.loc 1 367 0
 438 0038 2046     		mov	r0, r4
 439 003a FFF7FEFF 		bl	DMA_SetConfig
 440              	.LVL36:
 371:Drivers/STM32F3xx_HAL_Driver/Src/stm32f3xx_hal_dma.c ****     {
 441              		.loc 1 371 0
 442 003e E36A     		ldr	r3, [r4, #44]
 443 0040 5BB1     		cbz	r3, .L32
 373:Drivers/STM32F3xx_HAL_Driver/Src/stm32f3xx_hal_dma.c ****     }
 444              		.loc 1 373 0
 445 0042 2268     		ldr	r2, [r4]
 446 0044 1368     		ldr	r3, [r2]
 447 0046 43F00E03 		orr	r3, r3, #14
 448 004a 1360     		str	r3, [r2]
 449              	.L33:
 382:Drivers/STM32F3xx_HAL_Driver/Src/stm32f3xx_hal_dma.c ****   }
 450              		.loc 1 382 0
 451 004c 2268     		ldr	r2, [r4]
 452 004e 1368     		ldr	r3, [r2]
 453 0050 43F00103 		orr	r3, r3, #1
 454 0054 1360     		str	r3, [r2]
 348:Drivers/STM32F3xx_HAL_Driver/Src/stm32f3xx_hal_dma.c **** 
 455              		.loc 1 348 0
 456 0056 0020     		movs	r0, #0
 457 0058 38BD     		pop	{r3, r4, r5, pc}
 458              	.LVL37:
 459              	.L32:
 377:Drivers/STM32F3xx_HAL_Driver/Src/stm32f3xx_hal_dma.c ****   		hdma->Instance->CCR &= ~DMA_IT_HT;
 460              		.loc 1 377 0
 461 005a 2268     		ldr	r2, [r4]
 462 005c 1368     		ldr	r3, [r2]
 463 005e 43F00A03 		orr	r3, r3, #10
 464 0062 1360     		str	r3, [r2]
 378:Drivers/STM32F3xx_HAL_Driver/Src/stm32f3xx_hal_dma.c ****   	}
 465              		.loc 1 378 0
 466 0064 2268     		ldr	r2, [r4]
 467 0066 1368     		ldr	r3, [r2]
 468 0068 23F00403 		bic	r3, r3, #4
 469 006c 1360     		str	r3, [r2]
 470 006e EDE7     		b	.L33
 471              	.LVL38:
 472              	.L34:
 354:Drivers/STM32F3xx_HAL_Driver/Src/stm32f3xx_hal_dma.c ****   
 473              		.loc 1 354 0
 474 0070 0220     		movs	r0, #2
 475              	.LVL39:
ARM GAS  /var/folders/p7/nwmyw04531jbkqkgv59cx10h0000gn/T//ccRzNwwu.s 			page 26


 394:Drivers/STM32F3xx_HAL_Driver/Src/stm32f3xx_hal_dma.c **** 
 476              		.loc 1 394 0
 477 0072 38BD     		pop	{r3, r4, r5, pc}
 478              		.cfi_endproc
 479              	.LFE127:
 481              		.section	.text.HAL_DMA_Abort,"ax",%progbits
 482              		.align	1
 483              		.global	HAL_DMA_Abort
 484              		.syntax unified
 485              		.thumb
 486              		.thumb_func
 487              		.fpu fpv4-sp-d16
 489              	HAL_DMA_Abort:
 490              	.LFB128:
 403:Drivers/STM32F3xx_HAL_Driver/Src/stm32f3xx_hal_dma.c **** 	/* Disable DMA IT */
 491              		.loc 1 403 0
 492              		.cfi_startproc
 493              		@ args = 0, pretend = 0, frame = 0
 494              		@ frame_needed = 0, uses_anonymous_args = 0
 495              		@ link register save eliminated.
 496              	.LVL40:
 497 0000 0346     		mov	r3, r0
 405:Drivers/STM32F3xx_HAL_Driver/Src/stm32f3xx_hal_dma.c **** 	
 498              		.loc 1 405 0
 499 0002 0168     		ldr	r1, [r0]
 500 0004 0A68     		ldr	r2, [r1]
 501 0006 22F00E02 		bic	r2, r2, #14
 502 000a 0A60     		str	r2, [r1]
 408:Drivers/STM32F3xx_HAL_Driver/Src/stm32f3xx_hal_dma.c **** 	
 503              		.loc 1 408 0
 504 000c 0168     		ldr	r1, [r0]
 505 000e 0A68     		ldr	r2, [r1]
 506 0010 22F00102 		bic	r2, r2, #1
 507 0014 0A60     		str	r2, [r1]
 411:Drivers/STM32F3xx_HAL_Driver/Src/stm32f3xx_hal_dma.c **** 	
 508              		.loc 1 411 0
 509 0016 C06B     		ldr	r0, [r0, #60]
 510              	.LVL41:
 511 0018 1A6C     		ldr	r2, [r3, #64]
 512 001a 0121     		movs	r1, #1
 513 001c 01FA02F2 		lsl	r2, r1, r2
 514 0020 4260     		str	r2, [r0, #4]
 414:Drivers/STM32F3xx_HAL_Driver/Src/stm32f3xx_hal_dma.c **** 	
 515              		.loc 1 414 0
 516 0022 83F82110 		strb	r1, [r3, #33]
 417:Drivers/STM32F3xx_HAL_Driver/Src/stm32f3xx_hal_dma.c **** 	
 517              		.loc 1 417 0
 518 0026 0020     		movs	r0, #0
 519 0028 83F82000 		strb	r0, [r3, #32]
 420:Drivers/STM32F3xx_HAL_Driver/Src/stm32f3xx_hal_dma.c **** 
 520              		.loc 1 420 0
 521 002c 7047     		bx	lr
 522              		.cfi_endproc
 523              	.LFE128:
 525              		.section	.text.HAL_DMA_Abort_IT,"ax",%progbits
 526              		.align	1
 527              		.global	HAL_DMA_Abort_IT
ARM GAS  /var/folders/p7/nwmyw04531jbkqkgv59cx10h0000gn/T//ccRzNwwu.s 			page 27


 528              		.syntax unified
 529              		.thumb
 530              		.thumb_func
 531              		.fpu fpv4-sp-d16
 533              	HAL_DMA_Abort_IT:
 534              	.LFB129:
 429:Drivers/STM32F3xx_HAL_Driver/Src/stm32f3xx_hal_dma.c ****   HAL_StatusTypeDef status = HAL_OK;
 535              		.loc 1 429 0
 536              		.cfi_startproc
 537              		@ args = 0, pretend = 0, frame = 0
 538              		@ frame_needed = 0, uses_anonymous_args = 0
 539              	.LVL42:
 540 0000 08B5     		push	{r3, lr}
 541              	.LCFI9:
 542              		.cfi_def_cfa_offset 8
 543              		.cfi_offset 3, -8
 544              		.cfi_offset 14, -4
 545              	.LVL43:
 432:Drivers/STM32F3xx_HAL_Driver/Src/stm32f3xx_hal_dma.c ****   {
 546              		.loc 1 432 0
 547 0002 90F82130 		ldrb	r3, [r0, #33]	@ zero_extendqisi2
 548 0006 022B     		cmp	r3, #2
 549 0008 03D0     		beq	.L39
 435:Drivers/STM32F3xx_HAL_Driver/Src/stm32f3xx_hal_dma.c ****         
 550              		.loc 1 435 0
 551 000a 0423     		movs	r3, #4
 552 000c 8363     		str	r3, [r0, #56]
 553              	.LVL44:
 437:Drivers/STM32F3xx_HAL_Driver/Src/stm32f3xx_hal_dma.c ****   }
 554              		.loc 1 437 0
 555 000e 0120     		movs	r0, #1
 556              	.LVL45:
 557 0010 08BD     		pop	{r3, pc}
 558              	.LVL46:
 559              	.L39:
 443:Drivers/STM32F3xx_HAL_Driver/Src/stm32f3xx_hal_dma.c ****     
 560              		.loc 1 443 0
 561 0012 0268     		ldr	r2, [r0]
 562 0014 1368     		ldr	r3, [r2]
 563 0016 23F00E03 		bic	r3, r3, #14
 564 001a 1360     		str	r3, [r2]
 446:Drivers/STM32F3xx_HAL_Driver/Src/stm32f3xx_hal_dma.c ****     
 565              		.loc 1 446 0
 566 001c 0268     		ldr	r2, [r0]
 567 001e 1368     		ldr	r3, [r2]
 568 0020 23F00103 		bic	r3, r3, #1
 569 0024 1360     		str	r3, [r2]
 449:Drivers/STM32F3xx_HAL_Driver/Src/stm32f3xx_hal_dma.c ****     
 570              		.loc 1 449 0
 571 0026 C16B     		ldr	r1, [r0, #60]
 572 0028 036C     		ldr	r3, [r0, #64]
 573 002a 0122     		movs	r2, #1
 574 002c 02FA03F3 		lsl	r3, r2, r3
 575 0030 4B60     		str	r3, [r1, #4]
 452:Drivers/STM32F3xx_HAL_Driver/Src/stm32f3xx_hal_dma.c ****     
 576              		.loc 1 452 0
 577 0032 80F82120 		strb	r2, [r0, #33]
ARM GAS  /var/folders/p7/nwmyw04531jbkqkgv59cx10h0000gn/T//ccRzNwwu.s 			page 28


 455:Drivers/STM32F3xx_HAL_Driver/Src/stm32f3xx_hal_dma.c ****     
 578              		.loc 1 455 0
 579 0036 0023     		movs	r3, #0
 580 0038 80F82030 		strb	r3, [r0, #32]
 458:Drivers/STM32F3xx_HAL_Driver/Src/stm32f3xx_hal_dma.c ****     {
 581              		.loc 1 458 0
 582 003c 436B     		ldr	r3, [r0, #52]
 583 003e 13B1     		cbz	r3, .L41
 460:Drivers/STM32F3xx_HAL_Driver/Src/stm32f3xx_hal_dma.c ****     } 
 584              		.loc 1 460 0
 585 0040 9847     		blx	r3
 586              	.LVL47:
 430:Drivers/STM32F3xx_HAL_Driver/Src/stm32f3xx_hal_dma.c ****   
 587              		.loc 1 430 0
 588 0042 0020     		movs	r0, #0
 589 0044 08BD     		pop	{r3, pc}
 590              	.LVL48:
 591              	.L41:
 592 0046 0020     		movs	r0, #0
 593              	.LVL49:
 464:Drivers/STM32F3xx_HAL_Driver/Src/stm32f3xx_hal_dma.c **** 
 594              		.loc 1 464 0
 595 0048 08BD     		pop	{r3, pc}
 596              		.cfi_endproc
 597              	.LFE129:
 599              		.section	.text.HAL_DMA_PollForTransfer,"ax",%progbits
 600              		.align	1
 601              		.global	HAL_DMA_PollForTransfer
 602              		.syntax unified
 603              		.thumb
 604              		.thumb_func
 605              		.fpu fpv4-sp-d16
 607              	HAL_DMA_PollForTransfer:
 608              	.LFB130:
 475:Drivers/STM32F3xx_HAL_Driver/Src/stm32f3xx_hal_dma.c ****   uint32_t temp;
 609              		.loc 1 475 0
 610              		.cfi_startproc
 611              		@ args = 0, pretend = 0, frame = 0
 612              		@ frame_needed = 0, uses_anonymous_args = 0
 613              	.LVL50:
 614 0000 2DE9F843 		push	{r3, r4, r5, r6, r7, r8, r9, lr}
 615              	.LCFI10:
 616              		.cfi_def_cfa_offset 32
 617              		.cfi_offset 3, -32
 618              		.cfi_offset 4, -28
 619              		.cfi_offset 5, -24
 620              		.cfi_offset 6, -20
 621              		.cfi_offset 7, -16
 622              		.cfi_offset 8, -12
 623              		.cfi_offset 9, -8
 624              		.cfi_offset 14, -4
 625              	.LVL51:
 479:Drivers/STM32F3xx_HAL_Driver/Src/stm32f3xx_hal_dma.c ****   {
 626              		.loc 1 479 0
 627 0004 90F82130 		ldrb	r3, [r0, #33]	@ zero_extendqisi2
 628 0008 022B     		cmp	r3, #2
 629 000a 07D0     		beq	.L44
ARM GAS  /var/folders/p7/nwmyw04531jbkqkgv59cx10h0000gn/T//ccRzNwwu.s 			page 29


 482:Drivers/STM32F3xx_HAL_Driver/Src/stm32f3xx_hal_dma.c ****     __HAL_UNLOCK(hdma);
 630              		.loc 1 482 0
 631 000c 0423     		movs	r3, #4
 632 000e 8363     		str	r3, [r0, #56]
 483:Drivers/STM32F3xx_HAL_Driver/Src/stm32f3xx_hal_dma.c ****     return HAL_ERROR;
 633              		.loc 1 483 0
 634 0010 0023     		movs	r3, #0
 635 0012 80F82030 		strb	r3, [r0, #32]
 484:Drivers/STM32F3xx_HAL_Driver/Src/stm32f3xx_hal_dma.c ****   }
 636              		.loc 1 484 0
 637 0016 0120     		movs	r0, #1
 638              	.LVL52:
 639 0018 BDE8F883 		pop	{r3, r4, r5, r6, r7, r8, r9, pc}
 640              	.LVL53:
 641              	.L44:
 488:Drivers/STM32F3xx_HAL_Driver/Src/stm32f3xx_hal_dma.c ****   {
 642              		.loc 1 488 0
 643 001c 0368     		ldr	r3, [r0]
 644 001e 1B68     		ldr	r3, [r3]
 645 0020 13F0200F 		tst	r3, #32
 646 0024 27D1     		bne	.L57
 495:Drivers/STM32F3xx_HAL_Driver/Src/stm32f3xx_hal_dma.c ****   {
 647              		.loc 1 495 0
 648 0026 61BB     		cbnz	r1, .L47
 498:Drivers/STM32F3xx_HAL_Driver/Src/stm32f3xx_hal_dma.c ****   }
 649              		.loc 1 498 0
 650 0028 036C     		ldr	r3, [r0, #64]
 651 002a 0227     		movs	r7, #2
 652 002c 9F40     		lsls	r7, r7, r3
 653              	.LVL54:
 654              	.L48:
 655 002e 1646     		mov	r6, r2
 656 0030 8846     		mov	r8, r1
 657 0032 0446     		mov	r4, r0
 507:Drivers/STM32F3xx_HAL_Driver/Src/stm32f3xx_hal_dma.c **** 
 658              		.loc 1 507 0
 659 0034 FFF7FEFF 		bl	HAL_GetTick
 660              	.LVL55:
 661 0038 8146     		mov	r9, r0
 662              	.LVL56:
 663              	.L51:
 509:Drivers/STM32F3xx_HAL_Driver/Src/stm32f3xx_hal_dma.c ****   {
 664              		.loc 1 509 0
 665 003a E56B     		ldr	r5, [r4, #60]
 666 003c 2B68     		ldr	r3, [r5]
 667 003e 1F42     		tst	r7, r3
 668 0040 2FD1     		bne	.L58
 511:Drivers/STM32F3xx_HAL_Driver/Src/stm32f3xx_hal_dma.c ****     {      
 669              		.loc 1 511 0
 670 0042 2968     		ldr	r1, [r5]
 671 0044 226C     		ldr	r2, [r4, #64]
 672 0046 0823     		movs	r3, #8
 673 0048 9340     		lsls	r3, r3, r2
 674 004a 1942     		tst	r1, r3
 675 004c 1DD1     		bne	.L59
 530:Drivers/STM32F3xx_HAL_Driver/Src/stm32f3xx_hal_dma.c ****     {
 676              		.loc 1 530 0
ARM GAS  /var/folders/p7/nwmyw04531jbkqkgv59cx10h0000gn/T//ccRzNwwu.s 			page 30


 677 004e B6F1FF3F 		cmp	r6, #-1
 678 0052 F2D0     		beq	.L51
 532:Drivers/STM32F3xx_HAL_Driver/Src/stm32f3xx_hal_dma.c ****       {
 679              		.loc 1 532 0
 680 0054 2EB1     		cbz	r6, .L52
 532:Drivers/STM32F3xx_HAL_Driver/Src/stm32f3xx_hal_dma.c ****       {
 681              		.loc 1 532 0 is_stmt 0 discriminator 1
 682 0056 FFF7FEFF 		bl	HAL_GetTick
 683              	.LVL57:
 684 005a A0EB0900 		sub	r0, r0, r9
 685 005e 8642     		cmp	r6, r0
 686 0060 EBD2     		bcs	.L51
 687              	.L52:
 535:Drivers/STM32F3xx_HAL_Driver/Src/stm32f3xx_hal_dma.c ****         
 688              		.loc 1 535 0 is_stmt 1
 689 0062 2023     		movs	r3, #32
 690 0064 A363     		str	r3, [r4, #56]
 538:Drivers/STM32F3xx_HAL_Driver/Src/stm32f3xx_hal_dma.c **** 
 691              		.loc 1 538 0
 692 0066 0120     		movs	r0, #1
 693 0068 84F82100 		strb	r0, [r4, #33]
 541:Drivers/STM32F3xx_HAL_Driver/Src/stm32f3xx_hal_dma.c **** 
 694              		.loc 1 541 0
 695 006c 0023     		movs	r3, #0
 696 006e 84F82030 		strb	r3, [r4, #32]
 543:Drivers/STM32F3xx_HAL_Driver/Src/stm32f3xx_hal_dma.c ****       }
 697              		.loc 1 543 0
 698 0072 BDE8F883 		pop	{r3, r4, r5, r6, r7, r8, r9, pc}
 699              	.LVL58:
 700              	.L57:
 490:Drivers/STM32F3xx_HAL_Driver/Src/stm32f3xx_hal_dma.c ****     return HAL_ERROR;
 701              		.loc 1 490 0
 702 0076 4FF48073 		mov	r3, #256
 703 007a 8363     		str	r3, [r0, #56]
 491:Drivers/STM32F3xx_HAL_Driver/Src/stm32f3xx_hal_dma.c ****   }
 704              		.loc 1 491 0
 705 007c 0120     		movs	r0, #1
 706              	.LVL59:
 707 007e BDE8F883 		pop	{r3, r4, r5, r6, r7, r8, r9, pc}
 708              	.LVL60:
 709              	.L47:
 503:Drivers/STM32F3xx_HAL_Driver/Src/stm32f3xx_hal_dma.c ****   }
 710              		.loc 1 503 0
 711 0082 036C     		ldr	r3, [r0, #64]
 712 0084 0427     		movs	r7, #4
 713 0086 9F40     		lsls	r7, r7, r3
 714              	.LVL61:
 715 0088 D1E7     		b	.L48
 716              	.LVL62:
 717              	.L59:
 516:Drivers/STM32F3xx_HAL_Driver/Src/stm32f3xx_hal_dma.c ****       
 718              		.loc 1 516 0
 719 008a 0120     		movs	r0, #1
 720 008c 00FA02F2 		lsl	r2, r0, r2
 721 0090 6A60     		str	r2, [r5, #4]
 519:Drivers/STM32F3xx_HAL_Driver/Src/stm32f3xx_hal_dma.c **** 
 722              		.loc 1 519 0
ARM GAS  /var/folders/p7/nwmyw04531jbkqkgv59cx10h0000gn/T//ccRzNwwu.s 			page 31


 723 0092 A063     		str	r0, [r4, #56]
 522:Drivers/STM32F3xx_HAL_Driver/Src/stm32f3xx_hal_dma.c ****       
 724              		.loc 1 522 0
 725 0094 84F82100 		strb	r0, [r4, #33]
 525:Drivers/STM32F3xx_HAL_Driver/Src/stm32f3xx_hal_dma.c ****       
 726              		.loc 1 525 0
 727 0098 0023     		movs	r3, #0
 728 009a 84F82030 		strb	r3, [r4, #32]
 527:Drivers/STM32F3xx_HAL_Driver/Src/stm32f3xx_hal_dma.c ****     }      
 729              		.loc 1 527 0
 730 009e BDE8F883 		pop	{r3, r4, r5, r6, r7, r8, r9, pc}
 731              	.LVL63:
 732              	.L58:
 548:Drivers/STM32F3xx_HAL_Driver/Src/stm32f3xx_hal_dma.c ****   {
 733              		.loc 1 548 0
 734 00a2 B8F1000F 		cmp	r8, #0
 735 00a6 0BD1     		bne	.L54
 551:Drivers/STM32F3xx_HAL_Driver/Src/stm32f3xx_hal_dma.c **** 
 736              		.loc 1 551 0
 737 00a8 226C     		ldr	r2, [r4, #64]
 738 00aa 0223     		movs	r3, #2
 739 00ac 9340     		lsls	r3, r3, r2
 740 00ae 6B60     		str	r3, [r5, #4]
 555:Drivers/STM32F3xx_HAL_Driver/Src/stm32f3xx_hal_dma.c ****   }
 741              		.loc 1 555 0
 742 00b0 0123     		movs	r3, #1
 743 00b2 84F82130 		strb	r3, [r4, #33]
 744              	.L55:
 564:Drivers/STM32F3xx_HAL_Driver/Src/stm32f3xx_hal_dma.c **** 
 745              		.loc 1 564 0
 746 00b6 0020     		movs	r0, #0
 747 00b8 84F82000 		strb	r0, [r4, #32]
 567:Drivers/STM32F3xx_HAL_Driver/Src/stm32f3xx_hal_dma.c **** 
 748              		.loc 1 567 0
 749 00bc BDE8F883 		pop	{r3, r4, r5, r6, r7, r8, r9, pc}
 750              	.LVL64:
 751              	.L54:
 560:Drivers/STM32F3xx_HAL_Driver/Src/stm32f3xx_hal_dma.c ****   }
 752              		.loc 1 560 0
 753 00c0 226C     		ldr	r2, [r4, #64]
 754 00c2 0423     		movs	r3, #4
 755 00c4 9340     		lsls	r3, r3, r2
 756 00c6 6B60     		str	r3, [r5, #4]
 757 00c8 F5E7     		b	.L55
 758              		.cfi_endproc
 759              	.LFE130:
 761              		.section	.text.HAL_DMA_IRQHandler,"ax",%progbits
 762              		.align	1
 763              		.global	HAL_DMA_IRQHandler
 764              		.syntax unified
 765              		.thumb
 766              		.thumb_func
 767              		.fpu fpv4-sp-d16
 769              	HAL_DMA_IRQHandler:
 770              	.LFB131:
 576:Drivers/STM32F3xx_HAL_Driver/Src/stm32f3xx_hal_dma.c **** 	uint32_t flag_it = hdma->DmaBaseAddress->ISR;
 771              		.loc 1 576 0
ARM GAS  /var/folders/p7/nwmyw04531jbkqkgv59cx10h0000gn/T//ccRzNwwu.s 			page 32


 772              		.cfi_startproc
 773              		@ args = 0, pretend = 0, frame = 0
 774              		@ frame_needed = 0, uses_anonymous_args = 0
 775              	.LVL65:
 776 0000 38B5     		push	{r3, r4, r5, lr}
 777              	.LCFI11:
 778              		.cfi_def_cfa_offset 16
 779              		.cfi_offset 3, -16
 780              		.cfi_offset 4, -12
 781              		.cfi_offset 5, -8
 782              		.cfi_offset 14, -4
 577:Drivers/STM32F3xx_HAL_Driver/Src/stm32f3xx_hal_dma.c ****   uint32_t source_it = hdma->Instance->CCR;
 783              		.loc 1 577 0
 784 0002 C36B     		ldr	r3, [r0, #60]
 785 0004 1A68     		ldr	r2, [r3]
 786              	.LVL66:
 578:Drivers/STM32F3xx_HAL_Driver/Src/stm32f3xx_hal_dma.c ****           
 787              		.loc 1 578 0
 788 0006 0468     		ldr	r4, [r0]
 789 0008 2568     		ldr	r5, [r4]
 790              	.LVL67:
 581:Drivers/STM32F3xx_HAL_Driver/Src/stm32f3xx_hal_dma.c ****   {
 791              		.loc 1 581 0
 792 000a 016C     		ldr	r1, [r0, #64]
 793 000c 0423     		movs	r3, #4
 794 000e 8B40     		lsls	r3, r3, r1
 795 0010 1A42     		tst	r2, r3
 796 0012 14D0     		beq	.L61
 581:Drivers/STM32F3xx_HAL_Driver/Src/stm32f3xx_hal_dma.c ****   {
 797              		.loc 1 581 0 is_stmt 0 discriminator 1
 798 0014 15F0040F 		tst	r5, #4
 799 0018 11D0     		beq	.L61
 584:Drivers/STM32F3xx_HAL_Driver/Src/stm32f3xx_hal_dma.c ****   	{
 800              		.loc 1 584 0 is_stmt 1
 801 001a 2368     		ldr	r3, [r4]
 802 001c 13F0200F 		tst	r3, #32
 803 0020 03D1     		bne	.L62
 587:Drivers/STM32F3xx_HAL_Driver/Src/stm32f3xx_hal_dma.c ****   	}
 804              		.loc 1 587 0
 805 0022 2368     		ldr	r3, [r4]
 806 0024 23F00403 		bic	r3, r3, #4
 807 0028 2360     		str	r3, [r4]
 808              	.L62:
 591:Drivers/STM32F3xx_HAL_Driver/Src/stm32f3xx_hal_dma.c ****   	
 809              		.loc 1 591 0
 810 002a C26B     		ldr	r2, [r0, #60]
 811              	.LVL68:
 812 002c 016C     		ldr	r1, [r0, #64]
 813 002e 0423     		movs	r3, #4
 814 0030 8B40     		lsls	r3, r3, r1
 815 0032 5360     		str	r3, [r2, #4]
 596:Drivers/STM32F3xx_HAL_Driver/Src/stm32f3xx_hal_dma.c ****   	{
 816              		.loc 1 596 0
 817 0034 C36A     		ldr	r3, [r0, #44]
 818 0036 002B     		cmp	r3, #0
 819 0038 3AD0     		beq	.L60
 599:Drivers/STM32F3xx_HAL_Driver/Src/stm32f3xx_hal_dma.c ****   	}
ARM GAS  /var/folders/p7/nwmyw04531jbkqkgv59cx10h0000gn/T//ccRzNwwu.s 			page 33


 820              		.loc 1 599 0
 821 003a 9847     		blx	r3
 822              	.LVL69:
 823 003c 38BD     		pop	{r3, r4, r5, pc}
 824              	.LVL70:
 825              	.L61:
 604:Drivers/STM32F3xx_HAL_Driver/Src/stm32f3xx_hal_dma.c ****   {
 826              		.loc 1 604 0
 827 003e 0223     		movs	r3, #2
 828 0040 8B40     		lsls	r3, r3, r1
 829 0042 1A42     		tst	r2, r3
 830 0044 19D0     		beq	.L64
 604:Drivers/STM32F3xx_HAL_Driver/Src/stm32f3xx_hal_dma.c ****   {
 831              		.loc 1 604 0 is_stmt 0 discriminator 1
 832 0046 15F0020F 		tst	r5, #2
 833 004a 16D0     		beq	.L64
 606:Drivers/STM32F3xx_HAL_Driver/Src/stm32f3xx_hal_dma.c ****   	{
 834              		.loc 1 606 0 is_stmt 1
 835 004c 2368     		ldr	r3, [r4]
 836 004e 13F0200F 		tst	r3, #32
 837 0052 06D1     		bne	.L65
 610:Drivers/STM32F3xx_HAL_Driver/Src/stm32f3xx_hal_dma.c ****   		
 838              		.loc 1 610 0
 839 0054 2368     		ldr	r3, [r4]
 840 0056 23F00A03 		bic	r3, r3, #10
 841 005a 2360     		str	r3, [r4]
 613:Drivers/STM32F3xx_HAL_Driver/Src/stm32f3xx_hal_dma.c ****   	}
 842              		.loc 1 613 0
 843 005c 0123     		movs	r3, #1
 844 005e 80F82130 		strb	r3, [r0, #33]
 845              	.L65:
 617:Drivers/STM32F3xx_HAL_Driver/Src/stm32f3xx_hal_dma.c ****   	
 846              		.loc 1 617 0
 847 0062 C26B     		ldr	r2, [r0, #60]
 848              	.LVL71:
 849 0064 016C     		ldr	r1, [r0, #64]
 850 0066 0223     		movs	r3, #2
 851 0068 8B40     		lsls	r3, r3, r1
 852 006a 5360     		str	r3, [r2, #4]
 620:Drivers/STM32F3xx_HAL_Driver/Src/stm32f3xx_hal_dma.c ****   	
 853              		.loc 1 620 0
 854 006c 0023     		movs	r3, #0
 855 006e 80F82030 		strb	r3, [r0, #32]
 622:Drivers/STM32F3xx_HAL_Driver/Src/stm32f3xx_hal_dma.c ****   	{
 856              		.loc 1 622 0
 857 0072 836A     		ldr	r3, [r0, #40]
 858 0074 E3B1     		cbz	r3, .L60
 625:Drivers/STM32F3xx_HAL_Driver/Src/stm32f3xx_hal_dma.c ****   	}
 859              		.loc 1 625 0
 860 0076 9847     		blx	r3
 861              	.LVL72:
 862 0078 38BD     		pop	{r3, r4, r5, pc}
 863              	.LVL73:
 864              	.L64:
 630:Drivers/STM32F3xx_HAL_Driver/Src/stm32f3xx_hal_dma.c ****   {
 865              		.loc 1 630 0
 866 007a 0823     		movs	r3, #8
ARM GAS  /var/folders/p7/nwmyw04531jbkqkgv59cx10h0000gn/T//ccRzNwwu.s 			page 34


 867 007c 03FA01F1 		lsl	r1, r3, r1
 868 0080 0A42     		tst	r2, r1
 869 0082 15D0     		beq	.L60
 630:Drivers/STM32F3xx_HAL_Driver/Src/stm32f3xx_hal_dma.c ****   {
 870              		.loc 1 630 0 is_stmt 0 discriminator 1
 871 0084 15F0080F 		tst	r5, #8
 872 0088 12D0     		beq	.L60
 635:Drivers/STM32F3xx_HAL_Driver/Src/stm32f3xx_hal_dma.c ****     
 873              		.loc 1 635 0 is_stmt 1
 874 008a 2368     		ldr	r3, [r4]
 875 008c 23F00E03 		bic	r3, r3, #14
 876 0090 2360     		str	r3, [r4]
 638:Drivers/STM32F3xx_HAL_Driver/Src/stm32f3xx_hal_dma.c ****     
 877              		.loc 1 638 0
 878 0092 C16B     		ldr	r1, [r0, #60]
 879 0094 026C     		ldr	r2, [r0, #64]
 880              	.LVL74:
 881 0096 0123     		movs	r3, #1
 882 0098 03FA02F2 		lsl	r2, r3, r2
 883 009c 4A60     		str	r2, [r1, #4]
 641:Drivers/STM32F3xx_HAL_Driver/Src/stm32f3xx_hal_dma.c ****     
 884              		.loc 1 641 0
 885 009e 8363     		str	r3, [r0, #56]
 644:Drivers/STM32F3xx_HAL_Driver/Src/stm32f3xx_hal_dma.c ****     
 886              		.loc 1 644 0
 887 00a0 80F82130 		strb	r3, [r0, #33]
 647:Drivers/STM32F3xx_HAL_Driver/Src/stm32f3xx_hal_dma.c ****     
 888              		.loc 1 647 0
 889 00a4 0023     		movs	r3, #0
 890 00a6 80F82030 		strb	r3, [r0, #32]
 649:Drivers/STM32F3xx_HAL_Driver/Src/stm32f3xx_hal_dma.c ****     {
 891              		.loc 1 649 0
 892 00aa 036B     		ldr	r3, [r0, #48]
 893 00ac 03B1     		cbz	r3, .L60
 652:Drivers/STM32F3xx_HAL_Driver/Src/stm32f3xx_hal_dma.c ****     }
 894              		.loc 1 652 0
 895 00ae 9847     		blx	r3
 896              	.LVL75:
 897              	.L60:
 898 00b0 38BD     		pop	{r3, r4, r5, pc}
 899              		.cfi_endproc
 900              	.LFE131:
 902              		.section	.text.HAL_DMA_RegisterCallback,"ax",%progbits
 903              		.align	1
 904              		.global	HAL_DMA_RegisterCallback
 905              		.syntax unified
 906              		.thumb
 907              		.thumb_func
 908              		.fpu fpv4-sp-d16
 910              	HAL_DMA_RegisterCallback:
 911              	.LFB132:
 668:Drivers/STM32F3xx_HAL_Driver/Src/stm32f3xx_hal_dma.c ****   HAL_StatusTypeDef status = HAL_OK;
 912              		.loc 1 668 0
 913              		.cfi_startproc
 914              		@ args = 0, pretend = 0, frame = 0
 915              		@ frame_needed = 0, uses_anonymous_args = 0
 916              		@ link register save eliminated.
ARM GAS  /var/folders/p7/nwmyw04531jbkqkgv59cx10h0000gn/T//ccRzNwwu.s 			page 35


 917              	.LVL76:
 918 0000 0346     		mov	r3, r0
 919              	.LVL77:
 672:Drivers/STM32F3xx_HAL_Driver/Src/stm32f3xx_hal_dma.c ****   
 920              		.loc 1 672 0
 921 0002 90F82000 		ldrb	r0, [r0, #32]	@ zero_extendqisi2
 922              	.LVL78:
 923 0006 0128     		cmp	r0, #1
 924 0008 1FD0     		beq	.L75
 672:Drivers/STM32F3xx_HAL_Driver/Src/stm32f3xx_hal_dma.c ****   
 925              		.loc 1 672 0 is_stmt 0 discriminator 2
 926 000a 0120     		movs	r0, #1
 927 000c 83F82000 		strb	r0, [r3, #32]
 674:Drivers/STM32F3xx_HAL_Driver/Src/stm32f3xx_hal_dma.c ****   {
 928              		.loc 1 674 0 is_stmt 1 discriminator 2
 929 0010 93F82100 		ldrb	r0, [r3, #33]	@ zero_extendqisi2
 930 0014 0128     		cmp	r0, #1
 931 0016 04D0     		beq	.L78
 701:Drivers/STM32F3xx_HAL_Driver/Src/stm32f3xx_hal_dma.c ****   } 
 932              		.loc 1 701 0
 933 0018 0120     		movs	r0, #1
 934              	.L69:
 935              	.LVL79:
 705:Drivers/STM32F3xx_HAL_Driver/Src/stm32f3xx_hal_dma.c ****   
 936              		.loc 1 705 0
 937 001a 0022     		movs	r2, #0
 938              	.LVL80:
 939 001c 83F82020 		strb	r2, [r3, #32]
 707:Drivers/STM32F3xx_HAL_Driver/Src/stm32f3xx_hal_dma.c **** }
 940              		.loc 1 707 0
 941 0020 7047     		bx	lr
 942              	.LVL81:
 943              	.L78:
 676:Drivers/STM32F3xx_HAL_Driver/Src/stm32f3xx_hal_dma.c ****     {
 944              		.loc 1 676 0
 945 0022 0329     		cmp	r1, #3
 946 0024 0FD8     		bhi	.L77
 947 0026 DFE801F0 		tbb	[pc, r1]
 948              	.L71:
 949 002a 02       		.byte	(.L70-.L71)/2
 950 002b 05       		.byte	(.L72-.L71)/2
 951 002c 08       		.byte	(.L73-.L71)/2
 952 002d 0B       		.byte	(.L74-.L71)/2
 953              		.p2align 1
 954              	.L70:
 679:Drivers/STM32F3xx_HAL_Driver/Src/stm32f3xx_hal_dma.c ****            break;
 955              		.loc 1 679 0
 956 002e 9A62     		str	r2, [r3, #40]
 669:Drivers/STM32F3xx_HAL_Driver/Src/stm32f3xx_hal_dma.c ****   
 957              		.loc 1 669 0
 958 0030 0020     		movs	r0, #0
 680:Drivers/STM32F3xx_HAL_Driver/Src/stm32f3xx_hal_dma.c ****        
 959              		.loc 1 680 0
 960 0032 F2E7     		b	.L69
 961              	.L72:
 683:Drivers/STM32F3xx_HAL_Driver/Src/stm32f3xx_hal_dma.c ****            break;         
 962              		.loc 1 683 0
ARM GAS  /var/folders/p7/nwmyw04531jbkqkgv59cx10h0000gn/T//ccRzNwwu.s 			page 36


 963 0034 DA62     		str	r2, [r3, #44]
 669:Drivers/STM32F3xx_HAL_Driver/Src/stm32f3xx_hal_dma.c ****   
 964              		.loc 1 669 0
 965 0036 0020     		movs	r0, #0
 684:Drivers/STM32F3xx_HAL_Driver/Src/stm32f3xx_hal_dma.c **** 
 966              		.loc 1 684 0
 967 0038 EFE7     		b	.L69
 968              	.L73:
 687:Drivers/STM32F3xx_HAL_Driver/Src/stm32f3xx_hal_dma.c ****            break;         
 969              		.loc 1 687 0
 970 003a 1A63     		str	r2, [r3, #48]
 669:Drivers/STM32F3xx_HAL_Driver/Src/stm32f3xx_hal_dma.c ****   
 971              		.loc 1 669 0
 972 003c 0020     		movs	r0, #0
 688:Drivers/STM32F3xx_HAL_Driver/Src/stm32f3xx_hal_dma.c ****            
 973              		.loc 1 688 0
 974 003e ECE7     		b	.L69
 975              	.L74:
 691:Drivers/STM32F3xx_HAL_Driver/Src/stm32f3xx_hal_dma.c ****            break; 
 976              		.loc 1 691 0
 977 0040 5A63     		str	r2, [r3, #52]
 669:Drivers/STM32F3xx_HAL_Driver/Src/stm32f3xx_hal_dma.c ****   
 978              		.loc 1 669 0
 979 0042 0020     		movs	r0, #0
 692:Drivers/STM32F3xx_HAL_Driver/Src/stm32f3xx_hal_dma.c ****            
 980              		.loc 1 692 0
 981 0044 E9E7     		b	.L69
 982              	.L77:
 695:Drivers/STM32F3xx_HAL_Driver/Src/stm32f3xx_hal_dma.c ****            break;                                                            
 983              		.loc 1 695 0
 984 0046 0120     		movs	r0, #1
 985 0048 E7E7     		b	.L69
 986              	.L75:
 672:Drivers/STM32F3xx_HAL_Driver/Src/stm32f3xx_hal_dma.c ****   
 987              		.loc 1 672 0
 988 004a 0220     		movs	r0, #2
 708:Drivers/STM32F3xx_HAL_Driver/Src/stm32f3xx_hal_dma.c **** 
 989              		.loc 1 708 0
 990 004c 7047     		bx	lr
 991              		.cfi_endproc
 992              	.LFE132:
 994              		.section	.text.HAL_DMA_UnRegisterCallback,"ax",%progbits
 995              		.align	1
 996              		.global	HAL_DMA_UnRegisterCallback
 997              		.syntax unified
 998              		.thumb
 999              		.thumb_func
 1000              		.fpu fpv4-sp-d16
 1002              	HAL_DMA_UnRegisterCallback:
 1003              	.LFB133:
 719:Drivers/STM32F3xx_HAL_Driver/Src/stm32f3xx_hal_dma.c ****   HAL_StatusTypeDef status = HAL_OK;
 1004              		.loc 1 719 0
 1005              		.cfi_startproc
 1006              		@ args = 0, pretend = 0, frame = 0
 1007              		@ frame_needed = 0, uses_anonymous_args = 0
 1008              		@ link register save eliminated.
 1009              	.LVL82:
ARM GAS  /var/folders/p7/nwmyw04531jbkqkgv59cx10h0000gn/T//ccRzNwwu.s 			page 37


 1010 0000 0346     		mov	r3, r0
 1011              	.LVL83:
 723:Drivers/STM32F3xx_HAL_Driver/Src/stm32f3xx_hal_dma.c ****   
 1012              		.loc 1 723 0
 1013 0002 90F82020 		ldrb	r2, [r0, #32]	@ zero_extendqisi2
 1014 0006 012A     		cmp	r2, #1
 1015 0008 26D0     		beq	.L88
 723:Drivers/STM32F3xx_HAL_Driver/Src/stm32f3xx_hal_dma.c ****   
 1016              		.loc 1 723 0 is_stmt 0 discriminator 2
 1017 000a 0122     		movs	r2, #1
 1018 000c 80F82020 		strb	r2, [r0, #32]
 725:Drivers/STM32F3xx_HAL_Driver/Src/stm32f3xx_hal_dma.c ****   {
 1019              		.loc 1 725 0 is_stmt 1 discriminator 2
 1020 0010 90F82120 		ldrb	r2, [r0, #33]	@ zero_extendqisi2
 1021 0014 012A     		cmp	r2, #1
 1022 0016 04D0     		beq	.L91
 759:Drivers/STM32F3xx_HAL_Driver/Src/stm32f3xx_hal_dma.c ****   } 
 1023              		.loc 1 759 0
 1024 0018 0120     		movs	r0, #1
 1025              	.LVL84:
 1026              	.L81:
 763:Drivers/STM32F3xx_HAL_Driver/Src/stm32f3xx_hal_dma.c ****   
 1027              		.loc 1 763 0
 1028 001a 0022     		movs	r2, #0
 1029 001c 83F82020 		strb	r2, [r3, #32]
 765:Drivers/STM32F3xx_HAL_Driver/Src/stm32f3xx_hal_dma.c **** }
 1030              		.loc 1 765 0
 1031 0020 7047     		bx	lr
 1032              	.LVL85:
 1033              	.L91:
 727:Drivers/STM32F3xx_HAL_Driver/Src/stm32f3xx_hal_dma.c ****     {
 1034              		.loc 1 727 0
 1035 0022 0429     		cmp	r1, #4
 1036 0024 16D8     		bhi	.L90
 1037 0026 DFE801F0 		tbb	[pc, r1]
 1038              	.L83:
 1039 002a 03       		.byte	(.L82-.L83)/2
 1040 002b 06       		.byte	(.L84-.L83)/2
 1041 002c 09       		.byte	(.L85-.L83)/2
 1042 002d 0C       		.byte	(.L86-.L83)/2
 1043 002e 0F       		.byte	(.L87-.L83)/2
 1044 002f 00       		.p2align 1
 1045              	.L82:
 730:Drivers/STM32F3xx_HAL_Driver/Src/stm32f3xx_hal_dma.c ****            break;
 1046              		.loc 1 730 0
 1047 0030 0020     		movs	r0, #0
 1048              	.LVL86:
 1049 0032 9862     		str	r0, [r3, #40]
 731:Drivers/STM32F3xx_HAL_Driver/Src/stm32f3xx_hal_dma.c ****        
 1050              		.loc 1 731 0
 1051 0034 F1E7     		b	.L81
 1052              	.LVL87:
 1053              	.L84:
 734:Drivers/STM32F3xx_HAL_Driver/Src/stm32f3xx_hal_dma.c ****            break;         
 1054              		.loc 1 734 0
 1055 0036 0020     		movs	r0, #0
 1056              	.LVL88:
ARM GAS  /var/folders/p7/nwmyw04531jbkqkgv59cx10h0000gn/T//ccRzNwwu.s 			page 38


 1057 0038 D862     		str	r0, [r3, #44]
 735:Drivers/STM32F3xx_HAL_Driver/Src/stm32f3xx_hal_dma.c **** 
 1058              		.loc 1 735 0
 1059 003a EEE7     		b	.L81
 1060              	.LVL89:
 1061              	.L85:
 738:Drivers/STM32F3xx_HAL_Driver/Src/stm32f3xx_hal_dma.c ****            break;         
 1062              		.loc 1 738 0
 1063 003c 0020     		movs	r0, #0
 1064              	.LVL90:
 1065 003e 1863     		str	r0, [r3, #48]
 739:Drivers/STM32F3xx_HAL_Driver/Src/stm32f3xx_hal_dma.c ****            
 1066              		.loc 1 739 0
 1067 0040 EBE7     		b	.L81
 1068              	.LVL91:
 1069              	.L86:
 742:Drivers/STM32F3xx_HAL_Driver/Src/stm32f3xx_hal_dma.c ****            break; 
 1070              		.loc 1 742 0
 1071 0042 0020     		movs	r0, #0
 1072              	.LVL92:
 1073 0044 5863     		str	r0, [r3, #52]
 743:Drivers/STM32F3xx_HAL_Driver/Src/stm32f3xx_hal_dma.c ****      
 1074              		.loc 1 743 0
 1075 0046 E8E7     		b	.L81
 1076              	.LVL93:
 1077              	.L87:
 746:Drivers/STM32F3xx_HAL_Driver/Src/stm32f3xx_hal_dma.c ****            hdma->XferHalfCpltCallback = NULL;
 1078              		.loc 1 746 0
 1079 0048 0020     		movs	r0, #0
 1080              	.LVL94:
 1081 004a 9862     		str	r0, [r3, #40]
 747:Drivers/STM32F3xx_HAL_Driver/Src/stm32f3xx_hal_dma.c ****            hdma->XferErrorCallback = NULL;
 1082              		.loc 1 747 0
 1083 004c D862     		str	r0, [r3, #44]
 748:Drivers/STM32F3xx_HAL_Driver/Src/stm32f3xx_hal_dma.c ****            hdma->XferAbortCallback = NULL;
 1084              		.loc 1 748 0
 1085 004e 1863     		str	r0, [r3, #48]
 749:Drivers/STM32F3xx_HAL_Driver/Src/stm32f3xx_hal_dma.c ****            break; 
 1086              		.loc 1 749 0
 1087 0050 5863     		str	r0, [r3, #52]
 750:Drivers/STM32F3xx_HAL_Driver/Src/stm32f3xx_hal_dma.c ****      
 1088              		.loc 1 750 0
 1089 0052 E2E7     		b	.L81
 1090              	.LVL95:
 1091              	.L90:
 753:Drivers/STM32F3xx_HAL_Driver/Src/stm32f3xx_hal_dma.c ****            break;                                                            
 1092              		.loc 1 753 0
 1093 0054 0120     		movs	r0, #1
 1094              	.LVL96:
 1095 0056 E0E7     		b	.L81
 1096              	.LVL97:
 1097              	.L88:
 723:Drivers/STM32F3xx_HAL_Driver/Src/stm32f3xx_hal_dma.c ****   
 1098              		.loc 1 723 0
 1099 0058 0220     		movs	r0, #2
 1100              	.LVL98:
 766:Drivers/STM32F3xx_HAL_Driver/Src/stm32f3xx_hal_dma.c **** 
ARM GAS  /var/folders/p7/nwmyw04531jbkqkgv59cx10h0000gn/T//ccRzNwwu.s 			page 39


 1101              		.loc 1 766 0
 1102 005a 7047     		bx	lr
 1103              		.cfi_endproc
 1104              	.LFE133:
 1106              		.section	.text.HAL_DMA_GetState,"ax",%progbits
 1107              		.align	1
 1108              		.global	HAL_DMA_GetState
 1109              		.syntax unified
 1110              		.thumb
 1111              		.thumb_func
 1112              		.fpu fpv4-sp-d16
 1114              	HAL_DMA_GetState:
 1115              	.LFB134:
 795:Drivers/STM32F3xx_HAL_Driver/Src/stm32f3xx_hal_dma.c ****   return hdma->State;
 1116              		.loc 1 795 0
 1117              		.cfi_startproc
 1118              		@ args = 0, pretend = 0, frame = 0
 1119              		@ frame_needed = 0, uses_anonymous_args = 0
 1120              		@ link register save eliminated.
 1121              	.LVL99:
 797:Drivers/STM32F3xx_HAL_Driver/Src/stm32f3xx_hal_dma.c **** 
 1122              		.loc 1 797 0
 1123 0000 90F82100 		ldrb	r0, [r0, #33]	@ zero_extendqisi2
 1124              	.LVL100:
 1125 0004 7047     		bx	lr
 1126              		.cfi_endproc
 1127              	.LFE134:
 1129              		.section	.text.HAL_DMA_GetError,"ax",%progbits
 1130              		.align	1
 1131              		.global	HAL_DMA_GetError
 1132              		.syntax unified
 1133              		.thumb
 1134              		.thumb_func
 1135              		.fpu fpv4-sp-d16
 1137              	HAL_DMA_GetError:
 1138              	.LFB135:
 806:Drivers/STM32F3xx_HAL_Driver/Src/stm32f3xx_hal_dma.c ****   return hdma->ErrorCode;
 1139              		.loc 1 806 0
 1140              		.cfi_startproc
 1141              		@ args = 0, pretend = 0, frame = 0
 1142              		@ frame_needed = 0, uses_anonymous_args = 0
 1143              		@ link register save eliminated.
 1144              	.LVL101:
 807:Drivers/STM32F3xx_HAL_Driver/Src/stm32f3xx_hal_dma.c **** }
 1145              		.loc 1 807 0
 1146 0000 806B     		ldr	r0, [r0, #56]
 1147              	.LVL102:
 808:Drivers/STM32F3xx_HAL_Driver/Src/stm32f3xx_hal_dma.c **** 
 1148              		.loc 1 808 0
 1149 0002 7047     		bx	lr
 1150              		.cfi_endproc
 1151              	.LFE135:
 1153              		.text
 1154              	.Letext0:
 1155              		.file 2 "/usr/local/Caskroom/gcc-arm-embedded/6-2017-q1-update/gcc-arm-none-eabi-6-2017-q1-update/
 1156              		.file 3 "/usr/local/Caskroom/gcc-arm-embedded/6-2017-q1-update/gcc-arm-none-eabi-6-2017-q1-update/
 1157              		.file 4 "Drivers/CMSIS/Include/core_cm4.h"
ARM GAS  /var/folders/p7/nwmyw04531jbkqkgv59cx10h0000gn/T//ccRzNwwu.s 			page 40


 1158              		.file 5 "Drivers/CMSIS/Device/ST/STM32F3xx/Include/system_stm32f3xx.h"
 1159              		.file 6 "Drivers/CMSIS/Device/ST/STM32F3xx/Include/stm32f334x8.h"
 1160              		.file 7 "/usr/local/Caskroom/gcc-arm-embedded/6-2017-q1-update/gcc-arm-none-eabi-6-2017-q1-update/
 1161              		.file 8 "/usr/local/Caskroom/gcc-arm-embedded/6-2017-q1-update/gcc-arm-none-eabi-6-2017-q1-update/
 1162              		.file 9 "/usr/local/Caskroom/gcc-arm-embedded/6-2017-q1-update/gcc-arm-none-eabi-6-2017-q1-update/
 1163              		.file 10 "/usr/local/Caskroom/gcc-arm-embedded/6-2017-q1-update/gcc-arm-none-eabi-6-2017-q1-update
 1164              		.file 11 "Drivers/CMSIS/Device/ST/STM32F3xx/Include/stm32f3xx.h"
 1165              		.file 12 "Drivers/STM32F3xx_HAL_Driver/Inc/stm32f3xx_hal_def.h"
 1166              		.file 13 "Drivers/STM32F3xx_HAL_Driver/Inc/stm32f3xx_hal_dma.h"
 1167              		.file 14 "Drivers/STM32F3xx_HAL_Driver/Inc/stm32f3xx_hal.h"
ARM GAS  /var/folders/p7/nwmyw04531jbkqkgv59cx10h0000gn/T//ccRzNwwu.s 			page 41

