ARM GAS  /var/folders/p7/nwmyw04531jbkqkgv59cx10h0000gn/T//ccKbzw64.s 			page 1


   1              		.cpu cortex-m4
   2              		.eabi_attribute 27, 1
   3              		.eabi_attribute 28, 1
   4              		.eabi_attribute 20, 1
   5              		.eabi_attribute 21, 1
   6              		.eabi_attribute 23, 3
   7              		.eabi_attribute 24, 1
   8              		.eabi_attribute 25, 1
   9              		.eabi_attribute 26, 1
  10              		.eabi_attribute 30, 1
  11              		.eabi_attribute 34, 1
  12              		.eabi_attribute 18, 4
  13              		.file	"stm32f3xx_hal_can.c"
  14              		.text
  15              	.Ltext0:
  16              		.cfi_sections	.debug_frame
  17              		.section	.text.HAL_CAN_ConfigFilter,"ax",%progbits
  18              		.align	1
  19              		.global	HAL_CAN_ConfigFilter
  20              		.syntax unified
  21              		.thumb
  22              		.thumb_func
  23              		.fpu fpv4-sp-d16
  25              	HAL_CAN_ConfigFilter:
  26              	.LFB125:
  27              		.file 1 "Drivers/STM32F3xx_HAL_Driver/Src/stm32f3xx_hal_can.c"
   1:Drivers/STM32F3xx_HAL_Driver/Src/stm32f3xx_hal_can.c **** /**
   2:Drivers/STM32F3xx_HAL_Driver/Src/stm32f3xx_hal_can.c ****   ******************************************************************************
   3:Drivers/STM32F3xx_HAL_Driver/Src/stm32f3xx_hal_can.c ****   * @file    stm32f3xx_hal_can.c
   4:Drivers/STM32F3xx_HAL_Driver/Src/stm32f3xx_hal_can.c ****   * @author  MCD Application Team
   5:Drivers/STM32F3xx_HAL_Driver/Src/stm32f3xx_hal_can.c ****   * @version V1.4.0
   6:Drivers/STM32F3xx_HAL_Driver/Src/stm32f3xx_hal_can.c ****   * @date    16-December-2016
   7:Drivers/STM32F3xx_HAL_Driver/Src/stm32f3xx_hal_can.c ****   * @brief   CAN HAL module driver.
   8:Drivers/STM32F3xx_HAL_Driver/Src/stm32f3xx_hal_can.c ****   *          This file provides firmware functions to manage the following 
   9:Drivers/STM32F3xx_HAL_Driver/Src/stm32f3xx_hal_can.c ****   *          functionalities of the Controller Area Network (CAN) peripheral:
  10:Drivers/STM32F3xx_HAL_Driver/Src/stm32f3xx_hal_can.c ****   *           + Initialization and de-initialization functions 
  11:Drivers/STM32F3xx_HAL_Driver/Src/stm32f3xx_hal_can.c ****   *           + IO operation functions
  12:Drivers/STM32F3xx_HAL_Driver/Src/stm32f3xx_hal_can.c ****   *           + Peripheral Control functions
  13:Drivers/STM32F3xx_HAL_Driver/Src/stm32f3xx_hal_can.c ****   *           + Peripheral State and Error functions
  14:Drivers/STM32F3xx_HAL_Driver/Src/stm32f3xx_hal_can.c ****   *
  15:Drivers/STM32F3xx_HAL_Driver/Src/stm32f3xx_hal_can.c ****   @verbatim
  16:Drivers/STM32F3xx_HAL_Driver/Src/stm32f3xx_hal_can.c ****   ==============================================================================    
  17:Drivers/STM32F3xx_HAL_Driver/Src/stm32f3xx_hal_can.c ****                         ##### How to use this driver #####
  18:Drivers/STM32F3xx_HAL_Driver/Src/stm32f3xx_hal_can.c ****   ==============================================================================
  19:Drivers/STM32F3xx_HAL_Driver/Src/stm32f3xx_hal_can.c ****     [..]            
  20:Drivers/STM32F3xx_HAL_Driver/Src/stm32f3xx_hal_can.c ****       (#) Enable the CAN controller interface clock using __HAL_RCC_CAN1_CLK_ENABLE(); 
  21:Drivers/STM32F3xx_HAL_Driver/Src/stm32f3xx_hal_can.c ****        
  22:Drivers/STM32F3xx_HAL_Driver/Src/stm32f3xx_hal_can.c ****       (#) CAN pins configuration
  23:Drivers/STM32F3xx_HAL_Driver/Src/stm32f3xx_hal_can.c ****         (++) Enable the clock for the CAN GPIOs using the following function:
  24:Drivers/STM32F3xx_HAL_Driver/Src/stm32f3xx_hal_can.c ****              __HAL_RCC_GPIOx_CLK_ENABLE();   
  25:Drivers/STM32F3xx_HAL_Driver/Src/stm32f3xx_hal_can.c ****         (++) Connect and configure the involved CAN pins to AF9 using the 
  26:Drivers/STM32F3xx_HAL_Driver/Src/stm32f3xx_hal_can.c ****               following function HAL_GPIO_Init(); 
  27:Drivers/STM32F3xx_HAL_Driver/Src/stm32f3xx_hal_can.c ****               
  28:Drivers/STM32F3xx_HAL_Driver/Src/stm32f3xx_hal_can.c ****       (#) Initialise and configure the CAN using HAL_CAN_Init() function.   
  29:Drivers/STM32F3xx_HAL_Driver/Src/stm32f3xx_hal_can.c ****                  
  30:Drivers/STM32F3xx_HAL_Driver/Src/stm32f3xx_hal_can.c ****       (#) Transmit the desired CAN frame using HAL_CAN_Transmit() function.
  31:Drivers/STM32F3xx_HAL_Driver/Src/stm32f3xx_hal_can.c ****            
ARM GAS  /var/folders/p7/nwmyw04531jbkqkgv59cx10h0000gn/T//ccKbzw64.s 			page 2


  32:Drivers/STM32F3xx_HAL_Driver/Src/stm32f3xx_hal_can.c ****       (#) Receive a CAN frame using HAL_CAN_Receive() function.
  33:Drivers/STM32F3xx_HAL_Driver/Src/stm32f3xx_hal_can.c **** 
  34:Drivers/STM32F3xx_HAL_Driver/Src/stm32f3xx_hal_can.c ****      *** Polling mode IO operation ***
  35:Drivers/STM32F3xx_HAL_Driver/Src/stm32f3xx_hal_can.c ****      =================================
  36:Drivers/STM32F3xx_HAL_Driver/Src/stm32f3xx_hal_can.c ****      [..]    
  37:Drivers/STM32F3xx_HAL_Driver/Src/stm32f3xx_hal_can.c ****        (+) Start the CAN peripheral transmission and wait the end of this operation 
  38:Drivers/STM32F3xx_HAL_Driver/Src/stm32f3xx_hal_can.c ****            using HAL_CAN_Transmit(), at this stage user can specify the value of timeout
  39:Drivers/STM32F3xx_HAL_Driver/Src/stm32f3xx_hal_can.c ****            according to his end application
  40:Drivers/STM32F3xx_HAL_Driver/Src/stm32f3xx_hal_can.c ****        (+) Start the CAN peripheral reception and wait the end of this operation 
  41:Drivers/STM32F3xx_HAL_Driver/Src/stm32f3xx_hal_can.c ****            using HAL_CAN_Receive(), at this stage user can specify the value of timeout
  42:Drivers/STM32F3xx_HAL_Driver/Src/stm32f3xx_hal_can.c ****            according to his end application 
  43:Drivers/STM32F3xx_HAL_Driver/Src/stm32f3xx_hal_can.c ****        
  44:Drivers/STM32F3xx_HAL_Driver/Src/stm32f3xx_hal_can.c ****      *** Interrupt mode IO operation ***    
  45:Drivers/STM32F3xx_HAL_Driver/Src/stm32f3xx_hal_can.c ****      ===================================
  46:Drivers/STM32F3xx_HAL_Driver/Src/stm32f3xx_hal_can.c ****      [..]    
  47:Drivers/STM32F3xx_HAL_Driver/Src/stm32f3xx_hal_can.c ****        (+) Start the CAN peripheral transmission using HAL_CAN_Transmit_IT()
  48:Drivers/STM32F3xx_HAL_Driver/Src/stm32f3xx_hal_can.c ****        (+) Start the CAN peripheral reception using HAL_CAN_Receive_IT()         
  49:Drivers/STM32F3xx_HAL_Driver/Src/stm32f3xx_hal_can.c ****        (+) Use HAL_CAN_IRQHandler() called under the used CAN Interrupt subroutine
  50:Drivers/STM32F3xx_HAL_Driver/Src/stm32f3xx_hal_can.c ****        (+) At CAN end of transmission HAL_CAN_TxCpltCallback() function is executed and user can 
  51:Drivers/STM32F3xx_HAL_Driver/Src/stm32f3xx_hal_can.c ****             add his own code by customization of function pointer HAL_CAN_TxCpltCallback 
  52:Drivers/STM32F3xx_HAL_Driver/Src/stm32f3xx_hal_can.c ****        (+) In case of CAN Error, HAL_CAN_ErrorCallback() function is executed and user can 
  53:Drivers/STM32F3xx_HAL_Driver/Src/stm32f3xx_hal_can.c ****             add his own code by customization of function pointer HAL_CAN_ErrorCallback
  54:Drivers/STM32F3xx_HAL_Driver/Src/stm32f3xx_hal_can.c ****  
  55:Drivers/STM32F3xx_HAL_Driver/Src/stm32f3xx_hal_can.c ****      *** CAN HAL driver macros list ***
  56:Drivers/STM32F3xx_HAL_Driver/Src/stm32f3xx_hal_can.c ****      ============================================= 
  57:Drivers/STM32F3xx_HAL_Driver/Src/stm32f3xx_hal_can.c ****      [..]
  58:Drivers/STM32F3xx_HAL_Driver/Src/stm32f3xx_hal_can.c ****        Below the list of most used macros in CAN HAL driver.
  59:Drivers/STM32F3xx_HAL_Driver/Src/stm32f3xx_hal_can.c ****        
  60:Drivers/STM32F3xx_HAL_Driver/Src/stm32f3xx_hal_can.c ****       (+) __HAL_CAN_ENABLE_IT: Enable the specified CAN interrupts
  61:Drivers/STM32F3xx_HAL_Driver/Src/stm32f3xx_hal_can.c ****       (+) __HAL_CAN_DISABLE_IT: Disable the specified CAN interrupts
  62:Drivers/STM32F3xx_HAL_Driver/Src/stm32f3xx_hal_can.c ****       (+) __HAL_CAN_GET_IT_SOURCE: Check if the specified CAN interrupt source is enabled or disabl
  63:Drivers/STM32F3xx_HAL_Driver/Src/stm32f3xx_hal_can.c ****       (+) __HAL_CAN_CLEAR_FLAG: Clear the CAN's pending flags
  64:Drivers/STM32F3xx_HAL_Driver/Src/stm32f3xx_hal_can.c ****       (+) __HAL_CAN_GET_FLAG: Get the selected CAN's flag status
  65:Drivers/STM32F3xx_HAL_Driver/Src/stm32f3xx_hal_can.c ****       
  66:Drivers/STM32F3xx_HAL_Driver/Src/stm32f3xx_hal_can.c ****      [..] 
  67:Drivers/STM32F3xx_HAL_Driver/Src/stm32f3xx_hal_can.c ****       (@) You can refer to the CAN HAL driver header file for more useful macros 
  68:Drivers/STM32F3xx_HAL_Driver/Src/stm32f3xx_hal_can.c ****                 
  69:Drivers/STM32F3xx_HAL_Driver/Src/stm32f3xx_hal_can.c ****   @endverbatim
  70:Drivers/STM32F3xx_HAL_Driver/Src/stm32f3xx_hal_can.c ****            
  71:Drivers/STM32F3xx_HAL_Driver/Src/stm32f3xx_hal_can.c ****   ******************************************************************************
  72:Drivers/STM32F3xx_HAL_Driver/Src/stm32f3xx_hal_can.c ****   * @attention
  73:Drivers/STM32F3xx_HAL_Driver/Src/stm32f3xx_hal_can.c ****   *
  74:Drivers/STM32F3xx_HAL_Driver/Src/stm32f3xx_hal_can.c ****   * <h2><center>&copy; COPYRIGHT(c) 2016 STMicroelectronics</center></h2>
  75:Drivers/STM32F3xx_HAL_Driver/Src/stm32f3xx_hal_can.c ****   *
  76:Drivers/STM32F3xx_HAL_Driver/Src/stm32f3xx_hal_can.c ****   * Redistribution and use in source and binary forms, with or without modification,
  77:Drivers/STM32F3xx_HAL_Driver/Src/stm32f3xx_hal_can.c ****   * are permitted provided that the following conditions are met:
  78:Drivers/STM32F3xx_HAL_Driver/Src/stm32f3xx_hal_can.c ****   *   1. Redistributions of source code must retain the above copyright notice,
  79:Drivers/STM32F3xx_HAL_Driver/Src/stm32f3xx_hal_can.c ****   *      this list of conditions and the following disclaimer.
  80:Drivers/STM32F3xx_HAL_Driver/Src/stm32f3xx_hal_can.c ****   *   2. Redistributions in binary form must reproduce the above copyright notice,
  81:Drivers/STM32F3xx_HAL_Driver/Src/stm32f3xx_hal_can.c ****   *      this list of conditions and the following disclaimer in the documentation
  82:Drivers/STM32F3xx_HAL_Driver/Src/stm32f3xx_hal_can.c ****   *      and/or other materials provided with the distribution.
  83:Drivers/STM32F3xx_HAL_Driver/Src/stm32f3xx_hal_can.c ****   *   3. Neither the name of STMicroelectronics nor the names of its contributors
  84:Drivers/STM32F3xx_HAL_Driver/Src/stm32f3xx_hal_can.c ****   *      may be used to endorse or promote products derived from this software
  85:Drivers/STM32F3xx_HAL_Driver/Src/stm32f3xx_hal_can.c ****   *      without specific prior written permission.
  86:Drivers/STM32F3xx_HAL_Driver/Src/stm32f3xx_hal_can.c ****   *
  87:Drivers/STM32F3xx_HAL_Driver/Src/stm32f3xx_hal_can.c ****   * THIS SOFTWARE IS PROVIDED BY THE COPYRIGHT HOLDERS AND CONTRIBUTORS "AS IS"
  88:Drivers/STM32F3xx_HAL_Driver/Src/stm32f3xx_hal_can.c ****   * AND ANY EXPRESS OR IMPLIED WARRANTIES, INCLUDING, BUT NOT LIMITED TO, THE
ARM GAS  /var/folders/p7/nwmyw04531jbkqkgv59cx10h0000gn/T//ccKbzw64.s 			page 3


  89:Drivers/STM32F3xx_HAL_Driver/Src/stm32f3xx_hal_can.c ****   * IMPLIED WARRANTIES OF MERCHANTABILITY AND FITNESS FOR A PARTICULAR PURPOSE ARE
  90:Drivers/STM32F3xx_HAL_Driver/Src/stm32f3xx_hal_can.c ****   * DISCLAIMED. IN NO EVENT SHALL THE COPYRIGHT HOLDER OR CONTRIBUTORS BE LIABLE
  91:Drivers/STM32F3xx_HAL_Driver/Src/stm32f3xx_hal_can.c ****   * FOR ANY DIRECT, INDIRECT, INCIDENTAL, SPECIAL, EXEMPLARY, OR CONSEQUENTIAL
  92:Drivers/STM32F3xx_HAL_Driver/Src/stm32f3xx_hal_can.c ****   * DAMAGES (INCLUDING, BUT NOT LIMITED TO, PROCUREMENT OF SUBSTITUTE GOODS OR
  93:Drivers/STM32F3xx_HAL_Driver/Src/stm32f3xx_hal_can.c ****   * SERVICES; LOSS OF USE, DATA, OR PROFITS; OR BUSINESS INTERRUPTION) HOWEVER
  94:Drivers/STM32F3xx_HAL_Driver/Src/stm32f3xx_hal_can.c ****   * CAUSED AND ON ANY THEORY OF LIABILITY, WHETHER IN CONTRACT, STRICT LIABILITY,
  95:Drivers/STM32F3xx_HAL_Driver/Src/stm32f3xx_hal_can.c ****   * OR TORT (INCLUDING NEGLIGENCE OR OTHERWISE) ARISING IN ANY WAY OUT OF THE USE
  96:Drivers/STM32F3xx_HAL_Driver/Src/stm32f3xx_hal_can.c ****   * OF THIS SOFTWARE, EVEN IF ADVISED OF THE POSSIBILITY OF SUCH DAMAGE.
  97:Drivers/STM32F3xx_HAL_Driver/Src/stm32f3xx_hal_can.c ****   *
  98:Drivers/STM32F3xx_HAL_Driver/Src/stm32f3xx_hal_can.c ****   ******************************************************************************  
  99:Drivers/STM32F3xx_HAL_Driver/Src/stm32f3xx_hal_can.c ****   */
 100:Drivers/STM32F3xx_HAL_Driver/Src/stm32f3xx_hal_can.c **** 
 101:Drivers/STM32F3xx_HAL_Driver/Src/stm32f3xx_hal_can.c **** /* Includes ------------------------------------------------------------------*/
 102:Drivers/STM32F3xx_HAL_Driver/Src/stm32f3xx_hal_can.c **** #include "stm32f3xx_hal.h"
 103:Drivers/STM32F3xx_HAL_Driver/Src/stm32f3xx_hal_can.c **** 
 104:Drivers/STM32F3xx_HAL_Driver/Src/stm32f3xx_hal_can.c **** /** @addtogroup STM32F3xx_HAL_Driver
 105:Drivers/STM32F3xx_HAL_Driver/Src/stm32f3xx_hal_can.c ****   * @{
 106:Drivers/STM32F3xx_HAL_Driver/Src/stm32f3xx_hal_can.c ****   */
 107:Drivers/STM32F3xx_HAL_Driver/Src/stm32f3xx_hal_can.c **** 
 108:Drivers/STM32F3xx_HAL_Driver/Src/stm32f3xx_hal_can.c **** /** @defgroup CAN CAN
 109:Drivers/STM32F3xx_HAL_Driver/Src/stm32f3xx_hal_can.c ****   * @brief CAN driver modules
 110:Drivers/STM32F3xx_HAL_Driver/Src/stm32f3xx_hal_can.c ****   * @{
 111:Drivers/STM32F3xx_HAL_Driver/Src/stm32f3xx_hal_can.c ****   */ 
 112:Drivers/STM32F3xx_HAL_Driver/Src/stm32f3xx_hal_can.c ****   
 113:Drivers/STM32F3xx_HAL_Driver/Src/stm32f3xx_hal_can.c **** #ifdef HAL_CAN_MODULE_ENABLED  
 114:Drivers/STM32F3xx_HAL_Driver/Src/stm32f3xx_hal_can.c ****   
 115:Drivers/STM32F3xx_HAL_Driver/Src/stm32f3xx_hal_can.c **** #if defined(STM32F302xE) || defined(STM32F303xE) || defined(STM32F398xx) || \
 116:Drivers/STM32F3xx_HAL_Driver/Src/stm32f3xx_hal_can.c ****     defined(STM32F302xC) || defined(STM32F303xC) || defined(STM32F358xx) || \
 117:Drivers/STM32F3xx_HAL_Driver/Src/stm32f3xx_hal_can.c ****     defined(STM32F303x8) || defined(STM32F334x8) || defined(STM32F328xx) || \
 118:Drivers/STM32F3xx_HAL_Driver/Src/stm32f3xx_hal_can.c ****     defined(STM32F302x8)                                                 || \
 119:Drivers/STM32F3xx_HAL_Driver/Src/stm32f3xx_hal_can.c ****     defined(STM32F373xC) || defined(STM32F378xx)
 120:Drivers/STM32F3xx_HAL_Driver/Src/stm32f3xx_hal_can.c ****   
 121:Drivers/STM32F3xx_HAL_Driver/Src/stm32f3xx_hal_can.c **** /* Private typedef -----------------------------------------------------------*/
 122:Drivers/STM32F3xx_HAL_Driver/Src/stm32f3xx_hal_can.c **** /* Private define ------------------------------------------------------------*/
 123:Drivers/STM32F3xx_HAL_Driver/Src/stm32f3xx_hal_can.c **** /** @defgroup CAN_Private_Constants CAN Private Constants
 124:Drivers/STM32F3xx_HAL_Driver/Src/stm32f3xx_hal_can.c ****   * @{
 125:Drivers/STM32F3xx_HAL_Driver/Src/stm32f3xx_hal_can.c ****   */
 126:Drivers/STM32F3xx_HAL_Driver/Src/stm32f3xx_hal_can.c **** #define CAN_TIMEOUT_VALUE 10
 127:Drivers/STM32F3xx_HAL_Driver/Src/stm32f3xx_hal_can.c **** /**
 128:Drivers/STM32F3xx_HAL_Driver/Src/stm32f3xx_hal_can.c ****   * @}
 129:Drivers/STM32F3xx_HAL_Driver/Src/stm32f3xx_hal_can.c ****   */
 130:Drivers/STM32F3xx_HAL_Driver/Src/stm32f3xx_hal_can.c **** /* Private macro -------------------------------------------------------------*/
 131:Drivers/STM32F3xx_HAL_Driver/Src/stm32f3xx_hal_can.c **** /* Private variables ---------------------------------------------------------*/
 132:Drivers/STM32F3xx_HAL_Driver/Src/stm32f3xx_hal_can.c **** /* Private function prototypes -----------------------------------------------*/
 133:Drivers/STM32F3xx_HAL_Driver/Src/stm32f3xx_hal_can.c **** /** @defgroup CAN_Private_Functions CAN Private Functions
 134:Drivers/STM32F3xx_HAL_Driver/Src/stm32f3xx_hal_can.c ****   * @{
 135:Drivers/STM32F3xx_HAL_Driver/Src/stm32f3xx_hal_can.c ****   */
 136:Drivers/STM32F3xx_HAL_Driver/Src/stm32f3xx_hal_can.c **** static HAL_StatusTypeDef CAN_Receive_IT(CAN_HandleTypeDef* hcan, uint8_t FIFONumber);
 137:Drivers/STM32F3xx_HAL_Driver/Src/stm32f3xx_hal_can.c **** static HAL_StatusTypeDef CAN_Transmit_IT(CAN_HandleTypeDef* hcan);
 138:Drivers/STM32F3xx_HAL_Driver/Src/stm32f3xx_hal_can.c **** /**
 139:Drivers/STM32F3xx_HAL_Driver/Src/stm32f3xx_hal_can.c ****   * @}
 140:Drivers/STM32F3xx_HAL_Driver/Src/stm32f3xx_hal_can.c ****   */
 141:Drivers/STM32F3xx_HAL_Driver/Src/stm32f3xx_hal_can.c ****   
 142:Drivers/STM32F3xx_HAL_Driver/Src/stm32f3xx_hal_can.c **** /* Exported functions ---------------------------------------------------------*/
 143:Drivers/STM32F3xx_HAL_Driver/Src/stm32f3xx_hal_can.c **** 
 144:Drivers/STM32F3xx_HAL_Driver/Src/stm32f3xx_hal_can.c **** /** @defgroup CAN_Exported_Functions CAN Exported Functions
 145:Drivers/STM32F3xx_HAL_Driver/Src/stm32f3xx_hal_can.c ****   * @{
ARM GAS  /var/folders/p7/nwmyw04531jbkqkgv59cx10h0000gn/T//ccKbzw64.s 			page 4


 146:Drivers/STM32F3xx_HAL_Driver/Src/stm32f3xx_hal_can.c ****   */
 147:Drivers/STM32F3xx_HAL_Driver/Src/stm32f3xx_hal_can.c **** 
 148:Drivers/STM32F3xx_HAL_Driver/Src/stm32f3xx_hal_can.c **** /** @defgroup CAN_Exported_Functions_Group1 Initialization and de-initialization functions 
 149:Drivers/STM32F3xx_HAL_Driver/Src/stm32f3xx_hal_can.c ****  *  @brief    Initialization and Configuration functions 
 150:Drivers/STM32F3xx_HAL_Driver/Src/stm32f3xx_hal_can.c ****  *
 151:Drivers/STM32F3xx_HAL_Driver/Src/stm32f3xx_hal_can.c **** @verbatim    
 152:Drivers/STM32F3xx_HAL_Driver/Src/stm32f3xx_hal_can.c ****   ==============================================================================
 153:Drivers/STM32F3xx_HAL_Driver/Src/stm32f3xx_hal_can.c ****               ##### Initialization and de-initialization functions #####
 154:Drivers/STM32F3xx_HAL_Driver/Src/stm32f3xx_hal_can.c ****   ==============================================================================
 155:Drivers/STM32F3xx_HAL_Driver/Src/stm32f3xx_hal_can.c ****     [..]  This section provides functions allowing to:
 156:Drivers/STM32F3xx_HAL_Driver/Src/stm32f3xx_hal_can.c ****       (+) Initialize and configure the CAN. 
 157:Drivers/STM32F3xx_HAL_Driver/Src/stm32f3xx_hal_can.c ****       (+) De-initialize the CAN. 
 158:Drivers/STM32F3xx_HAL_Driver/Src/stm32f3xx_hal_can.c ****          
 159:Drivers/STM32F3xx_HAL_Driver/Src/stm32f3xx_hal_can.c **** @endverbatim
 160:Drivers/STM32F3xx_HAL_Driver/Src/stm32f3xx_hal_can.c ****   * @{
 161:Drivers/STM32F3xx_HAL_Driver/Src/stm32f3xx_hal_can.c ****   */
 162:Drivers/STM32F3xx_HAL_Driver/Src/stm32f3xx_hal_can.c ****   
 163:Drivers/STM32F3xx_HAL_Driver/Src/stm32f3xx_hal_can.c **** /**
 164:Drivers/STM32F3xx_HAL_Driver/Src/stm32f3xx_hal_can.c ****   * @brief Initializes the CAN peripheral according to the specified
 165:Drivers/STM32F3xx_HAL_Driver/Src/stm32f3xx_hal_can.c ****   *        parameters in the CAN_InitStruct.
 166:Drivers/STM32F3xx_HAL_Driver/Src/stm32f3xx_hal_can.c ****   * @param  hcan: pointer to a CAN_HandleTypeDef structure that contains
 167:Drivers/STM32F3xx_HAL_Driver/Src/stm32f3xx_hal_can.c ****   *             the configuration information for the specified CAN.  
 168:Drivers/STM32F3xx_HAL_Driver/Src/stm32f3xx_hal_can.c ****   * @retval HAL status
 169:Drivers/STM32F3xx_HAL_Driver/Src/stm32f3xx_hal_can.c ****   */
 170:Drivers/STM32F3xx_HAL_Driver/Src/stm32f3xx_hal_can.c **** HAL_StatusTypeDef HAL_CAN_Init(CAN_HandleTypeDef* hcan)
 171:Drivers/STM32F3xx_HAL_Driver/Src/stm32f3xx_hal_can.c **** {
 172:Drivers/STM32F3xx_HAL_Driver/Src/stm32f3xx_hal_can.c ****   uint32_t status = CAN_INITSTATUS_FAILED;  /* Default init status */
 173:Drivers/STM32F3xx_HAL_Driver/Src/stm32f3xx_hal_can.c ****   uint32_t tickstart = 0U;
 174:Drivers/STM32F3xx_HAL_Driver/Src/stm32f3xx_hal_can.c ****   
 175:Drivers/STM32F3xx_HAL_Driver/Src/stm32f3xx_hal_can.c ****   /* Check CAN handle */
 176:Drivers/STM32F3xx_HAL_Driver/Src/stm32f3xx_hal_can.c ****   if(hcan == NULL)
 177:Drivers/STM32F3xx_HAL_Driver/Src/stm32f3xx_hal_can.c ****   {
 178:Drivers/STM32F3xx_HAL_Driver/Src/stm32f3xx_hal_can.c ****      return HAL_ERROR;
 179:Drivers/STM32F3xx_HAL_Driver/Src/stm32f3xx_hal_can.c ****   }
 180:Drivers/STM32F3xx_HAL_Driver/Src/stm32f3xx_hal_can.c **** 
 181:Drivers/STM32F3xx_HAL_Driver/Src/stm32f3xx_hal_can.c ****   /* Check the parameters */
 182:Drivers/STM32F3xx_HAL_Driver/Src/stm32f3xx_hal_can.c ****   assert_param(IS_CAN_ALL_INSTANCE(hcan->Instance));
 183:Drivers/STM32F3xx_HAL_Driver/Src/stm32f3xx_hal_can.c ****   assert_param(IS_FUNCTIONAL_STATE(hcan->Init.TTCM));
 184:Drivers/STM32F3xx_HAL_Driver/Src/stm32f3xx_hal_can.c ****   assert_param(IS_FUNCTIONAL_STATE(hcan->Init.ABOM));
 185:Drivers/STM32F3xx_HAL_Driver/Src/stm32f3xx_hal_can.c ****   assert_param(IS_FUNCTIONAL_STATE(hcan->Init.AWUM));
 186:Drivers/STM32F3xx_HAL_Driver/Src/stm32f3xx_hal_can.c ****   assert_param(IS_FUNCTIONAL_STATE(hcan->Init.NART));
 187:Drivers/STM32F3xx_HAL_Driver/Src/stm32f3xx_hal_can.c ****   assert_param(IS_FUNCTIONAL_STATE(hcan->Init.RFLM));
 188:Drivers/STM32F3xx_HAL_Driver/Src/stm32f3xx_hal_can.c ****   assert_param(IS_FUNCTIONAL_STATE(hcan->Init.TXFP));
 189:Drivers/STM32F3xx_HAL_Driver/Src/stm32f3xx_hal_can.c ****   assert_param(IS_CAN_MODE(hcan->Init.Mode));
 190:Drivers/STM32F3xx_HAL_Driver/Src/stm32f3xx_hal_can.c ****   assert_param(IS_CAN_SJW(hcan->Init.SJW));
 191:Drivers/STM32F3xx_HAL_Driver/Src/stm32f3xx_hal_can.c ****   assert_param(IS_CAN_BS1(hcan->Init.BS1));
 192:Drivers/STM32F3xx_HAL_Driver/Src/stm32f3xx_hal_can.c ****   assert_param(IS_CAN_BS2(hcan->Init.BS2));
 193:Drivers/STM32F3xx_HAL_Driver/Src/stm32f3xx_hal_can.c ****   assert_param(IS_CAN_PRESCALER(hcan->Init.Prescaler));
 194:Drivers/STM32F3xx_HAL_Driver/Src/stm32f3xx_hal_can.c ****   
 195:Drivers/STM32F3xx_HAL_Driver/Src/stm32f3xx_hal_can.c ****   if(hcan->State == HAL_CAN_STATE_RESET)
 196:Drivers/STM32F3xx_HAL_Driver/Src/stm32f3xx_hal_can.c ****   {
 197:Drivers/STM32F3xx_HAL_Driver/Src/stm32f3xx_hal_can.c ****     /* Allocate lock resource and initialize it */
 198:Drivers/STM32F3xx_HAL_Driver/Src/stm32f3xx_hal_can.c ****     hcan->Lock = HAL_UNLOCKED;
 199:Drivers/STM32F3xx_HAL_Driver/Src/stm32f3xx_hal_can.c ****     /* Init the low level hardware */
 200:Drivers/STM32F3xx_HAL_Driver/Src/stm32f3xx_hal_can.c ****     HAL_CAN_MspInit(hcan);
 201:Drivers/STM32F3xx_HAL_Driver/Src/stm32f3xx_hal_can.c ****   }
 202:Drivers/STM32F3xx_HAL_Driver/Src/stm32f3xx_hal_can.c ****   
ARM GAS  /var/folders/p7/nwmyw04531jbkqkgv59cx10h0000gn/T//ccKbzw64.s 			page 5


 203:Drivers/STM32F3xx_HAL_Driver/Src/stm32f3xx_hal_can.c ****   /* Initialize the CAN state*/
 204:Drivers/STM32F3xx_HAL_Driver/Src/stm32f3xx_hal_can.c ****   hcan->State = HAL_CAN_STATE_BUSY;
 205:Drivers/STM32F3xx_HAL_Driver/Src/stm32f3xx_hal_can.c ****   
 206:Drivers/STM32F3xx_HAL_Driver/Src/stm32f3xx_hal_can.c ****   /* Exit from sleep mode */
 207:Drivers/STM32F3xx_HAL_Driver/Src/stm32f3xx_hal_can.c ****   hcan->Instance->MCR &= (~(uint32_t)CAN_MCR_SLEEP);
 208:Drivers/STM32F3xx_HAL_Driver/Src/stm32f3xx_hal_can.c **** 
 209:Drivers/STM32F3xx_HAL_Driver/Src/stm32f3xx_hal_can.c ****   /* Request initialisation */
 210:Drivers/STM32F3xx_HAL_Driver/Src/stm32f3xx_hal_can.c ****   hcan->Instance->MCR |= CAN_MCR_INRQ ;
 211:Drivers/STM32F3xx_HAL_Driver/Src/stm32f3xx_hal_can.c **** 
 212:Drivers/STM32F3xx_HAL_Driver/Src/stm32f3xx_hal_can.c ****   /* Get tick */
 213:Drivers/STM32F3xx_HAL_Driver/Src/stm32f3xx_hal_can.c ****   tickstart = HAL_GetTick();   
 214:Drivers/STM32F3xx_HAL_Driver/Src/stm32f3xx_hal_can.c ****   
 215:Drivers/STM32F3xx_HAL_Driver/Src/stm32f3xx_hal_can.c ****   /* Wait the acknowledge */
 216:Drivers/STM32F3xx_HAL_Driver/Src/stm32f3xx_hal_can.c ****   while((hcan->Instance->MSR & CAN_MSR_INAK) != CAN_MSR_INAK)
 217:Drivers/STM32F3xx_HAL_Driver/Src/stm32f3xx_hal_can.c ****   {
 218:Drivers/STM32F3xx_HAL_Driver/Src/stm32f3xx_hal_can.c ****     if((HAL_GetTick()-tickstart) > CAN_TIMEOUT_VALUE)
 219:Drivers/STM32F3xx_HAL_Driver/Src/stm32f3xx_hal_can.c ****     {
 220:Drivers/STM32F3xx_HAL_Driver/Src/stm32f3xx_hal_can.c ****       hcan->State= HAL_CAN_STATE_TIMEOUT;
 221:Drivers/STM32F3xx_HAL_Driver/Src/stm32f3xx_hal_can.c ****       /* Process unlocked */
 222:Drivers/STM32F3xx_HAL_Driver/Src/stm32f3xx_hal_can.c ****       __HAL_UNLOCK(hcan);
 223:Drivers/STM32F3xx_HAL_Driver/Src/stm32f3xx_hal_can.c ****       return HAL_TIMEOUT;
 224:Drivers/STM32F3xx_HAL_Driver/Src/stm32f3xx_hal_can.c ****     }
 225:Drivers/STM32F3xx_HAL_Driver/Src/stm32f3xx_hal_can.c ****   }
 226:Drivers/STM32F3xx_HAL_Driver/Src/stm32f3xx_hal_can.c **** 
 227:Drivers/STM32F3xx_HAL_Driver/Src/stm32f3xx_hal_can.c ****   /* Check acknowledge */
 228:Drivers/STM32F3xx_HAL_Driver/Src/stm32f3xx_hal_can.c ****   if ((hcan->Instance->MSR & CAN_MSR_INAK) == CAN_MSR_INAK)
 229:Drivers/STM32F3xx_HAL_Driver/Src/stm32f3xx_hal_can.c ****   {
 230:Drivers/STM32F3xx_HAL_Driver/Src/stm32f3xx_hal_can.c ****     /* Set the time triggered communication mode */
 231:Drivers/STM32F3xx_HAL_Driver/Src/stm32f3xx_hal_can.c ****     if (hcan->Init.TTCM == ENABLE)
 232:Drivers/STM32F3xx_HAL_Driver/Src/stm32f3xx_hal_can.c ****     {
 233:Drivers/STM32F3xx_HAL_Driver/Src/stm32f3xx_hal_can.c ****       hcan->Instance->MCR |= CAN_MCR_TTCM;
 234:Drivers/STM32F3xx_HAL_Driver/Src/stm32f3xx_hal_can.c ****     }
 235:Drivers/STM32F3xx_HAL_Driver/Src/stm32f3xx_hal_can.c ****     else
 236:Drivers/STM32F3xx_HAL_Driver/Src/stm32f3xx_hal_can.c ****     {
 237:Drivers/STM32F3xx_HAL_Driver/Src/stm32f3xx_hal_can.c ****       hcan->Instance->MCR &= ~(uint32_t)CAN_MCR_TTCM;
 238:Drivers/STM32F3xx_HAL_Driver/Src/stm32f3xx_hal_can.c ****     }
 239:Drivers/STM32F3xx_HAL_Driver/Src/stm32f3xx_hal_can.c **** 
 240:Drivers/STM32F3xx_HAL_Driver/Src/stm32f3xx_hal_can.c ****     /* Set the automatic bus-off management */
 241:Drivers/STM32F3xx_HAL_Driver/Src/stm32f3xx_hal_can.c ****     if (hcan->Init.ABOM == ENABLE)
 242:Drivers/STM32F3xx_HAL_Driver/Src/stm32f3xx_hal_can.c ****     {
 243:Drivers/STM32F3xx_HAL_Driver/Src/stm32f3xx_hal_can.c ****       hcan->Instance->MCR |= CAN_MCR_ABOM;
 244:Drivers/STM32F3xx_HAL_Driver/Src/stm32f3xx_hal_can.c ****     }
 245:Drivers/STM32F3xx_HAL_Driver/Src/stm32f3xx_hal_can.c ****     else
 246:Drivers/STM32F3xx_HAL_Driver/Src/stm32f3xx_hal_can.c ****     {
 247:Drivers/STM32F3xx_HAL_Driver/Src/stm32f3xx_hal_can.c ****       hcan->Instance->MCR &= ~(uint32_t)CAN_MCR_ABOM;
 248:Drivers/STM32F3xx_HAL_Driver/Src/stm32f3xx_hal_can.c ****     }
 249:Drivers/STM32F3xx_HAL_Driver/Src/stm32f3xx_hal_can.c **** 
 250:Drivers/STM32F3xx_HAL_Driver/Src/stm32f3xx_hal_can.c ****     /* Set the automatic wake-up mode */
 251:Drivers/STM32F3xx_HAL_Driver/Src/stm32f3xx_hal_can.c ****     if (hcan->Init.AWUM == ENABLE)
 252:Drivers/STM32F3xx_HAL_Driver/Src/stm32f3xx_hal_can.c ****     {
 253:Drivers/STM32F3xx_HAL_Driver/Src/stm32f3xx_hal_can.c ****       hcan->Instance->MCR |= CAN_MCR_AWUM;
 254:Drivers/STM32F3xx_HAL_Driver/Src/stm32f3xx_hal_can.c ****     }
 255:Drivers/STM32F3xx_HAL_Driver/Src/stm32f3xx_hal_can.c ****     else
 256:Drivers/STM32F3xx_HAL_Driver/Src/stm32f3xx_hal_can.c ****     {
 257:Drivers/STM32F3xx_HAL_Driver/Src/stm32f3xx_hal_can.c ****       hcan->Instance->MCR &= ~(uint32_t)CAN_MCR_AWUM;
 258:Drivers/STM32F3xx_HAL_Driver/Src/stm32f3xx_hal_can.c ****     }
 259:Drivers/STM32F3xx_HAL_Driver/Src/stm32f3xx_hal_can.c **** 
ARM GAS  /var/folders/p7/nwmyw04531jbkqkgv59cx10h0000gn/T//ccKbzw64.s 			page 6


 260:Drivers/STM32F3xx_HAL_Driver/Src/stm32f3xx_hal_can.c ****     /* Set the no automatic retransmission */
 261:Drivers/STM32F3xx_HAL_Driver/Src/stm32f3xx_hal_can.c ****     if (hcan->Init.NART == ENABLE)
 262:Drivers/STM32F3xx_HAL_Driver/Src/stm32f3xx_hal_can.c ****     {
 263:Drivers/STM32F3xx_HAL_Driver/Src/stm32f3xx_hal_can.c ****       hcan->Instance->MCR |= CAN_MCR_NART;
 264:Drivers/STM32F3xx_HAL_Driver/Src/stm32f3xx_hal_can.c ****     }
 265:Drivers/STM32F3xx_HAL_Driver/Src/stm32f3xx_hal_can.c ****     else
 266:Drivers/STM32F3xx_HAL_Driver/Src/stm32f3xx_hal_can.c ****     {
 267:Drivers/STM32F3xx_HAL_Driver/Src/stm32f3xx_hal_can.c ****       hcan->Instance->MCR &= ~(uint32_t)CAN_MCR_NART;
 268:Drivers/STM32F3xx_HAL_Driver/Src/stm32f3xx_hal_can.c ****     }
 269:Drivers/STM32F3xx_HAL_Driver/Src/stm32f3xx_hal_can.c **** 
 270:Drivers/STM32F3xx_HAL_Driver/Src/stm32f3xx_hal_can.c ****     /* Set the receive FIFO locked mode */
 271:Drivers/STM32F3xx_HAL_Driver/Src/stm32f3xx_hal_can.c ****     if (hcan->Init.RFLM == ENABLE)
 272:Drivers/STM32F3xx_HAL_Driver/Src/stm32f3xx_hal_can.c ****     {
 273:Drivers/STM32F3xx_HAL_Driver/Src/stm32f3xx_hal_can.c ****       hcan->Instance->MCR |= CAN_MCR_RFLM;
 274:Drivers/STM32F3xx_HAL_Driver/Src/stm32f3xx_hal_can.c ****     }
 275:Drivers/STM32F3xx_HAL_Driver/Src/stm32f3xx_hal_can.c ****     else
 276:Drivers/STM32F3xx_HAL_Driver/Src/stm32f3xx_hal_can.c ****     {
 277:Drivers/STM32F3xx_HAL_Driver/Src/stm32f3xx_hal_can.c ****       hcan->Instance->MCR &= ~(uint32_t)CAN_MCR_RFLM;
 278:Drivers/STM32F3xx_HAL_Driver/Src/stm32f3xx_hal_can.c ****     }
 279:Drivers/STM32F3xx_HAL_Driver/Src/stm32f3xx_hal_can.c **** 
 280:Drivers/STM32F3xx_HAL_Driver/Src/stm32f3xx_hal_can.c ****     /* Set the transmit FIFO priority */
 281:Drivers/STM32F3xx_HAL_Driver/Src/stm32f3xx_hal_can.c ****     if (hcan->Init.TXFP == ENABLE)
 282:Drivers/STM32F3xx_HAL_Driver/Src/stm32f3xx_hal_can.c ****     {
 283:Drivers/STM32F3xx_HAL_Driver/Src/stm32f3xx_hal_can.c ****       hcan->Instance->MCR |= CAN_MCR_TXFP;
 284:Drivers/STM32F3xx_HAL_Driver/Src/stm32f3xx_hal_can.c ****     }
 285:Drivers/STM32F3xx_HAL_Driver/Src/stm32f3xx_hal_can.c ****     else
 286:Drivers/STM32F3xx_HAL_Driver/Src/stm32f3xx_hal_can.c ****     {
 287:Drivers/STM32F3xx_HAL_Driver/Src/stm32f3xx_hal_can.c ****       hcan->Instance->MCR &= ~(uint32_t)CAN_MCR_TXFP;
 288:Drivers/STM32F3xx_HAL_Driver/Src/stm32f3xx_hal_can.c ****     }
 289:Drivers/STM32F3xx_HAL_Driver/Src/stm32f3xx_hal_can.c **** 
 290:Drivers/STM32F3xx_HAL_Driver/Src/stm32f3xx_hal_can.c ****     /* Set the bit timing register */
 291:Drivers/STM32F3xx_HAL_Driver/Src/stm32f3xx_hal_can.c ****     hcan->Instance->BTR = (uint32_t)((uint32_t)hcan->Init.Mode) | \
 292:Drivers/STM32F3xx_HAL_Driver/Src/stm32f3xx_hal_can.c ****                 ((uint32_t)hcan->Init.SJW) | \
 293:Drivers/STM32F3xx_HAL_Driver/Src/stm32f3xx_hal_can.c ****                 ((uint32_t)hcan->Init.BS1) | \
 294:Drivers/STM32F3xx_HAL_Driver/Src/stm32f3xx_hal_can.c ****                 ((uint32_t)hcan->Init.BS2) | \
 295:Drivers/STM32F3xx_HAL_Driver/Src/stm32f3xx_hal_can.c ****                ((uint32_t)hcan->Init.Prescaler - 1U);
 296:Drivers/STM32F3xx_HAL_Driver/Src/stm32f3xx_hal_can.c **** 
 297:Drivers/STM32F3xx_HAL_Driver/Src/stm32f3xx_hal_can.c ****     /* Request leave initialisation */
 298:Drivers/STM32F3xx_HAL_Driver/Src/stm32f3xx_hal_can.c ****     hcan->Instance->MCR &= ~(uint32_t)CAN_MCR_INRQ;
 299:Drivers/STM32F3xx_HAL_Driver/Src/stm32f3xx_hal_can.c **** 
 300:Drivers/STM32F3xx_HAL_Driver/Src/stm32f3xx_hal_can.c ****     /* Get tick */
 301:Drivers/STM32F3xx_HAL_Driver/Src/stm32f3xx_hal_can.c ****     tickstart = HAL_GetTick();   
 302:Drivers/STM32F3xx_HAL_Driver/Src/stm32f3xx_hal_can.c ****    
 303:Drivers/STM32F3xx_HAL_Driver/Src/stm32f3xx_hal_can.c ****     /* Wait the acknowledge */
 304:Drivers/STM32F3xx_HAL_Driver/Src/stm32f3xx_hal_can.c ****     while((hcan->Instance->MSR & CAN_MSR_INAK) == CAN_MSR_INAK)
 305:Drivers/STM32F3xx_HAL_Driver/Src/stm32f3xx_hal_can.c ****     {
 306:Drivers/STM32F3xx_HAL_Driver/Src/stm32f3xx_hal_can.c ****       if((HAL_GetTick()-tickstart) > CAN_TIMEOUT_VALUE)
 307:Drivers/STM32F3xx_HAL_Driver/Src/stm32f3xx_hal_can.c ****       {
 308:Drivers/STM32F3xx_HAL_Driver/Src/stm32f3xx_hal_can.c ****          hcan->State= HAL_CAN_STATE_TIMEOUT;
 309:Drivers/STM32F3xx_HAL_Driver/Src/stm32f3xx_hal_can.c ****        /* Process unlocked */
 310:Drivers/STM32F3xx_HAL_Driver/Src/stm32f3xx_hal_can.c ****        __HAL_UNLOCK(hcan);
 311:Drivers/STM32F3xx_HAL_Driver/Src/stm32f3xx_hal_can.c ****          return HAL_TIMEOUT;
 312:Drivers/STM32F3xx_HAL_Driver/Src/stm32f3xx_hal_can.c ****       }
 313:Drivers/STM32F3xx_HAL_Driver/Src/stm32f3xx_hal_can.c ****     }
 314:Drivers/STM32F3xx_HAL_Driver/Src/stm32f3xx_hal_can.c **** 
 315:Drivers/STM32F3xx_HAL_Driver/Src/stm32f3xx_hal_can.c ****     /* Check acknowledged */
 316:Drivers/STM32F3xx_HAL_Driver/Src/stm32f3xx_hal_can.c ****     if ((hcan->Instance->MSR & CAN_MSR_INAK) != CAN_MSR_INAK)
ARM GAS  /var/folders/p7/nwmyw04531jbkqkgv59cx10h0000gn/T//ccKbzw64.s 			page 7


 317:Drivers/STM32F3xx_HAL_Driver/Src/stm32f3xx_hal_can.c ****     {
 318:Drivers/STM32F3xx_HAL_Driver/Src/stm32f3xx_hal_can.c ****       status = CAN_INITSTATUS_SUCCESS;
 319:Drivers/STM32F3xx_HAL_Driver/Src/stm32f3xx_hal_can.c ****     }
 320:Drivers/STM32F3xx_HAL_Driver/Src/stm32f3xx_hal_can.c ****   }
 321:Drivers/STM32F3xx_HAL_Driver/Src/stm32f3xx_hal_can.c ****  
 322:Drivers/STM32F3xx_HAL_Driver/Src/stm32f3xx_hal_can.c ****   if(status == CAN_INITSTATUS_SUCCESS)
 323:Drivers/STM32F3xx_HAL_Driver/Src/stm32f3xx_hal_can.c ****   {
 324:Drivers/STM32F3xx_HAL_Driver/Src/stm32f3xx_hal_can.c ****     /* Set CAN error code to none */
 325:Drivers/STM32F3xx_HAL_Driver/Src/stm32f3xx_hal_can.c ****     hcan->ErrorCode = HAL_CAN_ERROR_NONE;
 326:Drivers/STM32F3xx_HAL_Driver/Src/stm32f3xx_hal_can.c ****     
 327:Drivers/STM32F3xx_HAL_Driver/Src/stm32f3xx_hal_can.c ****     /* Initialize the CAN state */
 328:Drivers/STM32F3xx_HAL_Driver/Src/stm32f3xx_hal_can.c ****     hcan->State = HAL_CAN_STATE_READY;
 329:Drivers/STM32F3xx_HAL_Driver/Src/stm32f3xx_hal_can.c ****   
 330:Drivers/STM32F3xx_HAL_Driver/Src/stm32f3xx_hal_can.c ****     /* Return function status */
 331:Drivers/STM32F3xx_HAL_Driver/Src/stm32f3xx_hal_can.c ****     return HAL_OK;
 332:Drivers/STM32F3xx_HAL_Driver/Src/stm32f3xx_hal_can.c ****   }
 333:Drivers/STM32F3xx_HAL_Driver/Src/stm32f3xx_hal_can.c ****   else
 334:Drivers/STM32F3xx_HAL_Driver/Src/stm32f3xx_hal_can.c ****   {
 335:Drivers/STM32F3xx_HAL_Driver/Src/stm32f3xx_hal_can.c ****     /* Initialize the CAN state */
 336:Drivers/STM32F3xx_HAL_Driver/Src/stm32f3xx_hal_can.c ****     hcan->State = HAL_CAN_STATE_ERROR;
 337:Drivers/STM32F3xx_HAL_Driver/Src/stm32f3xx_hal_can.c **** 
 338:Drivers/STM32F3xx_HAL_Driver/Src/stm32f3xx_hal_can.c ****     /* Return function status */
 339:Drivers/STM32F3xx_HAL_Driver/Src/stm32f3xx_hal_can.c ****     return HAL_ERROR;
 340:Drivers/STM32F3xx_HAL_Driver/Src/stm32f3xx_hal_can.c ****   }
 341:Drivers/STM32F3xx_HAL_Driver/Src/stm32f3xx_hal_can.c **** }
 342:Drivers/STM32F3xx_HAL_Driver/Src/stm32f3xx_hal_can.c **** 
 343:Drivers/STM32F3xx_HAL_Driver/Src/stm32f3xx_hal_can.c **** /**
 344:Drivers/STM32F3xx_HAL_Driver/Src/stm32f3xx_hal_can.c ****   * @brief  Configures the CAN reception filter according to the specified
 345:Drivers/STM32F3xx_HAL_Driver/Src/stm32f3xx_hal_can.c ****   *         parameters in the CAN_FilterInitStruct.
 346:Drivers/STM32F3xx_HAL_Driver/Src/stm32f3xx_hal_can.c ****   * @param  hcan: pointer to a CAN_HandleTypeDef structure that contains
 347:Drivers/STM32F3xx_HAL_Driver/Src/stm32f3xx_hal_can.c ****   *         the configuration information for the specified CAN.
 348:Drivers/STM32F3xx_HAL_Driver/Src/stm32f3xx_hal_can.c ****   * @param  sFilterConfig: pointer to a CAN_FilterConfTypeDef structure that
 349:Drivers/STM32F3xx_HAL_Driver/Src/stm32f3xx_hal_can.c ****   *         contains the filter configuration information.
 350:Drivers/STM32F3xx_HAL_Driver/Src/stm32f3xx_hal_can.c ****   * @retval None
 351:Drivers/STM32F3xx_HAL_Driver/Src/stm32f3xx_hal_can.c ****   */
 352:Drivers/STM32F3xx_HAL_Driver/Src/stm32f3xx_hal_can.c **** HAL_StatusTypeDef HAL_CAN_ConfigFilter(CAN_HandleTypeDef* hcan, CAN_FilterConfTypeDef* sFilterConfi
 353:Drivers/STM32F3xx_HAL_Driver/Src/stm32f3xx_hal_can.c **** {
  28              		.loc 1 353 0
  29              		.cfi_startproc
  30              		@ args = 0, pretend = 0, frame = 0
  31              		@ frame_needed = 0, uses_anonymous_args = 0
  32              		@ link register save eliminated.
  33              	.LVL0:
  34 0000 F0B4     		push	{r4, r5, r6, r7}
  35              	.LCFI0:
  36              		.cfi_def_cfa_offset 16
  37              		.cfi_offset 4, -16
  38              		.cfi_offset 5, -12
  39              		.cfi_offset 6, -8
  40              		.cfi_offset 7, -4
  41              	.LVL1:
 354:Drivers/STM32F3xx_HAL_Driver/Src/stm32f3xx_hal_can.c ****   uint32_t filternbrbitpos = 0U;
 355:Drivers/STM32F3xx_HAL_Driver/Src/stm32f3xx_hal_can.c ****   
 356:Drivers/STM32F3xx_HAL_Driver/Src/stm32f3xx_hal_can.c ****   /* Check the parameters */
 357:Drivers/STM32F3xx_HAL_Driver/Src/stm32f3xx_hal_can.c ****   assert_param(IS_CAN_FILTER_NUMBER(sFilterConfig->FilterNumber));
 358:Drivers/STM32F3xx_HAL_Driver/Src/stm32f3xx_hal_can.c ****   assert_param(IS_CAN_FILTER_MODE(sFilterConfig->FilterMode));
 359:Drivers/STM32F3xx_HAL_Driver/Src/stm32f3xx_hal_can.c ****   assert_param(IS_CAN_FILTER_SCALE(sFilterConfig->FilterScale));
ARM GAS  /var/folders/p7/nwmyw04531jbkqkgv59cx10h0000gn/T//ccKbzw64.s 			page 8


 360:Drivers/STM32F3xx_HAL_Driver/Src/stm32f3xx_hal_can.c ****   assert_param(IS_CAN_FILTER_FIFO(sFilterConfig->FilterFIFOAssignment));
 361:Drivers/STM32F3xx_HAL_Driver/Src/stm32f3xx_hal_can.c ****   assert_param(IS_FUNCTIONAL_STATE(sFilterConfig->FilterActivation));
 362:Drivers/STM32F3xx_HAL_Driver/Src/stm32f3xx_hal_can.c ****   
 363:Drivers/STM32F3xx_HAL_Driver/Src/stm32f3xx_hal_can.c ****   filternbrbitpos = (1U) << sFilterConfig->FilterNumber;
  42              		.loc 1 363 0
  43 0002 4B69     		ldr	r3, [r1, #20]
  44 0004 0122     		movs	r2, #1
  45 0006 02FA03F3 		lsl	r3, r2, r3
  46              	.LVL2:
 364:Drivers/STM32F3xx_HAL_Driver/Src/stm32f3xx_hal_can.c **** 
 365:Drivers/STM32F3xx_HAL_Driver/Src/stm32f3xx_hal_can.c ****   /* Initialisation mode for the filter */
 366:Drivers/STM32F3xx_HAL_Driver/Src/stm32f3xx_hal_can.c ****   hcan->Instance->FMR |= (uint32_t)CAN_FMR_FINIT;
  47              		.loc 1 366 0
  48 000a 0468     		ldr	r4, [r0]
  49 000c D4F80022 		ldr	r2, [r4, #512]
  50 0010 42F00102 		orr	r2, r2, #1
  51 0014 C4F80022 		str	r2, [r4, #512]
 367:Drivers/STM32F3xx_HAL_Driver/Src/stm32f3xx_hal_can.c ****   
 368:Drivers/STM32F3xx_HAL_Driver/Src/stm32f3xx_hal_can.c ****   /* Filter Deactivation */
 369:Drivers/STM32F3xx_HAL_Driver/Src/stm32f3xx_hal_can.c ****   hcan->Instance->FA1R &= ~(uint32_t)filternbrbitpos;
  52              		.loc 1 369 0
  53 0018 0568     		ldr	r5, [r0]
  54 001a D5F81C42 		ldr	r4, [r5, #540]
  55 001e DA43     		mvns	r2, r3
  56 0020 1440     		ands	r4, r4, r2
  57 0022 C5F81C42 		str	r4, [r5, #540]
 370:Drivers/STM32F3xx_HAL_Driver/Src/stm32f3xx_hal_can.c **** 
 371:Drivers/STM32F3xx_HAL_Driver/Src/stm32f3xx_hal_can.c ****   /* Filter Scale */
 372:Drivers/STM32F3xx_HAL_Driver/Src/stm32f3xx_hal_can.c ****   if (sFilterConfig->FilterScale == CAN_FILTERSCALE_16BIT)
  58              		.loc 1 372 0
  59 0026 CC69     		ldr	r4, [r1, #28]
  60 0028 C4B9     		cbnz	r4, .L2
 373:Drivers/STM32F3xx_HAL_Driver/Src/stm32f3xx_hal_can.c ****   {
 374:Drivers/STM32F3xx_HAL_Driver/Src/stm32f3xx_hal_can.c ****     /* 16-bit scale for the filter */
 375:Drivers/STM32F3xx_HAL_Driver/Src/stm32f3xx_hal_can.c ****     hcan->Instance->FS1R &= ~(uint32_t)filternbrbitpos;
  61              		.loc 1 375 0
  62 002a 0568     		ldr	r5, [r0]
  63 002c D5F80C42 		ldr	r4, [r5, #524]
  64 0030 1440     		ands	r4, r4, r2
  65 0032 C5F80C42 		str	r4, [r5, #524]
 376:Drivers/STM32F3xx_HAL_Driver/Src/stm32f3xx_hal_can.c **** 
 377:Drivers/STM32F3xx_HAL_Driver/Src/stm32f3xx_hal_can.c ****     /* First 16-bit identifier and First 16-bit mask */
 378:Drivers/STM32F3xx_HAL_Driver/Src/stm32f3xx_hal_can.c ****     /* Or First 16-bit identifier and Second 16-bit identifier */
 379:Drivers/STM32F3xx_HAL_Driver/Src/stm32f3xx_hal_can.c ****     hcan->Instance->sFilterRegister[sFilterConfig->FilterNumber].FR1 = 
  66              		.loc 1 379 0
  67 0036 0668     		ldr	r6, [r0]
  68 0038 4C69     		ldr	r4, [r1, #20]
 380:Drivers/STM32F3xx_HAL_Driver/Src/stm32f3xx_hal_can.c ****        ((0x0000FFFFU & (uint32_t)sFilterConfig->FilterMaskIdLow) << 16U) |
  69              		.loc 1 380 0
  70 003a CF68     		ldr	r7, [r1, #12]
 381:Drivers/STM32F3xx_HAL_Driver/Src/stm32f3xx_hal_can.c ****         (0x0000FFFFU & (uint32_t)sFilterConfig->FilterIdLow);
  71              		.loc 1 381 0
  72 003c 8D88     		ldrh	r5, [r1, #4]
 380:Drivers/STM32F3xx_HAL_Driver/Src/stm32f3xx_hal_can.c ****        ((0x0000FFFFU & (uint32_t)sFilterConfig->FilterMaskIdLow) << 16U) |
  73              		.loc 1 380 0
  74 003e 45EA0745 		orr	r5, r5, r7, lsl #16
 379:Drivers/STM32F3xx_HAL_Driver/Src/stm32f3xx_hal_can.c ****        ((0x0000FFFFU & (uint32_t)sFilterConfig->FilterMaskIdLow) << 16U) |
ARM GAS  /var/folders/p7/nwmyw04531jbkqkgv59cx10h0000gn/T//ccKbzw64.s 			page 9


  75              		.loc 1 379 0
  76 0042 4834     		adds	r4, r4, #72
  77 0044 46F83450 		str	r5, [r6, r4, lsl #3]
 382:Drivers/STM32F3xx_HAL_Driver/Src/stm32f3xx_hal_can.c **** 
 383:Drivers/STM32F3xx_HAL_Driver/Src/stm32f3xx_hal_can.c ****     /* Second 16-bit identifier and Second 16-bit mask */
 384:Drivers/STM32F3xx_HAL_Driver/Src/stm32f3xx_hal_can.c ****     /* Or Third 16-bit identifier and Fourth 16-bit identifier */
 385:Drivers/STM32F3xx_HAL_Driver/Src/stm32f3xx_hal_can.c ****     hcan->Instance->sFilterRegister[sFilterConfig->FilterNumber].FR2 = 
  78              		.loc 1 385 0
  79 0048 0468     		ldr	r4, [r0]
  80 004a 4E69     		ldr	r6, [r1, #20]
 386:Drivers/STM32F3xx_HAL_Driver/Src/stm32f3xx_hal_can.c ****        ((0x0000FFFFU & (uint32_t)sFilterConfig->FilterMaskIdHigh) << 16U) |
  81              		.loc 1 386 0
  82 004c 8F68     		ldr	r7, [r1, #8]
 387:Drivers/STM32F3xx_HAL_Driver/Src/stm32f3xx_hal_can.c ****         (0x0000FFFFU & (uint32_t)sFilterConfig->FilterIdHigh);
  83              		.loc 1 387 0
  84 004e 0D88     		ldrh	r5, [r1]
 386:Drivers/STM32F3xx_HAL_Driver/Src/stm32f3xx_hal_can.c ****        ((0x0000FFFFU & (uint32_t)sFilterConfig->FilterMaskIdHigh) << 16U) |
  85              		.loc 1 386 0
  86 0050 45EA0745 		orr	r5, r5, r7, lsl #16
 385:Drivers/STM32F3xx_HAL_Driver/Src/stm32f3xx_hal_can.c ****        ((0x0000FFFFU & (uint32_t)sFilterConfig->FilterMaskIdHigh) << 16U) |
  87              		.loc 1 385 0
  88 0054 4836     		adds	r6, r6, #72
  89 0056 04EBC604 		add	r4, r4, r6, lsl #3
  90 005a 6560     		str	r5, [r4, #4]
  91              	.L2:
 388:Drivers/STM32F3xx_HAL_Driver/Src/stm32f3xx_hal_can.c ****   }
 389:Drivers/STM32F3xx_HAL_Driver/Src/stm32f3xx_hal_can.c **** 
 390:Drivers/STM32F3xx_HAL_Driver/Src/stm32f3xx_hal_can.c ****   if (sFilterConfig->FilterScale == CAN_FILTERSCALE_32BIT)
  92              		.loc 1 390 0
  93 005c CC69     		ldr	r4, [r1, #28]
  94 005e 012C     		cmp	r4, #1
  95 0060 20D0     		beq	.L10
  96              	.L3:
 391:Drivers/STM32F3xx_HAL_Driver/Src/stm32f3xx_hal_can.c ****   {
 392:Drivers/STM32F3xx_HAL_Driver/Src/stm32f3xx_hal_can.c ****     /* 32-bit scale for the filter */
 393:Drivers/STM32F3xx_HAL_Driver/Src/stm32f3xx_hal_can.c ****     hcan->Instance->FS1R |= filternbrbitpos;
 394:Drivers/STM32F3xx_HAL_Driver/Src/stm32f3xx_hal_can.c ****     /* 32-bit identifier or First 32-bit identifier */
 395:Drivers/STM32F3xx_HAL_Driver/Src/stm32f3xx_hal_can.c ****     hcan->Instance->sFilterRegister[sFilterConfig->FilterNumber].FR1 = 
 396:Drivers/STM32F3xx_HAL_Driver/Src/stm32f3xx_hal_can.c ****        ((0x0000FFFFU & (uint32_t)sFilterConfig->FilterIdHigh) << 16U) |
 397:Drivers/STM32F3xx_HAL_Driver/Src/stm32f3xx_hal_can.c ****         (0x0000FFFFU & (uint32_t)sFilterConfig->FilterIdLow);
 398:Drivers/STM32F3xx_HAL_Driver/Src/stm32f3xx_hal_can.c ****     /* 32-bit mask or Second 32-bit identifier */
 399:Drivers/STM32F3xx_HAL_Driver/Src/stm32f3xx_hal_can.c ****     hcan->Instance->sFilterRegister[sFilterConfig->FilterNumber].FR2 = 
 400:Drivers/STM32F3xx_HAL_Driver/Src/stm32f3xx_hal_can.c ****        ((0x0000FFFFU & (uint32_t)sFilterConfig->FilterMaskIdHigh) << 16U) |
 401:Drivers/STM32F3xx_HAL_Driver/Src/stm32f3xx_hal_can.c ****         (0x0000FFFFU & (uint32_t)sFilterConfig->FilterMaskIdLow);
 402:Drivers/STM32F3xx_HAL_Driver/Src/stm32f3xx_hal_can.c ****   }
 403:Drivers/STM32F3xx_HAL_Driver/Src/stm32f3xx_hal_can.c **** 
 404:Drivers/STM32F3xx_HAL_Driver/Src/stm32f3xx_hal_can.c ****   /* Filter Mode */
 405:Drivers/STM32F3xx_HAL_Driver/Src/stm32f3xx_hal_can.c ****   if (sFilterConfig->FilterMode == CAN_FILTERMODE_IDMASK)
  97              		.loc 1 405 0
  98 0062 8C69     		ldr	r4, [r1, #24]
  99 0064 002C     		cmp	r4, #0
 100 0066 37D1     		bne	.L4
 406:Drivers/STM32F3xx_HAL_Driver/Src/stm32f3xx_hal_can.c ****   {
 407:Drivers/STM32F3xx_HAL_Driver/Src/stm32f3xx_hal_can.c ****     /*Id/Mask mode for the filter*/
 408:Drivers/STM32F3xx_HAL_Driver/Src/stm32f3xx_hal_can.c ****     hcan->Instance->FM1R &= ~(uint32_t)filternbrbitpos;
 101              		.loc 1 408 0
 102 0068 0568     		ldr	r5, [r0]
ARM GAS  /var/folders/p7/nwmyw04531jbkqkgv59cx10h0000gn/T//ccKbzw64.s 			page 10


 103 006a D5F80442 		ldr	r4, [r5, #516]
 104 006e 1440     		ands	r4, r4, r2
 105 0070 C5F80442 		str	r4, [r5, #516]
 106              	.L5:
 409:Drivers/STM32F3xx_HAL_Driver/Src/stm32f3xx_hal_can.c ****   }
 410:Drivers/STM32F3xx_HAL_Driver/Src/stm32f3xx_hal_can.c ****   else /* CAN_FilterInitStruct->CAN_FilterMode == CAN_FilterMode_IdList */
 411:Drivers/STM32F3xx_HAL_Driver/Src/stm32f3xx_hal_can.c ****   {
 412:Drivers/STM32F3xx_HAL_Driver/Src/stm32f3xx_hal_can.c ****     /*Identifier list mode for the filter*/
 413:Drivers/STM32F3xx_HAL_Driver/Src/stm32f3xx_hal_can.c ****     hcan->Instance->FM1R |= (uint32_t)filternbrbitpos;
 414:Drivers/STM32F3xx_HAL_Driver/Src/stm32f3xx_hal_can.c ****   }
 415:Drivers/STM32F3xx_HAL_Driver/Src/stm32f3xx_hal_can.c **** 
 416:Drivers/STM32F3xx_HAL_Driver/Src/stm32f3xx_hal_can.c ****   /* Filter FIFO assignment */
 417:Drivers/STM32F3xx_HAL_Driver/Src/stm32f3xx_hal_can.c ****   if (sFilterConfig->FilterFIFOAssignment == CAN_FILTER_FIFO0)
 107              		.loc 1 417 0
 108 0074 0C69     		ldr	r4, [r1, #16]
 109 0076 2CB9     		cbnz	r4, .L6
 418:Drivers/STM32F3xx_HAL_Driver/Src/stm32f3xx_hal_can.c ****   {
 419:Drivers/STM32F3xx_HAL_Driver/Src/stm32f3xx_hal_can.c ****     /* FIFO 0 assignation for the filter */
 420:Drivers/STM32F3xx_HAL_Driver/Src/stm32f3xx_hal_can.c ****     hcan->Instance->FFA1R &= ~(uint32_t)filternbrbitpos;
 110              		.loc 1 420 0
 111 0078 0468     		ldr	r4, [r0]
 112 007a D4F81452 		ldr	r5, [r4, #532]
 113 007e 2A40     		ands	r2, r2, r5
 114 0080 C4F81422 		str	r2, [r4, #532]
 115              	.L6:
 421:Drivers/STM32F3xx_HAL_Driver/Src/stm32f3xx_hal_can.c ****   }
 422:Drivers/STM32F3xx_HAL_Driver/Src/stm32f3xx_hal_can.c **** 
 423:Drivers/STM32F3xx_HAL_Driver/Src/stm32f3xx_hal_can.c ****   if (sFilterConfig->FilterFIFOAssignment == CAN_FILTER_FIFO1)
 116              		.loc 1 423 0
 117 0084 0A69     		ldr	r2, [r1, #16]
 118 0086 012A     		cmp	r2, #1
 119 0088 2DD0     		beq	.L11
 120              	.L7:
 424:Drivers/STM32F3xx_HAL_Driver/Src/stm32f3xx_hal_can.c ****   {
 425:Drivers/STM32F3xx_HAL_Driver/Src/stm32f3xx_hal_can.c ****     /* FIFO 1 assignation for the filter */
 426:Drivers/STM32F3xx_HAL_Driver/Src/stm32f3xx_hal_can.c ****     hcan->Instance->FFA1R |= (uint32_t)filternbrbitpos;
 427:Drivers/STM32F3xx_HAL_Driver/Src/stm32f3xx_hal_can.c ****   }
 428:Drivers/STM32F3xx_HAL_Driver/Src/stm32f3xx_hal_can.c ****   
 429:Drivers/STM32F3xx_HAL_Driver/Src/stm32f3xx_hal_can.c ****   /* Filter activation */
 430:Drivers/STM32F3xx_HAL_Driver/Src/stm32f3xx_hal_can.c ****   if (sFilterConfig->FilterActivation == ENABLE)
 121              		.loc 1 430 0
 122 008a 0A6A     		ldr	r2, [r1, #32]
 123 008c 012A     		cmp	r2, #1
 124 008e 31D0     		beq	.L12
 125              	.LVL3:
 126              	.L8:
 431:Drivers/STM32F3xx_HAL_Driver/Src/stm32f3xx_hal_can.c ****   {
 432:Drivers/STM32F3xx_HAL_Driver/Src/stm32f3xx_hal_can.c ****     hcan->Instance->FA1R |= filternbrbitpos;
 433:Drivers/STM32F3xx_HAL_Driver/Src/stm32f3xx_hal_can.c ****   }
 434:Drivers/STM32F3xx_HAL_Driver/Src/stm32f3xx_hal_can.c **** 
 435:Drivers/STM32F3xx_HAL_Driver/Src/stm32f3xx_hal_can.c ****   /* Leave the initialisation mode for the filter */
 436:Drivers/STM32F3xx_HAL_Driver/Src/stm32f3xx_hal_can.c ****   hcan->Instance->FMR &= ~((uint32_t)CAN_FMR_FINIT);
 127              		.loc 1 436 0
 128 0090 0268     		ldr	r2, [r0]
 129 0092 D2F80032 		ldr	r3, [r2, #512]
 130 0096 23F00103 		bic	r3, r3, #1
 131 009a C2F80032 		str	r3, [r2, #512]
ARM GAS  /var/folders/p7/nwmyw04531jbkqkgv59cx10h0000gn/T//ccKbzw64.s 			page 11


 437:Drivers/STM32F3xx_HAL_Driver/Src/stm32f3xx_hal_can.c ****   
 438:Drivers/STM32F3xx_HAL_Driver/Src/stm32f3xx_hal_can.c ****   /* Return function status */
 439:Drivers/STM32F3xx_HAL_Driver/Src/stm32f3xx_hal_can.c ****   return HAL_OK;
 440:Drivers/STM32F3xx_HAL_Driver/Src/stm32f3xx_hal_can.c **** }
 132              		.loc 1 440 0
 133 009e 0020     		movs	r0, #0
 134              	.LVL4:
 135 00a0 F0BC     		pop	{r4, r5, r6, r7}
 136              	.LCFI1:
 137              		.cfi_remember_state
 138              		.cfi_restore 7
 139              		.cfi_restore 6
 140              		.cfi_restore 5
 141              		.cfi_restore 4
 142              		.cfi_def_cfa_offset 0
 143 00a2 7047     		bx	lr
 144              	.LVL5:
 145              	.L10:
 146              	.LCFI2:
 147              		.cfi_restore_state
 393:Drivers/STM32F3xx_HAL_Driver/Src/stm32f3xx_hal_can.c ****     /* 32-bit identifier or First 32-bit identifier */
 148              		.loc 1 393 0
 149 00a4 0568     		ldr	r5, [r0]
 150 00a6 D5F80C42 		ldr	r4, [r5, #524]
 151 00aa 1C43     		orrs	r4, r4, r3
 152 00ac C5F80C42 		str	r4, [r5, #524]
 395:Drivers/STM32F3xx_HAL_Driver/Src/stm32f3xx_hal_can.c ****        ((0x0000FFFFU & (uint32_t)sFilterConfig->FilterIdHigh) << 16U) |
 153              		.loc 1 395 0
 154 00b0 0668     		ldr	r6, [r0]
 155 00b2 4C69     		ldr	r4, [r1, #20]
 396:Drivers/STM32F3xx_HAL_Driver/Src/stm32f3xx_hal_can.c ****         (0x0000FFFFU & (uint32_t)sFilterConfig->FilterIdLow);
 156              		.loc 1 396 0
 157 00b4 0F68     		ldr	r7, [r1]
 397:Drivers/STM32F3xx_HAL_Driver/Src/stm32f3xx_hal_can.c ****     /* 32-bit mask or Second 32-bit identifier */
 158              		.loc 1 397 0
 159 00b6 8D88     		ldrh	r5, [r1, #4]
 396:Drivers/STM32F3xx_HAL_Driver/Src/stm32f3xx_hal_can.c ****         (0x0000FFFFU & (uint32_t)sFilterConfig->FilterIdLow);
 160              		.loc 1 396 0
 161 00b8 45EA0745 		orr	r5, r5, r7, lsl #16
 395:Drivers/STM32F3xx_HAL_Driver/Src/stm32f3xx_hal_can.c ****        ((0x0000FFFFU & (uint32_t)sFilterConfig->FilterIdHigh) << 16U) |
 162              		.loc 1 395 0
 163 00bc 4834     		adds	r4, r4, #72
 164 00be 46F83450 		str	r5, [r6, r4, lsl #3]
 399:Drivers/STM32F3xx_HAL_Driver/Src/stm32f3xx_hal_can.c ****        ((0x0000FFFFU & (uint32_t)sFilterConfig->FilterMaskIdHigh) << 16U) |
 165              		.loc 1 399 0
 166 00c2 0468     		ldr	r4, [r0]
 167 00c4 4E69     		ldr	r6, [r1, #20]
 400:Drivers/STM32F3xx_HAL_Driver/Src/stm32f3xx_hal_can.c ****         (0x0000FFFFU & (uint32_t)sFilterConfig->FilterMaskIdLow);
 168              		.loc 1 400 0
 169 00c6 8F68     		ldr	r7, [r1, #8]
 401:Drivers/STM32F3xx_HAL_Driver/Src/stm32f3xx_hal_can.c ****   }
 170              		.loc 1 401 0
 171 00c8 8D89     		ldrh	r5, [r1, #12]
 400:Drivers/STM32F3xx_HAL_Driver/Src/stm32f3xx_hal_can.c ****         (0x0000FFFFU & (uint32_t)sFilterConfig->FilterMaskIdLow);
 172              		.loc 1 400 0
 173 00ca 45EA0745 		orr	r5, r5, r7, lsl #16
 399:Drivers/STM32F3xx_HAL_Driver/Src/stm32f3xx_hal_can.c ****        ((0x0000FFFFU & (uint32_t)sFilterConfig->FilterMaskIdHigh) << 16U) |
ARM GAS  /var/folders/p7/nwmyw04531jbkqkgv59cx10h0000gn/T//ccKbzw64.s 			page 12


 174              		.loc 1 399 0
 175 00ce 4836     		adds	r6, r6, #72
 176 00d0 04EBC604 		add	r4, r4, r6, lsl #3
 177 00d4 6560     		str	r5, [r4, #4]
 178 00d6 C4E7     		b	.L3
 179              	.L4:
 413:Drivers/STM32F3xx_HAL_Driver/Src/stm32f3xx_hal_can.c ****   }
 180              		.loc 1 413 0
 181 00d8 0568     		ldr	r5, [r0]
 182 00da D5F80442 		ldr	r4, [r5, #516]
 183 00de 1C43     		orrs	r4, r4, r3
 184 00e0 C5F80442 		str	r4, [r5, #516]
 185 00e4 C6E7     		b	.L5
 186              	.L11:
 426:Drivers/STM32F3xx_HAL_Driver/Src/stm32f3xx_hal_can.c ****   }
 187              		.loc 1 426 0
 188 00e6 0468     		ldr	r4, [r0]
 189 00e8 D4F81422 		ldr	r2, [r4, #532]
 190 00ec 1A43     		orrs	r2, r2, r3
 191 00ee C4F81422 		str	r2, [r4, #532]
 192 00f2 CAE7     		b	.L7
 193              	.L12:
 432:Drivers/STM32F3xx_HAL_Driver/Src/stm32f3xx_hal_can.c ****   }
 194              		.loc 1 432 0
 195 00f4 0268     		ldr	r2, [r0]
 196 00f6 D2F81C12 		ldr	r1, [r2, #540]
 197              	.LVL6:
 198 00fa 0B43     		orrs	r3, r3, r1
 199              	.LVL7:
 200 00fc C2F81C32 		str	r3, [r2, #540]
 201 0100 C6E7     		b	.L8
 202              		.cfi_endproc
 203              	.LFE125:
 205              		.section	.text.HAL_CAN_MspInit,"ax",%progbits
 206              		.align	1
 207              		.weak	HAL_CAN_MspInit
 208              		.syntax unified
 209              		.thumb
 210              		.thumb_func
 211              		.fpu fpv4-sp-d16
 213              	HAL_CAN_MspInit:
 214              	.LFB127:
 441:Drivers/STM32F3xx_HAL_Driver/Src/stm32f3xx_hal_can.c **** 
 442:Drivers/STM32F3xx_HAL_Driver/Src/stm32f3xx_hal_can.c **** /**
 443:Drivers/STM32F3xx_HAL_Driver/Src/stm32f3xx_hal_can.c ****   * @brief  Deinitializes the CANx peripheral registers to their default reset values. 
 444:Drivers/STM32F3xx_HAL_Driver/Src/stm32f3xx_hal_can.c ****   * @param  hcan: pointer to a CAN_HandleTypeDef structure that contains
 445:Drivers/STM32F3xx_HAL_Driver/Src/stm32f3xx_hal_can.c ****   *         the configuration information for the specified CAN.  
 446:Drivers/STM32F3xx_HAL_Driver/Src/stm32f3xx_hal_can.c ****   * @retval HAL status
 447:Drivers/STM32F3xx_HAL_Driver/Src/stm32f3xx_hal_can.c ****   */
 448:Drivers/STM32F3xx_HAL_Driver/Src/stm32f3xx_hal_can.c **** HAL_StatusTypeDef HAL_CAN_DeInit(CAN_HandleTypeDef* hcan)
 449:Drivers/STM32F3xx_HAL_Driver/Src/stm32f3xx_hal_can.c **** {
 450:Drivers/STM32F3xx_HAL_Driver/Src/stm32f3xx_hal_can.c ****   /* Check CAN handle */
 451:Drivers/STM32F3xx_HAL_Driver/Src/stm32f3xx_hal_can.c ****   if(hcan == NULL)
 452:Drivers/STM32F3xx_HAL_Driver/Src/stm32f3xx_hal_can.c ****   {
 453:Drivers/STM32F3xx_HAL_Driver/Src/stm32f3xx_hal_can.c ****      return HAL_ERROR;
 454:Drivers/STM32F3xx_HAL_Driver/Src/stm32f3xx_hal_can.c ****   }
 455:Drivers/STM32F3xx_HAL_Driver/Src/stm32f3xx_hal_can.c ****   
ARM GAS  /var/folders/p7/nwmyw04531jbkqkgv59cx10h0000gn/T//ccKbzw64.s 			page 13


 456:Drivers/STM32F3xx_HAL_Driver/Src/stm32f3xx_hal_can.c ****   /* Check the parameters */
 457:Drivers/STM32F3xx_HAL_Driver/Src/stm32f3xx_hal_can.c ****   assert_param(IS_CAN_ALL_INSTANCE(hcan->Instance));
 458:Drivers/STM32F3xx_HAL_Driver/Src/stm32f3xx_hal_can.c ****   
 459:Drivers/STM32F3xx_HAL_Driver/Src/stm32f3xx_hal_can.c ****   /* Change CAN state */
 460:Drivers/STM32F3xx_HAL_Driver/Src/stm32f3xx_hal_can.c ****   hcan->State = HAL_CAN_STATE_BUSY;
 461:Drivers/STM32F3xx_HAL_Driver/Src/stm32f3xx_hal_can.c ****   
 462:Drivers/STM32F3xx_HAL_Driver/Src/stm32f3xx_hal_can.c ****   /* DeInit the low level hardware */
 463:Drivers/STM32F3xx_HAL_Driver/Src/stm32f3xx_hal_can.c ****   HAL_CAN_MspDeInit(hcan);
 464:Drivers/STM32F3xx_HAL_Driver/Src/stm32f3xx_hal_can.c ****   
 465:Drivers/STM32F3xx_HAL_Driver/Src/stm32f3xx_hal_can.c ****   /* Change CAN state */
 466:Drivers/STM32F3xx_HAL_Driver/Src/stm32f3xx_hal_can.c ****   hcan->State = HAL_CAN_STATE_RESET;
 467:Drivers/STM32F3xx_HAL_Driver/Src/stm32f3xx_hal_can.c **** 
 468:Drivers/STM32F3xx_HAL_Driver/Src/stm32f3xx_hal_can.c ****   /* Release Lock */
 469:Drivers/STM32F3xx_HAL_Driver/Src/stm32f3xx_hal_can.c ****   __HAL_UNLOCK(hcan);
 470:Drivers/STM32F3xx_HAL_Driver/Src/stm32f3xx_hal_can.c **** 
 471:Drivers/STM32F3xx_HAL_Driver/Src/stm32f3xx_hal_can.c ****   /* Return function status */
 472:Drivers/STM32F3xx_HAL_Driver/Src/stm32f3xx_hal_can.c ****   return HAL_OK;
 473:Drivers/STM32F3xx_HAL_Driver/Src/stm32f3xx_hal_can.c **** }
 474:Drivers/STM32F3xx_HAL_Driver/Src/stm32f3xx_hal_can.c **** 
 475:Drivers/STM32F3xx_HAL_Driver/Src/stm32f3xx_hal_can.c **** /**
 476:Drivers/STM32F3xx_HAL_Driver/Src/stm32f3xx_hal_can.c ****   * @brief  Initializes the CAN MSP.
 477:Drivers/STM32F3xx_HAL_Driver/Src/stm32f3xx_hal_can.c ****   * @param  hcan: pointer to a CAN_HandleTypeDef structure that contains
 478:Drivers/STM32F3xx_HAL_Driver/Src/stm32f3xx_hal_can.c ****   *         the configuration information for the specified CAN.  
 479:Drivers/STM32F3xx_HAL_Driver/Src/stm32f3xx_hal_can.c ****   * @retval None
 480:Drivers/STM32F3xx_HAL_Driver/Src/stm32f3xx_hal_can.c ****   */
 481:Drivers/STM32F3xx_HAL_Driver/Src/stm32f3xx_hal_can.c **** __weak void HAL_CAN_MspInit(CAN_HandleTypeDef* hcan)
 482:Drivers/STM32F3xx_HAL_Driver/Src/stm32f3xx_hal_can.c **** {
 215              		.loc 1 482 0
 216              		.cfi_startproc
 217              		@ args = 0, pretend = 0, frame = 0
 218              		@ frame_needed = 0, uses_anonymous_args = 0
 219              		@ link register save eliminated.
 220              	.LVL8:
 221 0000 7047     		bx	lr
 222              		.cfi_endproc
 223              	.LFE127:
 225              		.section	.text.HAL_CAN_Init,"ax",%progbits
 226              		.align	1
 227              		.global	HAL_CAN_Init
 228              		.syntax unified
 229              		.thumb
 230              		.thumb_func
 231              		.fpu fpv4-sp-d16
 233              	HAL_CAN_Init:
 234              	.LFB124:
 171:Drivers/STM32F3xx_HAL_Driver/Src/stm32f3xx_hal_can.c ****   uint32_t status = CAN_INITSTATUS_FAILED;  /* Default init status */
 235              		.loc 1 171 0
 236              		.cfi_startproc
 237              		@ args = 0, pretend = 0, frame = 0
 238              		@ frame_needed = 0, uses_anonymous_args = 0
 239              	.LVL9:
 176:Drivers/STM32F3xx_HAL_Driver/Src/stm32f3xx_hal_can.c ****   {
 240              		.loc 1 176 0
 241 0000 0028     		cmp	r0, #0
 242 0002 00F0BB80 		beq	.L35
 171:Drivers/STM32F3xx_HAL_Driver/Src/stm32f3xx_hal_can.c ****   uint32_t status = CAN_INITSTATUS_FAILED;  /* Default init status */
 243              		.loc 1 171 0
ARM GAS  /var/folders/p7/nwmyw04531jbkqkgv59cx10h0000gn/T//ccKbzw64.s 			page 14


 244 0006 38B5     		push	{r3, r4, r5, lr}
 245              	.LCFI3:
 246              		.cfi_def_cfa_offset 16
 247              		.cfi_offset 3, -16
 248              		.cfi_offset 4, -12
 249              		.cfi_offset 5, -8
 250              		.cfi_offset 14, -4
 251 0008 0446     		mov	r4, r0
 195:Drivers/STM32F3xx_HAL_Driver/Src/stm32f3xx_hal_can.c ****   {
 252              		.loc 1 195 0
 253 000a 90F83930 		ldrb	r3, [r0, #57]	@ zero_extendqisi2
 254 000e 03B3     		cbz	r3, .L42
 255              	.LVL10:
 256              	.L16:
 204:Drivers/STM32F3xx_HAL_Driver/Src/stm32f3xx_hal_can.c ****   
 257              		.loc 1 204 0
 258 0010 0223     		movs	r3, #2
 259 0012 84F83930 		strb	r3, [r4, #57]
 207:Drivers/STM32F3xx_HAL_Driver/Src/stm32f3xx_hal_can.c **** 
 260              		.loc 1 207 0
 261 0016 2268     		ldr	r2, [r4]
 262 0018 1368     		ldr	r3, [r2]
 263 001a 23F00203 		bic	r3, r3, #2
 264 001e 1360     		str	r3, [r2]
 210:Drivers/STM32F3xx_HAL_Driver/Src/stm32f3xx_hal_can.c **** 
 265              		.loc 1 210 0
 266 0020 2268     		ldr	r2, [r4]
 267 0022 1368     		ldr	r3, [r2]
 268 0024 43F00103 		orr	r3, r3, #1
 269 0028 1360     		str	r3, [r2]
 213:Drivers/STM32F3xx_HAL_Driver/Src/stm32f3xx_hal_can.c ****   
 270              		.loc 1 213 0
 271 002a FFF7FEFF 		bl	HAL_GetTick
 272              	.LVL11:
 273 002e 0546     		mov	r5, r0
 274              	.LVL12:
 275              	.L17:
 216:Drivers/STM32F3xx_HAL_Driver/Src/stm32f3xx_hal_can.c ****   {
 276              		.loc 1 216 0
 277 0030 2368     		ldr	r3, [r4]
 278 0032 5A68     		ldr	r2, [r3, #4]
 279 0034 12F0010F 		tst	r2, #1
 280 0038 10D1     		bne	.L43
 218:Drivers/STM32F3xx_HAL_Driver/Src/stm32f3xx_hal_can.c ****     {
 281              		.loc 1 218 0
 282 003a FFF7FEFF 		bl	HAL_GetTick
 283              	.LVL13:
 284 003e 401B     		subs	r0, r0, r5
 285 0040 0A28     		cmp	r0, #10
 286 0042 F5D9     		bls	.L17
 220:Drivers/STM32F3xx_HAL_Driver/Src/stm32f3xx_hal_can.c ****       /* Process unlocked */
 287              		.loc 1 220 0
 288 0044 0320     		movs	r0, #3
 289 0046 84F83900 		strb	r0, [r4, #57]
 222:Drivers/STM32F3xx_HAL_Driver/Src/stm32f3xx_hal_can.c ****       return HAL_TIMEOUT;
 290              		.loc 1 222 0
 291 004a 0023     		movs	r3, #0
ARM GAS  /var/folders/p7/nwmyw04531jbkqkgv59cx10h0000gn/T//ccKbzw64.s 			page 15


 292 004c 84F83830 		strb	r3, [r4, #56]
 223:Drivers/STM32F3xx_HAL_Driver/Src/stm32f3xx_hal_can.c ****     }
 293              		.loc 1 223 0
 294 0050 38BD     		pop	{r3, r4, r5, pc}
 295              	.LVL14:
 296              	.L42:
 198:Drivers/STM32F3xx_HAL_Driver/Src/stm32f3xx_hal_can.c ****     /* Init the low level hardware */
 297              		.loc 1 198 0
 298 0052 80F83830 		strb	r3, [r0, #56]
 200:Drivers/STM32F3xx_HAL_Driver/Src/stm32f3xx_hal_can.c ****   }
 299              		.loc 1 200 0
 300 0056 FFF7FEFF 		bl	HAL_CAN_MspInit
 301              	.LVL15:
 302 005a D9E7     		b	.L16
 303              	.LVL16:
 304              	.L43:
 228:Drivers/STM32F3xx_HAL_Driver/Src/stm32f3xx_hal_can.c ****   {
 305              		.loc 1 228 0
 306 005c 5A68     		ldr	r2, [r3, #4]
 307 005e 12F0010F 		tst	r2, #1
 308 0062 7CD0     		beq	.L36
 231:Drivers/STM32F3xx_HAL_Driver/Src/stm32f3xx_hal_can.c ****     {
 309              		.loc 1 231 0
 310 0064 A269     		ldr	r2, [r4, #24]
 311 0066 012A     		cmp	r2, #1
 312 0068 50D0     		beq	.L44
 237:Drivers/STM32F3xx_HAL_Driver/Src/stm32f3xx_hal_can.c ****     }
 313              		.loc 1 237 0
 314 006a 1A68     		ldr	r2, [r3]
 315 006c 22F08002 		bic	r2, r2, #128
 316 0070 1A60     		str	r2, [r3]
 317              	.L21:
 241:Drivers/STM32F3xx_HAL_Driver/Src/stm32f3xx_hal_can.c ****     {
 318              		.loc 1 241 0
 319 0072 E369     		ldr	r3, [r4, #28]
 320 0074 012B     		cmp	r3, #1
 321 0076 4ED0     		beq	.L45
 247:Drivers/STM32F3xx_HAL_Driver/Src/stm32f3xx_hal_can.c ****     }
 322              		.loc 1 247 0
 323 0078 2268     		ldr	r2, [r4]
 324 007a 1368     		ldr	r3, [r2]
 325 007c 23F04003 		bic	r3, r3, #64
 326 0080 1360     		str	r3, [r2]
 327              	.L23:
 251:Drivers/STM32F3xx_HAL_Driver/Src/stm32f3xx_hal_can.c ****     {
 328              		.loc 1 251 0
 329 0082 236A     		ldr	r3, [r4, #32]
 330 0084 012B     		cmp	r3, #1
 331 0086 4CD0     		beq	.L46
 257:Drivers/STM32F3xx_HAL_Driver/Src/stm32f3xx_hal_can.c ****     }
 332              		.loc 1 257 0
 333 0088 2268     		ldr	r2, [r4]
 334 008a 1368     		ldr	r3, [r2]
 335 008c 23F02003 		bic	r3, r3, #32
 336 0090 1360     		str	r3, [r2]
 337              	.L25:
 261:Drivers/STM32F3xx_HAL_Driver/Src/stm32f3xx_hal_can.c ****     {
ARM GAS  /var/folders/p7/nwmyw04531jbkqkgv59cx10h0000gn/T//ccKbzw64.s 			page 16


 338              		.loc 1 261 0
 339 0092 636A     		ldr	r3, [r4, #36]
 340 0094 012B     		cmp	r3, #1
 341 0096 4AD0     		beq	.L47
 267:Drivers/STM32F3xx_HAL_Driver/Src/stm32f3xx_hal_can.c ****     }
 342              		.loc 1 267 0
 343 0098 2268     		ldr	r2, [r4]
 344 009a 1368     		ldr	r3, [r2]
 345 009c 23F01003 		bic	r3, r3, #16
 346 00a0 1360     		str	r3, [r2]
 347              	.L27:
 271:Drivers/STM32F3xx_HAL_Driver/Src/stm32f3xx_hal_can.c ****     {
 348              		.loc 1 271 0
 349 00a2 A36A     		ldr	r3, [r4, #40]
 350 00a4 012B     		cmp	r3, #1
 351 00a6 48D0     		beq	.L48
 277:Drivers/STM32F3xx_HAL_Driver/Src/stm32f3xx_hal_can.c ****     }
 352              		.loc 1 277 0
 353 00a8 2268     		ldr	r2, [r4]
 354 00aa 1368     		ldr	r3, [r2]
 355 00ac 23F00803 		bic	r3, r3, #8
 356 00b0 1360     		str	r3, [r2]
 357              	.L29:
 281:Drivers/STM32F3xx_HAL_Driver/Src/stm32f3xx_hal_can.c ****     {
 358              		.loc 1 281 0
 359 00b2 E36A     		ldr	r3, [r4, #44]
 360 00b4 012B     		cmp	r3, #1
 361 00b6 46D0     		beq	.L49
 287:Drivers/STM32F3xx_HAL_Driver/Src/stm32f3xx_hal_can.c ****     }
 362              		.loc 1 287 0
 363 00b8 2268     		ldr	r2, [r4]
 364 00ba 1368     		ldr	r3, [r2]
 365 00bc 23F00403 		bic	r3, r3, #4
 366 00c0 1360     		str	r3, [r2]
 367              	.L31:
 291:Drivers/STM32F3xx_HAL_Driver/Src/stm32f3xx_hal_can.c ****                 ((uint32_t)hcan->Init.SJW) | \
 368              		.loc 1 291 0
 369 00c2 2168     		ldr	r1, [r4]
 370 00c4 A368     		ldr	r3, [r4, #8]
 292:Drivers/STM32F3xx_HAL_Driver/Src/stm32f3xx_hal_can.c ****                 ((uint32_t)hcan->Init.BS1) | \
 371              		.loc 1 292 0
 372 00c6 E268     		ldr	r2, [r4, #12]
 291:Drivers/STM32F3xx_HAL_Driver/Src/stm32f3xx_hal_can.c ****                 ((uint32_t)hcan->Init.SJW) | \
 373              		.loc 1 291 0
 374 00c8 1343     		orrs	r3, r3, r2
 293:Drivers/STM32F3xx_HAL_Driver/Src/stm32f3xx_hal_can.c ****                 ((uint32_t)hcan->Init.BS2) | \
 375              		.loc 1 293 0
 376 00ca 2269     		ldr	r2, [r4, #16]
 292:Drivers/STM32F3xx_HAL_Driver/Src/stm32f3xx_hal_can.c ****                 ((uint32_t)hcan->Init.BS1) | \
 377              		.loc 1 292 0
 378 00cc 1343     		orrs	r3, r3, r2
 294:Drivers/STM32F3xx_HAL_Driver/Src/stm32f3xx_hal_can.c ****                ((uint32_t)hcan->Init.Prescaler - 1U);
 379              		.loc 1 294 0
 380 00ce 6269     		ldr	r2, [r4, #20]
 293:Drivers/STM32F3xx_HAL_Driver/Src/stm32f3xx_hal_can.c ****                 ((uint32_t)hcan->Init.BS2) | \
 381              		.loc 1 293 0
 382 00d0 1343     		orrs	r3, r3, r2
ARM GAS  /var/folders/p7/nwmyw04531jbkqkgv59cx10h0000gn/T//ccKbzw64.s 			page 17


 295:Drivers/STM32F3xx_HAL_Driver/Src/stm32f3xx_hal_can.c **** 
 383              		.loc 1 295 0
 384 00d2 6268     		ldr	r2, [r4, #4]
 385 00d4 013A     		subs	r2, r2, #1
 294:Drivers/STM32F3xx_HAL_Driver/Src/stm32f3xx_hal_can.c ****                ((uint32_t)hcan->Init.Prescaler - 1U);
 386              		.loc 1 294 0
 387 00d6 1343     		orrs	r3, r3, r2
 291:Drivers/STM32F3xx_HAL_Driver/Src/stm32f3xx_hal_can.c ****                 ((uint32_t)hcan->Init.SJW) | \
 388              		.loc 1 291 0
 389 00d8 CB61     		str	r3, [r1, #28]
 298:Drivers/STM32F3xx_HAL_Driver/Src/stm32f3xx_hal_can.c **** 
 390              		.loc 1 298 0
 391 00da 2268     		ldr	r2, [r4]
 392 00dc 1368     		ldr	r3, [r2]
 393 00de 23F00103 		bic	r3, r3, #1
 394 00e2 1360     		str	r3, [r2]
 301:Drivers/STM32F3xx_HAL_Driver/Src/stm32f3xx_hal_can.c ****    
 395              		.loc 1 301 0
 396 00e4 FFF7FEFF 		bl	HAL_GetTick
 397              	.LVL17:
 398 00e8 0546     		mov	r5, r0
 399              	.LVL18:
 400              	.L32:
 304:Drivers/STM32F3xx_HAL_Driver/Src/stm32f3xx_hal_can.c ****     {
 401              		.loc 1 304 0
 402 00ea 2368     		ldr	r3, [r4]
 403 00ec 5A68     		ldr	r2, [r3, #4]
 404 00ee 12F0010F 		tst	r2, #1
 405 00f2 2ED0     		beq	.L50
 306:Drivers/STM32F3xx_HAL_Driver/Src/stm32f3xx_hal_can.c ****       {
 406              		.loc 1 306 0
 407 00f4 FFF7FEFF 		bl	HAL_GetTick
 408              	.LVL19:
 409 00f8 401B     		subs	r0, r0, r5
 410 00fa 0A28     		cmp	r0, #10
 411 00fc F5D9     		bls	.L32
 308:Drivers/STM32F3xx_HAL_Driver/Src/stm32f3xx_hal_can.c ****        /* Process unlocked */
 412              		.loc 1 308 0
 413 00fe 0320     		movs	r0, #3
 414 0100 84F83900 		strb	r0, [r4, #57]
 310:Drivers/STM32F3xx_HAL_Driver/Src/stm32f3xx_hal_can.c ****          return HAL_TIMEOUT;
 415              		.loc 1 310 0
 416 0104 0023     		movs	r3, #0
 417 0106 84F83830 		strb	r3, [r4, #56]
 311:Drivers/STM32F3xx_HAL_Driver/Src/stm32f3xx_hal_can.c ****       }
 418              		.loc 1 311 0
 419 010a 38BD     		pop	{r3, r4, r5, pc}
 420              	.LVL20:
 421              	.L44:
 233:Drivers/STM32F3xx_HAL_Driver/Src/stm32f3xx_hal_can.c ****     }
 422              		.loc 1 233 0
 423 010c 1A68     		ldr	r2, [r3]
 424 010e 42F08002 		orr	r2, r2, #128
 425 0112 1A60     		str	r2, [r3]
 426 0114 ADE7     		b	.L21
 427              	.L45:
 243:Drivers/STM32F3xx_HAL_Driver/Src/stm32f3xx_hal_can.c ****     }
ARM GAS  /var/folders/p7/nwmyw04531jbkqkgv59cx10h0000gn/T//ccKbzw64.s 			page 18


 428              		.loc 1 243 0
 429 0116 2268     		ldr	r2, [r4]
 430 0118 1368     		ldr	r3, [r2]
 431 011a 43F04003 		orr	r3, r3, #64
 432 011e 1360     		str	r3, [r2]
 433 0120 AFE7     		b	.L23
 434              	.L46:
 253:Drivers/STM32F3xx_HAL_Driver/Src/stm32f3xx_hal_can.c ****     }
 435              		.loc 1 253 0
 436 0122 2268     		ldr	r2, [r4]
 437 0124 1368     		ldr	r3, [r2]
 438 0126 43F02003 		orr	r3, r3, #32
 439 012a 1360     		str	r3, [r2]
 440 012c B1E7     		b	.L25
 441              	.L47:
 263:Drivers/STM32F3xx_HAL_Driver/Src/stm32f3xx_hal_can.c ****     }
 442              		.loc 1 263 0
 443 012e 2268     		ldr	r2, [r4]
 444 0130 1368     		ldr	r3, [r2]
 445 0132 43F01003 		orr	r3, r3, #16
 446 0136 1360     		str	r3, [r2]
 447 0138 B3E7     		b	.L27
 448              	.L48:
 273:Drivers/STM32F3xx_HAL_Driver/Src/stm32f3xx_hal_can.c ****     }
 449              		.loc 1 273 0
 450 013a 2268     		ldr	r2, [r4]
 451 013c 1368     		ldr	r3, [r2]
 452 013e 43F00803 		orr	r3, r3, #8
 453 0142 1360     		str	r3, [r2]
 454 0144 B5E7     		b	.L29
 455              	.L49:
 283:Drivers/STM32F3xx_HAL_Driver/Src/stm32f3xx_hal_can.c ****     }
 456              		.loc 1 283 0
 457 0146 2268     		ldr	r2, [r4]
 458 0148 1368     		ldr	r3, [r2]
 459 014a 43F00403 		orr	r3, r3, #4
 460 014e 1360     		str	r3, [r2]
 461 0150 B7E7     		b	.L31
 462              	.L50:
 316:Drivers/STM32F3xx_HAL_Driver/Src/stm32f3xx_hal_can.c ****     {
 463              		.loc 1 316 0
 464 0152 5B68     		ldr	r3, [r3, #4]
 465 0154 13F0010F 		tst	r3, #1
 466 0158 08D0     		beq	.L37
 172:Drivers/STM32F3xx_HAL_Driver/Src/stm32f3xx_hal_can.c ****   uint32_t tickstart = 0U;
 467              		.loc 1 172 0
 468 015a 0023     		movs	r3, #0
 469 015c 00E0     		b	.L19
 470              	.L36:
 471 015e 0023     		movs	r3, #0
 472              	.L19:
 473              	.LVL21:
 322:Drivers/STM32F3xx_HAL_Driver/Src/stm32f3xx_hal_can.c ****   {
 474              		.loc 1 322 0
 475 0160 33B9     		cbnz	r3, .L51
 336:Drivers/STM32F3xx_HAL_Driver/Src/stm32f3xx_hal_can.c **** 
 476              		.loc 1 336 0
ARM GAS  /var/folders/p7/nwmyw04531jbkqkgv59cx10h0000gn/T//ccKbzw64.s 			page 19


 477 0162 0423     		movs	r3, #4
 478              	.LVL22:
 479 0164 84F83930 		strb	r3, [r4, #57]
 339:Drivers/STM32F3xx_HAL_Driver/Src/stm32f3xx_hal_can.c ****   }
 480              		.loc 1 339 0
 481 0168 0120     		movs	r0, #1
 482 016a 38BD     		pop	{r3, r4, r5, pc}
 483              	.LVL23:
 484              	.L37:
 318:Drivers/STM32F3xx_HAL_Driver/Src/stm32f3xx_hal_can.c ****     }
 485              		.loc 1 318 0
 486 016c 0123     		movs	r3, #1
 487 016e F7E7     		b	.L19
 488              	.LVL24:
 489              	.L51:
 325:Drivers/STM32F3xx_HAL_Driver/Src/stm32f3xx_hal_can.c ****     
 490              		.loc 1 325 0
 491 0170 0020     		movs	r0, #0
 492 0172 E063     		str	r0, [r4, #60]
 328:Drivers/STM32F3xx_HAL_Driver/Src/stm32f3xx_hal_can.c ****   
 493              		.loc 1 328 0
 494 0174 0123     		movs	r3, #1
 495              	.LVL25:
 496 0176 84F83930 		strb	r3, [r4, #57]
 331:Drivers/STM32F3xx_HAL_Driver/Src/stm32f3xx_hal_can.c ****   }
 497              		.loc 1 331 0
 498 017a 38BD     		pop	{r3, r4, r5, pc}
 499              	.LVL26:
 500              	.L35:
 501              	.LCFI4:
 502              		.cfi_def_cfa_offset 0
 503              		.cfi_restore 3
 504              		.cfi_restore 4
 505              		.cfi_restore 5
 506              		.cfi_restore 14
 178:Drivers/STM32F3xx_HAL_Driver/Src/stm32f3xx_hal_can.c ****   }
 507              		.loc 1 178 0
 508 017c 0120     		movs	r0, #1
 509              	.LVL27:
 510 017e 7047     		bx	lr
 511              		.cfi_endproc
 512              	.LFE124:
 514              		.section	.text.HAL_CAN_MspDeInit,"ax",%progbits
 515              		.align	1
 516              		.weak	HAL_CAN_MspDeInit
 517              		.syntax unified
 518              		.thumb
 519              		.thumb_func
 520              		.fpu fpv4-sp-d16
 522              	HAL_CAN_MspDeInit:
 523              	.LFB128:
 483:Drivers/STM32F3xx_HAL_Driver/Src/stm32f3xx_hal_can.c ****   /* Prevent unused argument(s) compilation warning */
 484:Drivers/STM32F3xx_HAL_Driver/Src/stm32f3xx_hal_can.c ****   UNUSED(hcan);
 485:Drivers/STM32F3xx_HAL_Driver/Src/stm32f3xx_hal_can.c **** 
 486:Drivers/STM32F3xx_HAL_Driver/Src/stm32f3xx_hal_can.c ****   /* NOTE : This function Should not be modified, when the callback is needed,
 487:Drivers/STM32F3xx_HAL_Driver/Src/stm32f3xx_hal_can.c ****             the HAL_CAN_MspInit could be implemented in the user file
 488:Drivers/STM32F3xx_HAL_Driver/Src/stm32f3xx_hal_can.c ****    */ 
ARM GAS  /var/folders/p7/nwmyw04531jbkqkgv59cx10h0000gn/T//ccKbzw64.s 			page 20


 489:Drivers/STM32F3xx_HAL_Driver/Src/stm32f3xx_hal_can.c **** }
 490:Drivers/STM32F3xx_HAL_Driver/Src/stm32f3xx_hal_can.c **** 
 491:Drivers/STM32F3xx_HAL_Driver/Src/stm32f3xx_hal_can.c **** /**
 492:Drivers/STM32F3xx_HAL_Driver/Src/stm32f3xx_hal_can.c ****   * @brief  DeInitializes the CAN MSP.
 493:Drivers/STM32F3xx_HAL_Driver/Src/stm32f3xx_hal_can.c ****   * @param  hcan: pointer to a CAN_HandleTypeDef structure that contains
 494:Drivers/STM32F3xx_HAL_Driver/Src/stm32f3xx_hal_can.c ****   *         the configuration information for the specified CAN.  
 495:Drivers/STM32F3xx_HAL_Driver/Src/stm32f3xx_hal_can.c ****   * @retval None
 496:Drivers/STM32F3xx_HAL_Driver/Src/stm32f3xx_hal_can.c ****   */
 497:Drivers/STM32F3xx_HAL_Driver/Src/stm32f3xx_hal_can.c **** __weak void HAL_CAN_MspDeInit(CAN_HandleTypeDef* hcan)
 498:Drivers/STM32F3xx_HAL_Driver/Src/stm32f3xx_hal_can.c **** {
 524              		.loc 1 498 0
 525              		.cfi_startproc
 526              		@ args = 0, pretend = 0, frame = 0
 527              		@ frame_needed = 0, uses_anonymous_args = 0
 528              		@ link register save eliminated.
 529              	.LVL28:
 530 0000 7047     		bx	lr
 531              		.cfi_endproc
 532              	.LFE128:
 534              		.section	.text.HAL_CAN_DeInit,"ax",%progbits
 535              		.align	1
 536              		.global	HAL_CAN_DeInit
 537              		.syntax unified
 538              		.thumb
 539              		.thumb_func
 540              		.fpu fpv4-sp-d16
 542              	HAL_CAN_DeInit:
 543              	.LFB126:
 449:Drivers/STM32F3xx_HAL_Driver/Src/stm32f3xx_hal_can.c ****   /* Check CAN handle */
 544              		.loc 1 449 0
 545              		.cfi_startproc
 546              		@ args = 0, pretend = 0, frame = 0
 547              		@ frame_needed = 0, uses_anonymous_args = 0
 548              	.LVL29:
 451:Drivers/STM32F3xx_HAL_Driver/Src/stm32f3xx_hal_can.c ****   {
 549              		.loc 1 451 0
 550 0000 60B1     		cbz	r0, .L55
 449:Drivers/STM32F3xx_HAL_Driver/Src/stm32f3xx_hal_can.c ****   /* Check CAN handle */
 551              		.loc 1 449 0
 552 0002 10B5     		push	{r4, lr}
 553              	.LCFI5:
 554              		.cfi_def_cfa_offset 8
 555              		.cfi_offset 4, -8
 556              		.cfi_offset 14, -4
 557 0004 0446     		mov	r4, r0
 460:Drivers/STM32F3xx_HAL_Driver/Src/stm32f3xx_hal_can.c ****   
 558              		.loc 1 460 0
 559 0006 0223     		movs	r3, #2
 560 0008 80F83930 		strb	r3, [r0, #57]
 463:Drivers/STM32F3xx_HAL_Driver/Src/stm32f3xx_hal_can.c ****   
 561              		.loc 1 463 0
 562 000c FFF7FEFF 		bl	HAL_CAN_MspDeInit
 563              	.LVL30:
 466:Drivers/STM32F3xx_HAL_Driver/Src/stm32f3xx_hal_can.c **** 
 564              		.loc 1 466 0
 565 0010 0020     		movs	r0, #0
 566 0012 84F83900 		strb	r0, [r4, #57]
ARM GAS  /var/folders/p7/nwmyw04531jbkqkgv59cx10h0000gn/T//ccKbzw64.s 			page 21


 469:Drivers/STM32F3xx_HAL_Driver/Src/stm32f3xx_hal_can.c **** 
 567              		.loc 1 469 0
 568 0016 84F83800 		strb	r0, [r4, #56]
 472:Drivers/STM32F3xx_HAL_Driver/Src/stm32f3xx_hal_can.c **** }
 569              		.loc 1 472 0
 570 001a 10BD     		pop	{r4, pc}
 571              	.LVL31:
 572              	.L55:
 573              	.LCFI6:
 574              		.cfi_def_cfa_offset 0
 575              		.cfi_restore 4
 576              		.cfi_restore 14
 453:Drivers/STM32F3xx_HAL_Driver/Src/stm32f3xx_hal_can.c ****   }
 577              		.loc 1 453 0
 578 001c 0120     		movs	r0, #1
 579              	.LVL32:
 580 001e 7047     		bx	lr
 581              		.cfi_endproc
 582              	.LFE126:
 584              		.section	.text.HAL_CAN_Transmit,"ax",%progbits
 585              		.align	1
 586              		.global	HAL_CAN_Transmit
 587              		.syntax unified
 588              		.thumb
 589              		.thumb_func
 590              		.fpu fpv4-sp-d16
 592              	HAL_CAN_Transmit:
 593              	.LFB129:
 499:Drivers/STM32F3xx_HAL_Driver/Src/stm32f3xx_hal_can.c ****   /* Prevent unused argument(s) compilation warning */
 500:Drivers/STM32F3xx_HAL_Driver/Src/stm32f3xx_hal_can.c ****   UNUSED(hcan);
 501:Drivers/STM32F3xx_HAL_Driver/Src/stm32f3xx_hal_can.c **** 
 502:Drivers/STM32F3xx_HAL_Driver/Src/stm32f3xx_hal_can.c ****   /* NOTE : This function Should not be modified, when the callback is needed,
 503:Drivers/STM32F3xx_HAL_Driver/Src/stm32f3xx_hal_can.c ****             the HAL_CAN_MspDeInit could be implemented in the user file
 504:Drivers/STM32F3xx_HAL_Driver/Src/stm32f3xx_hal_can.c ****    */ 
 505:Drivers/STM32F3xx_HAL_Driver/Src/stm32f3xx_hal_can.c **** }
 506:Drivers/STM32F3xx_HAL_Driver/Src/stm32f3xx_hal_can.c **** 
 507:Drivers/STM32F3xx_HAL_Driver/Src/stm32f3xx_hal_can.c **** /**
 508:Drivers/STM32F3xx_HAL_Driver/Src/stm32f3xx_hal_can.c ****   * @}
 509:Drivers/STM32F3xx_HAL_Driver/Src/stm32f3xx_hal_can.c ****   */
 510:Drivers/STM32F3xx_HAL_Driver/Src/stm32f3xx_hal_can.c **** 
 511:Drivers/STM32F3xx_HAL_Driver/Src/stm32f3xx_hal_can.c **** /** @defgroup CAN_Exported_Functions_Group2 Input and Output operation functions
 512:Drivers/STM32F3xx_HAL_Driver/Src/stm32f3xx_hal_can.c ****  *  @brief    IO operation functions 
 513:Drivers/STM32F3xx_HAL_Driver/Src/stm32f3xx_hal_can.c ****  *
 514:Drivers/STM32F3xx_HAL_Driver/Src/stm32f3xx_hal_can.c **** @verbatim   
 515:Drivers/STM32F3xx_HAL_Driver/Src/stm32f3xx_hal_can.c ****   ==============================================================================
 516:Drivers/STM32F3xx_HAL_Driver/Src/stm32f3xx_hal_can.c ****                       ##### IO operation functions #####
 517:Drivers/STM32F3xx_HAL_Driver/Src/stm32f3xx_hal_can.c ****   ==============================================================================
 518:Drivers/STM32F3xx_HAL_Driver/Src/stm32f3xx_hal_can.c ****     [..]  This section provides functions allowing to:
 519:Drivers/STM32F3xx_HAL_Driver/Src/stm32f3xx_hal_can.c ****       (+) Transmit a CAN frame message.
 520:Drivers/STM32F3xx_HAL_Driver/Src/stm32f3xx_hal_can.c ****       (+) Receive a CAN frame message.
 521:Drivers/STM32F3xx_HAL_Driver/Src/stm32f3xx_hal_can.c ****       (+) Enter CAN peripheral in sleep mode. 
 522:Drivers/STM32F3xx_HAL_Driver/Src/stm32f3xx_hal_can.c ****       (+) Wake up the CAN peripheral from sleep mode.
 523:Drivers/STM32F3xx_HAL_Driver/Src/stm32f3xx_hal_can.c ****                
 524:Drivers/STM32F3xx_HAL_Driver/Src/stm32f3xx_hal_can.c **** @endverbatim
 525:Drivers/STM32F3xx_HAL_Driver/Src/stm32f3xx_hal_can.c ****   * @{
 526:Drivers/STM32F3xx_HAL_Driver/Src/stm32f3xx_hal_can.c ****   */
 527:Drivers/STM32F3xx_HAL_Driver/Src/stm32f3xx_hal_can.c **** 
ARM GAS  /var/folders/p7/nwmyw04531jbkqkgv59cx10h0000gn/T//ccKbzw64.s 			page 22


 528:Drivers/STM32F3xx_HAL_Driver/Src/stm32f3xx_hal_can.c **** /**
 529:Drivers/STM32F3xx_HAL_Driver/Src/stm32f3xx_hal_can.c ****   * @brief  Initiates and transmits a CAN frame message.
 530:Drivers/STM32F3xx_HAL_Driver/Src/stm32f3xx_hal_can.c ****   * @param  hcan: pointer to a CAN_HandleTypeDef structure that contains
 531:Drivers/STM32F3xx_HAL_Driver/Src/stm32f3xx_hal_can.c ****   *         the configuration information for the specified CAN.  
 532:Drivers/STM32F3xx_HAL_Driver/Src/stm32f3xx_hal_can.c ****   * @param  Timeout: Timeout duration.
 533:Drivers/STM32F3xx_HAL_Driver/Src/stm32f3xx_hal_can.c ****   * @retval HAL status
 534:Drivers/STM32F3xx_HAL_Driver/Src/stm32f3xx_hal_can.c ****   */
 535:Drivers/STM32F3xx_HAL_Driver/Src/stm32f3xx_hal_can.c **** HAL_StatusTypeDef HAL_CAN_Transmit(CAN_HandleTypeDef* hcan, uint32_t Timeout)
 536:Drivers/STM32F3xx_HAL_Driver/Src/stm32f3xx_hal_can.c **** {
 594              		.loc 1 536 0
 595              		.cfi_startproc
 596              		@ args = 0, pretend = 0, frame = 0
 597              		@ frame_needed = 0, uses_anonymous_args = 0
 598              	.LVL33:
 599 0000 F8B5     		push	{r3, r4, r5, r6, r7, lr}
 600              	.LCFI7:
 601              		.cfi_def_cfa_offset 24
 602              		.cfi_offset 3, -24
 603              		.cfi_offset 4, -20
 604              		.cfi_offset 5, -16
 605              		.cfi_offset 6, -12
 606              		.cfi_offset 7, -8
 607              		.cfi_offset 14, -4
 608              	.LVL34:
 537:Drivers/STM32F3xx_HAL_Driver/Src/stm32f3xx_hal_can.c ****   uint32_t transmitmailbox = CAN_TXSTATUS_NOMAILBOX;
 538:Drivers/STM32F3xx_HAL_Driver/Src/stm32f3xx_hal_can.c ****   uint32_t tickstart = 0U;
 539:Drivers/STM32F3xx_HAL_Driver/Src/stm32f3xx_hal_can.c **** 
 540:Drivers/STM32F3xx_HAL_Driver/Src/stm32f3xx_hal_can.c ****   /* Check the parameters */
 541:Drivers/STM32F3xx_HAL_Driver/Src/stm32f3xx_hal_can.c ****   assert_param(IS_CAN_IDTYPE(hcan->pTxMsg->IDE));
 542:Drivers/STM32F3xx_HAL_Driver/Src/stm32f3xx_hal_can.c ****   assert_param(IS_CAN_RTR(hcan->pTxMsg->RTR));
 543:Drivers/STM32F3xx_HAL_Driver/Src/stm32f3xx_hal_can.c ****   assert_param(IS_CAN_DLC(hcan->pTxMsg->DLC));
 544:Drivers/STM32F3xx_HAL_Driver/Src/stm32f3xx_hal_can.c **** 
 545:Drivers/STM32F3xx_HAL_Driver/Src/stm32f3xx_hal_can.c ****   if(((hcan->Instance->TSR&CAN_TSR_TME0) == CAN_TSR_TME0) || \
 609              		.loc 1 545 0
 610 0002 0368     		ldr	r3, [r0]
 611 0004 9A68     		ldr	r2, [r3, #8]
 612 0006 12F0806F 		tst	r2, #67108864
 613 000a 08D1     		bne	.L61
 546:Drivers/STM32F3xx_HAL_Driver/Src/stm32f3xx_hal_can.c ****      ((hcan->Instance->TSR&CAN_TSR_TME1) == CAN_TSR_TME1) || \
 614              		.loc 1 546 0 discriminator 1
 615 000c 9A68     		ldr	r2, [r3, #8]
 545:Drivers/STM32F3xx_HAL_Driver/Src/stm32f3xx_hal_can.c ****      ((hcan->Instance->TSR&CAN_TSR_TME1) == CAN_TSR_TME1) || \
 616              		.loc 1 545 0 discriminator 1
 617 000e 12F0006F 		tst	r2, #134217728
 618 0012 04D1     		bne	.L61
 547:Drivers/STM32F3xx_HAL_Driver/Src/stm32f3xx_hal_can.c ****      ((hcan->Instance->TSR&CAN_TSR_TME2) == CAN_TSR_TME2))
 619              		.loc 1 547 0
 620 0014 9A68     		ldr	r2, [r3, #8]
 546:Drivers/STM32F3xx_HAL_Driver/Src/stm32f3xx_hal_can.c ****      ((hcan->Instance->TSR&CAN_TSR_TME1) == CAN_TSR_TME1) || \
 621              		.loc 1 546 0
 622 0016 12F0805F 		tst	r2, #268435456
 623 001a 00F0D880 		beq	.L62
 624              	.L61:
 548:Drivers/STM32F3xx_HAL_Driver/Src/stm32f3xx_hal_can.c ****   {
 549:Drivers/STM32F3xx_HAL_Driver/Src/stm32f3xx_hal_can.c ****     /* Process locked */
 550:Drivers/STM32F3xx_HAL_Driver/Src/stm32f3xx_hal_can.c ****     __HAL_LOCK(hcan);
 625              		.loc 1 550 0
ARM GAS  /var/folders/p7/nwmyw04531jbkqkgv59cx10h0000gn/T//ccKbzw64.s 			page 23


 626 001e 90F83820 		ldrb	r2, [r0, #56]	@ zero_extendqisi2
 627 0022 012A     		cmp	r2, #1
 628 0024 00F0D880 		beq	.L81
 629              		.loc 1 550 0 is_stmt 0 discriminator 2
 630 0028 0122     		movs	r2, #1
 631 002a 80F83820 		strb	r2, [r0, #56]
 551:Drivers/STM32F3xx_HAL_Driver/Src/stm32f3xx_hal_can.c **** 
 552:Drivers/STM32F3xx_HAL_Driver/Src/stm32f3xx_hal_can.c ****     if(hcan->State == HAL_CAN_STATE_BUSY_RX)
 632              		.loc 1 552 0 is_stmt 1 discriminator 2
 633 002e 90F83920 		ldrb	r2, [r0, #57]	@ zero_extendqisi2
 634 0032 D2B2     		uxtb	r2, r2
 635 0034 222A     		cmp	r2, #34
 636 0036 0CD0     		beq	.L85
 553:Drivers/STM32F3xx_HAL_Driver/Src/stm32f3xx_hal_can.c ****     {
 554:Drivers/STM32F3xx_HAL_Driver/Src/stm32f3xx_hal_can.c ****       /* Change CAN state */
 555:Drivers/STM32F3xx_HAL_Driver/Src/stm32f3xx_hal_can.c ****       hcan->State = HAL_CAN_STATE_BUSY_TX_RX;
 556:Drivers/STM32F3xx_HAL_Driver/Src/stm32f3xx_hal_can.c ****     }
 557:Drivers/STM32F3xx_HAL_Driver/Src/stm32f3xx_hal_can.c ****     else
 558:Drivers/STM32F3xx_HAL_Driver/Src/stm32f3xx_hal_can.c ****     {
 559:Drivers/STM32F3xx_HAL_Driver/Src/stm32f3xx_hal_can.c ****       /* Change CAN state */
 560:Drivers/STM32F3xx_HAL_Driver/Src/stm32f3xx_hal_can.c ****       hcan->State = HAL_CAN_STATE_BUSY_TX;
 637              		.loc 1 560 0
 638 0038 1222     		movs	r2, #18
 639 003a 80F83920 		strb	r2, [r0, #57]
 640              	.L65:
 561:Drivers/STM32F3xx_HAL_Driver/Src/stm32f3xx_hal_can.c ****     }
 562:Drivers/STM32F3xx_HAL_Driver/Src/stm32f3xx_hal_can.c **** 
 563:Drivers/STM32F3xx_HAL_Driver/Src/stm32f3xx_hal_can.c ****     /* Select one empty transmit mailbox */
 564:Drivers/STM32F3xx_HAL_Driver/Src/stm32f3xx_hal_can.c ****     if (HAL_IS_BIT_SET(hcan->Instance->TSR, CAN_TSR_TME0))
 641              		.loc 1 564 0
 642 003e 9A68     		ldr	r2, [r3, #8]
 643 0040 12F0806F 		tst	r2, #67108864
 644 0044 09D1     		bne	.L82
 565:Drivers/STM32F3xx_HAL_Driver/Src/stm32f3xx_hal_can.c ****     {
 566:Drivers/STM32F3xx_HAL_Driver/Src/stm32f3xx_hal_can.c ****       transmitmailbox = 0U;
 567:Drivers/STM32F3xx_HAL_Driver/Src/stm32f3xx_hal_can.c ****     }
 568:Drivers/STM32F3xx_HAL_Driver/Src/stm32f3xx_hal_can.c ****     else if (HAL_IS_BIT_SET(hcan->Instance->TSR, CAN_TSR_TME1))
 645              		.loc 1 568 0
 646 0046 9A68     		ldr	r2, [r3, #8]
 647 0048 12F0006F 		tst	r2, #134217728
 648 004c 5DD0     		beq	.L83
 569:Drivers/STM32F3xx_HAL_Driver/Src/stm32f3xx_hal_can.c ****     {
 570:Drivers/STM32F3xx_HAL_Driver/Src/stm32f3xx_hal_can.c ****       transmitmailbox = 1U;
 649              		.loc 1 570 0
 650 004e 0125     		movs	r5, #1
 651 0050 04E0     		b	.L66
 652              	.L85:
 555:Drivers/STM32F3xx_HAL_Driver/Src/stm32f3xx_hal_can.c ****     }
 653              		.loc 1 555 0
 654 0052 3222     		movs	r2, #50
 655 0054 80F83920 		strb	r2, [r0, #57]
 656 0058 F1E7     		b	.L65
 657              	.L82:
 566:Drivers/STM32F3xx_HAL_Driver/Src/stm32f3xx_hal_can.c ****     }
 658              		.loc 1 566 0
 659 005a 0025     		movs	r5, #0
 660              	.L66:
ARM GAS  /var/folders/p7/nwmyw04531jbkqkgv59cx10h0000gn/T//ccKbzw64.s 			page 24


 661              	.LVL35:
 571:Drivers/STM32F3xx_HAL_Driver/Src/stm32f3xx_hal_can.c ****     }
 572:Drivers/STM32F3xx_HAL_Driver/Src/stm32f3xx_hal_can.c ****     else
 573:Drivers/STM32F3xx_HAL_Driver/Src/stm32f3xx_hal_can.c ****     {
 574:Drivers/STM32F3xx_HAL_Driver/Src/stm32f3xx_hal_can.c ****       transmitmailbox = 2U;
 575:Drivers/STM32F3xx_HAL_Driver/Src/stm32f3xx_hal_can.c ****     }
 576:Drivers/STM32F3xx_HAL_Driver/Src/stm32f3xx_hal_can.c **** 
 577:Drivers/STM32F3xx_HAL_Driver/Src/stm32f3xx_hal_can.c ****     /* Set up the Id */
 578:Drivers/STM32F3xx_HAL_Driver/Src/stm32f3xx_hal_can.c ****     hcan->Instance->sTxMailBox[transmitmailbox].TIR &= CAN_TI0R_TXRQ;
 662              		.loc 1 578 0
 663 005c 05F11802 		add	r2, r5, #24
 664 0060 1201     		lsls	r2, r2, #4
 665 0062 9C58     		ldr	r4, [r3, r2]
 666 0064 04F00104 		and	r4, r4, #1
 667 0068 9C50     		str	r4, [r3, r2]
 579:Drivers/STM32F3xx_HAL_Driver/Src/stm32f3xx_hal_can.c ****     if (hcan->pTxMsg->IDE == CAN_ID_STD)
 668              		.loc 1 579 0
 669 006a 026B     		ldr	r2, [r0, #48]
 670 006c 9368     		ldr	r3, [r2, #8]
 671 006e 002B     		cmp	r3, #0
 672 0070 4DD1     		bne	.L67
 580:Drivers/STM32F3xx_HAL_Driver/Src/stm32f3xx_hal_can.c ****     {
 581:Drivers/STM32F3xx_HAL_Driver/Src/stm32f3xx_hal_can.c ****       assert_param(IS_CAN_STDID(hcan->pTxMsg->StdId));  
 582:Drivers/STM32F3xx_HAL_Driver/Src/stm32f3xx_hal_can.c ****       hcan->Instance->sTxMailBox[transmitmailbox].TIR |= ((hcan->pTxMsg->StdId << 21U) | \
 673              		.loc 1 582 0
 674 0072 0668     		ldr	r6, [r0]
 675 0074 05F11803 		add	r3, r5, #24
 676 0078 1B01     		lsls	r3, r3, #4
 677 007a F458     		ldr	r4, [r6, r3]
 678 007c 1768     		ldr	r7, [r2]
 583:Drivers/STM32F3xx_HAL_Driver/Src/stm32f3xx_hal_can.c ****                                                   hcan->pTxMsg->RTR);
 679              		.loc 1 583 0
 680 007e D268     		ldr	r2, [r2, #12]
 582:Drivers/STM32F3xx_HAL_Driver/Src/stm32f3xx_hal_can.c ****                                                   hcan->pTxMsg->RTR);
 681              		.loc 1 582 0
 682 0080 42EA4752 		orr	r2, r2, r7, lsl #21
 683 0084 2243     		orrs	r2, r2, r4
 684 0086 F250     		str	r2, [r6, r3]
 685              	.L68:
 686 0088 0E46     		mov	r6, r1
 687 008a 0446     		mov	r4, r0
 584:Drivers/STM32F3xx_HAL_Driver/Src/stm32f3xx_hal_can.c ****     }
 585:Drivers/STM32F3xx_HAL_Driver/Src/stm32f3xx_hal_can.c ****     else
 586:Drivers/STM32F3xx_HAL_Driver/Src/stm32f3xx_hal_can.c ****     {
 587:Drivers/STM32F3xx_HAL_Driver/Src/stm32f3xx_hal_can.c ****       assert_param(IS_CAN_EXTID(hcan->pTxMsg->ExtId));
 588:Drivers/STM32F3xx_HAL_Driver/Src/stm32f3xx_hal_can.c ****       hcan->Instance->sTxMailBox[transmitmailbox].TIR |= ((hcan->pTxMsg->ExtId << 3U) | \
 589:Drivers/STM32F3xx_HAL_Driver/Src/stm32f3xx_hal_can.c ****                                                   hcan->pTxMsg->IDE | \
 590:Drivers/STM32F3xx_HAL_Driver/Src/stm32f3xx_hal_can.c ****                                                   hcan->pTxMsg->RTR);
 591:Drivers/STM32F3xx_HAL_Driver/Src/stm32f3xx_hal_can.c ****     }
 592:Drivers/STM32F3xx_HAL_Driver/Src/stm32f3xx_hal_can.c ****     
 593:Drivers/STM32F3xx_HAL_Driver/Src/stm32f3xx_hal_can.c ****     /* Set up the DLC */
 594:Drivers/STM32F3xx_HAL_Driver/Src/stm32f3xx_hal_can.c ****     hcan->pTxMsg->DLC &= (uint8_t)0x0000000FU;
 688              		.loc 1 594 0
 689 008c 026B     		ldr	r2, [r0, #48]
 690 008e 1369     		ldr	r3, [r2, #16]
 691 0090 03F00F03 		and	r3, r3, #15
 692 0094 1361     		str	r3, [r2, #16]
ARM GAS  /var/folders/p7/nwmyw04531jbkqkgv59cx10h0000gn/T//ccKbzw64.s 			page 25


 595:Drivers/STM32F3xx_HAL_Driver/Src/stm32f3xx_hal_can.c ****     hcan->Instance->sTxMailBox[transmitmailbox].TDTR &= 0xFFFFFFF0U;
 693              		.loc 1 595 0
 694 0096 0368     		ldr	r3, [r0]
 695 0098 05F11801 		add	r1, r5, #24
 696              	.LVL36:
 697 009c 0901     		lsls	r1, r1, #4
 698 009e 0B44     		add	r3, r3, r1
 699 00a0 5A68     		ldr	r2, [r3, #4]
 700 00a2 22F00F02 		bic	r2, r2, #15
 701 00a6 5A60     		str	r2, [r3, #4]
 596:Drivers/STM32F3xx_HAL_Driver/Src/stm32f3xx_hal_can.c ****     hcan->Instance->sTxMailBox[transmitmailbox].TDTR |= hcan->pTxMsg->DLC;
 702              		.loc 1 596 0
 703 00a8 0368     		ldr	r3, [r0]
 704 00aa 0B44     		add	r3, r3, r1
 705 00ac 5A68     		ldr	r2, [r3, #4]
 706 00ae 006B     		ldr	r0, [r0, #48]
 707              	.LVL37:
 708 00b0 0069     		ldr	r0, [r0, #16]
 709 00b2 0243     		orrs	r2, r2, r0
 710 00b4 5A60     		str	r2, [r3, #4]
 597:Drivers/STM32F3xx_HAL_Driver/Src/stm32f3xx_hal_can.c **** 
 598:Drivers/STM32F3xx_HAL_Driver/Src/stm32f3xx_hal_can.c ****     /* Set up the data field */
 599:Drivers/STM32F3xx_HAL_Driver/Src/stm32f3xx_hal_can.c ****     WRITE_REG(hcan->Instance->sTxMailBox[transmitmailbox].TDLR, ((uint32_t)hcan->pTxMsg->Data[3] <<
 711              		.loc 1 599 0
 712 00b6 2268     		ldr	r2, [r4]
 713 00b8 206B     		ldr	r0, [r4, #48]
 714 00ba C77D     		ldrb	r7, [r0, #23]	@ zero_extendqisi2
 715 00bc 837D     		ldrb	r3, [r0, #22]	@ zero_extendqisi2
 716 00be 1B04     		lsls	r3, r3, #16
 717 00c0 43EA0763 		orr	r3, r3, r7, lsl #24
 718 00c4 477D     		ldrb	r7, [r0, #21]	@ zero_extendqisi2
 719 00c6 43EA0723 		orr	r3, r3, r7, lsl #8
 720 00ca 007D     		ldrb	r0, [r0, #20]	@ zero_extendqisi2
 721 00cc 0343     		orrs	r3, r3, r0
 722 00ce 2F01     		lsls	r7, r5, #4
 723 00d0 3A44     		add	r2, r2, r7
 724 00d2 C2F88831 		str	r3, [r2, #392]
 600:Drivers/STM32F3xx_HAL_Driver/Src/stm32f3xx_hal_can.c ****                                                                 ((uint32_t)hcan->pTxMsg->Data[2] <<
 601:Drivers/STM32F3xx_HAL_Driver/Src/stm32f3xx_hal_can.c ****                                                                 ((uint32_t)hcan->pTxMsg->Data[1] <<
 602:Drivers/STM32F3xx_HAL_Driver/Src/stm32f3xx_hal_can.c ****                                                                 ((uint32_t)hcan->pTxMsg->Data[0]   
 603:Drivers/STM32F3xx_HAL_Driver/Src/stm32f3xx_hal_can.c ****     WRITE_REG(hcan->Instance->sTxMailBox[transmitmailbox].TDHR, ((uint32_t)hcan->pTxMsg->Data[7] <<
 725              		.loc 1 603 0
 726 00d6 2268     		ldr	r2, [r4]
 727 00d8 206B     		ldr	r0, [r4, #48]
 728 00da 90F81BE0 		ldrb	lr, [r0, #27]	@ zero_extendqisi2
 729 00de 837E     		ldrb	r3, [r0, #26]	@ zero_extendqisi2
 730 00e0 1B04     		lsls	r3, r3, #16
 731 00e2 43EA0E63 		orr	r3, r3, lr, lsl #24
 732 00e6 90F819E0 		ldrb	lr, [r0, #25]	@ zero_extendqisi2
 733 00ea 43EA0E23 		orr	r3, r3, lr, lsl #8
 734 00ee 007E     		ldrb	r0, [r0, #24]	@ zero_extendqisi2
 735 00f0 0343     		orrs	r3, r3, r0
 736 00f2 3A44     		add	r2, r2, r7
 737 00f4 C2F88C31 		str	r3, [r2, #396]
 604:Drivers/STM32F3xx_HAL_Driver/Src/stm32f3xx_hal_can.c ****                                                                 ((uint32_t)hcan->pTxMsg->Data[6] <<
 605:Drivers/STM32F3xx_HAL_Driver/Src/stm32f3xx_hal_can.c ****                                                                 ((uint32_t)hcan->pTxMsg->Data[5] <<
 606:Drivers/STM32F3xx_HAL_Driver/Src/stm32f3xx_hal_can.c ****                                                                 ((uint32_t)hcan->pTxMsg->Data[4]   
ARM GAS  /var/folders/p7/nwmyw04531jbkqkgv59cx10h0000gn/T//ccKbzw64.s 			page 26


 607:Drivers/STM32F3xx_HAL_Driver/Src/stm32f3xx_hal_can.c **** 
 608:Drivers/STM32F3xx_HAL_Driver/Src/stm32f3xx_hal_can.c ****     /* Request transmission */
 609:Drivers/STM32F3xx_HAL_Driver/Src/stm32f3xx_hal_can.c ****     SET_BIT(hcan->Instance->sTxMailBox[transmitmailbox].TIR, CAN_TI0R_TXRQ);
 738              		.loc 1 609 0
 739 00f8 2268     		ldr	r2, [r4]
 740 00fa 5358     		ldr	r3, [r2, r1]
 741 00fc 43F00103 		orr	r3, r3, #1
 742 0100 5350     		str	r3, [r2, r1]
 610:Drivers/STM32F3xx_HAL_Driver/Src/stm32f3xx_hal_can.c ****   
 611:Drivers/STM32F3xx_HAL_Driver/Src/stm32f3xx_hal_can.c ****     /* Get tick */
 612:Drivers/STM32F3xx_HAL_Driver/Src/stm32f3xx_hal_can.c ****     tickstart = HAL_GetTick();   
 743              		.loc 1 612 0
 744 0102 FFF7FEFF 		bl	HAL_GetTick
 745              	.LVL38:
 746 0106 0746     		mov	r7, r0
 747              	.LVL39:
 613:Drivers/STM32F3xx_HAL_Driver/Src/stm32f3xx_hal_can.c ****   
 614:Drivers/STM32F3xx_HAL_Driver/Src/stm32f3xx_hal_can.c ****     /* Check End of transmission flag */
 615:Drivers/STM32F3xx_HAL_Driver/Src/stm32f3xx_hal_can.c ****     while(!(__HAL_CAN_TRANSMIT_STATUS(hcan, transmitmailbox)))
 748              		.loc 1 615 0
 749 0108 3FE0     		b	.L70
 750              	.LVL40:
 751              	.L83:
 574:Drivers/STM32F3xx_HAL_Driver/Src/stm32f3xx_hal_can.c ****     }
 752              		.loc 1 574 0
 753 010a 0225     		movs	r5, #2
 754 010c A6E7     		b	.L66
 755              	.LVL41:
 756              	.L67:
 588:Drivers/STM32F3xx_HAL_Driver/Src/stm32f3xx_hal_can.c ****                                                   hcan->pTxMsg->IDE | \
 757              		.loc 1 588 0
 758 010e 0768     		ldr	r7, [r0]
 759 0110 05F11804 		add	r4, r5, #24
 760 0114 2401     		lsls	r4, r4, #4
 761 0116 57F804E0 		ldr	lr, [r7, r4]
 762 011a 5668     		ldr	r6, [r2, #4]
 763 011c 43EAC603 		orr	r3, r3, r6, lsl #3
 590:Drivers/STM32F3xx_HAL_Driver/Src/stm32f3xx_hal_can.c ****     }
 764              		.loc 1 590 0
 765 0120 D268     		ldr	r2, [r2, #12]
 589:Drivers/STM32F3xx_HAL_Driver/Src/stm32f3xx_hal_can.c ****                                                   hcan->pTxMsg->RTR);
 766              		.loc 1 589 0
 767 0122 1343     		orrs	r3, r3, r2
 588:Drivers/STM32F3xx_HAL_Driver/Src/stm32f3xx_hal_can.c ****                                                   hcan->pTxMsg->IDE | \
 768              		.loc 1 588 0
 769 0124 43EA0E03 		orr	r3, r3, lr
 770 0128 3B51     		str	r3, [r7, r4]
 771 012a ADE7     		b	.L68
 772              	.LVL42:
 773              	.L89:
 616:Drivers/STM32F3xx_HAL_Driver/Src/stm32f3xx_hal_can.c ****     {
 617:Drivers/STM32F3xx_HAL_Driver/Src/stm32f3xx_hal_can.c ****       /* Check for the Timeout */
 618:Drivers/STM32F3xx_HAL_Driver/Src/stm32f3xx_hal_can.c ****       if(Timeout != HAL_MAX_DELAY)
 619:Drivers/STM32F3xx_HAL_Driver/Src/stm32f3xx_hal_can.c ****       {
 620:Drivers/STM32F3xx_HAL_Driver/Src/stm32f3xx_hal_can.c ****         if((Timeout == 0U) || ((HAL_GetTick()-tickstart) > Timeout))
 774              		.loc 1 620 0
 775 012c 26B1     		cbz	r6, .L71
ARM GAS  /var/folders/p7/nwmyw04531jbkqkgv59cx10h0000gn/T//ccKbzw64.s 			page 27


 776              		.loc 1 620 0 is_stmt 0 discriminator 1
 777 012e FFF7FEFF 		bl	HAL_GetTick
 778              	.LVL43:
 779 0132 C01B     		subs	r0, r0, r7
 780 0134 8642     		cmp	r6, r0
 781 0136 28D2     		bcs	.L70
 782              	.L71:
 621:Drivers/STM32F3xx_HAL_Driver/Src/stm32f3xx_hal_can.c ****         {
 622:Drivers/STM32F3xx_HAL_Driver/Src/stm32f3xx_hal_can.c ****           hcan->State = HAL_CAN_STATE_TIMEOUT;
 783              		.loc 1 622 0 is_stmt 1
 784 0138 0323     		movs	r3, #3
 785 013a 84F83930 		strb	r3, [r4, #57]
 623:Drivers/STM32F3xx_HAL_Driver/Src/stm32f3xx_hal_can.c **** 
 624:Drivers/STM32F3xx_HAL_Driver/Src/stm32f3xx_hal_can.c ****           /* Cancel transmission */
 625:Drivers/STM32F3xx_HAL_Driver/Src/stm32f3xx_hal_can.c ****           __HAL_CAN_CANCEL_TRANSMIT(hcan, transmitmailbox);
 786              		.loc 1 625 0
 787 013e 4DB9     		cbnz	r5, .L72
 788              		.loc 1 625 0 is_stmt 0 discriminator 1
 789 0140 2268     		ldr	r2, [r4]
 790 0142 9368     		ldr	r3, [r2, #8]
 791 0144 43F08003 		orr	r3, r3, #128
 792 0148 9360     		str	r3, [r2, #8]
 793              	.L73:
 626:Drivers/STM32F3xx_HAL_Driver/Src/stm32f3xx_hal_can.c **** 
 627:Drivers/STM32F3xx_HAL_Driver/Src/stm32f3xx_hal_can.c ****           /* Process unlocked */
 628:Drivers/STM32F3xx_HAL_Driver/Src/stm32f3xx_hal_can.c ****           __HAL_UNLOCK(hcan);
 794              		.loc 1 628 0 is_stmt 1
 795 014a 0023     		movs	r3, #0
 796 014c 84F83830 		strb	r3, [r4, #56]
 629:Drivers/STM32F3xx_HAL_Driver/Src/stm32f3xx_hal_can.c ****           return HAL_TIMEOUT;
 797              		.loc 1 629 0
 798 0150 0320     		movs	r0, #3
 799 0152 F8BD     		pop	{r3, r4, r5, r6, r7, pc}
 800              	.LVL44:
 801              	.L72:
 625:Drivers/STM32F3xx_HAL_Driver/Src/stm32f3xx_hal_can.c **** 
 802              		.loc 1 625 0 discriminator 2
 803 0154 012D     		cmp	r5, #1
 804 0156 05D0     		beq	.L86
 625:Drivers/STM32F3xx_HAL_Driver/Src/stm32f3xx_hal_can.c **** 
 805              		.loc 1 625 0 is_stmt 0 discriminator 4
 806 0158 2268     		ldr	r2, [r4]
 807 015a 9368     		ldr	r3, [r2, #8]
 808 015c 43F40003 		orr	r3, r3, #8388608
 809 0160 9360     		str	r3, [r2, #8]
 810 0162 F2E7     		b	.L73
 811              	.L86:
 625:Drivers/STM32F3xx_HAL_Driver/Src/stm32f3xx_hal_can.c **** 
 812              		.loc 1 625 0 discriminator 3
 813 0164 2268     		ldr	r2, [r4]
 814 0166 9368     		ldr	r3, [r2, #8]
 815 0168 43F40043 		orr	r3, r3, #32768
 816 016c 9360     		str	r3, [r2, #8]
 817 016e ECE7     		b	.L73
 818              	.L75:
 615:Drivers/STM32F3xx_HAL_Driver/Src/stm32f3xx_hal_can.c ****     {
 819              		.loc 1 615 0 is_stmt 1 discriminator 2
ARM GAS  /var/folders/p7/nwmyw04531jbkqkgv59cx10h0000gn/T//ccKbzw64.s 			page 28


 820 0170 012D     		cmp	r5, #1
 821 0172 14D0     		beq	.L87
 615:Drivers/STM32F3xx_HAL_Driver/Src/stm32f3xx_hal_can.c ****     {
 822              		.loc 1 615 0 is_stmt 0 discriminator 5
 823 0174 2368     		ldr	r3, [r4]
 824 0176 9A68     		ldr	r2, [r3, #8]
 825 0178 184B     		ldr	r3, .L91
 826 017a 9343     		bics	r3, r3, r2
 827 017c 14BF     		ite	ne
 828 017e 0123     		movne	r3, #1
 829 0180 0023     		moveq	r3, #0
 830              	.L76:
 615:Drivers/STM32F3xx_HAL_Driver/Src/stm32f3xx_hal_can.c ****     {
 831              		.loc 1 615 0 discriminator 8
 832 0182 A3B1     		cbz	r3, .L88
 618:Drivers/STM32F3xx_HAL_Driver/Src/stm32f3xx_hal_can.c ****       {
 833              		.loc 1 618 0 is_stmt 1
 834 0184 B6F1FF3F 		cmp	r6, #-1
 835 0188 D0D1     		bne	.L89
 836              	.L70:
 615:Drivers/STM32F3xx_HAL_Driver/Src/stm32f3xx_hal_can.c ****     {
 837              		.loc 1 615 0
 838 018a 002D     		cmp	r5, #0
 839 018c F0D1     		bne	.L75
 615:Drivers/STM32F3xx_HAL_Driver/Src/stm32f3xx_hal_can.c ****     {
 840              		.loc 1 615 0 is_stmt 0 discriminator 1
 841 018e 2368     		ldr	r3, [r4]
 842 0190 9A68     		ldr	r2, [r3, #8]
 843 0192 134B     		ldr	r3, .L91+4
 844 0194 9343     		bics	r3, r3, r2
 845 0196 14BF     		ite	ne
 846 0198 0123     		movne	r3, #1
 847 019a 0023     		moveq	r3, #0
 848 019c F1E7     		b	.L76
 849              	.L87:
 615:Drivers/STM32F3xx_HAL_Driver/Src/stm32f3xx_hal_can.c ****     {
 850              		.loc 1 615 0 discriminator 4
 851 019e 2368     		ldr	r3, [r4]
 852 01a0 9A68     		ldr	r2, [r3, #8]
 853 01a2 104B     		ldr	r3, .L91+8
 854 01a4 9343     		bics	r3, r3, r2
 855 01a6 14BF     		ite	ne
 856 01a8 0123     		movne	r3, #1
 857 01aa 0023     		moveq	r3, #0
 858 01ac E9E7     		b	.L76
 859              	.L88:
 630:Drivers/STM32F3xx_HAL_Driver/Src/stm32f3xx_hal_can.c ****         }
 631:Drivers/STM32F3xx_HAL_Driver/Src/stm32f3xx_hal_can.c ****       }
 632:Drivers/STM32F3xx_HAL_Driver/Src/stm32f3xx_hal_can.c ****     }
 633:Drivers/STM32F3xx_HAL_Driver/Src/stm32f3xx_hal_can.c ****     if(hcan->State == HAL_CAN_STATE_BUSY_TX_RX) 
 860              		.loc 1 633 0 is_stmt 1
 861 01ae 94F83930 		ldrb	r3, [r4, #57]	@ zero_extendqisi2
 862 01b2 DBB2     		uxtb	r3, r3
 863 01b4 322B     		cmp	r3, #50
 864 01b6 06D0     		beq	.L90
 634:Drivers/STM32F3xx_HAL_Driver/Src/stm32f3xx_hal_can.c ****     {
 635:Drivers/STM32F3xx_HAL_Driver/Src/stm32f3xx_hal_can.c ****       /* Change CAN state */
ARM GAS  /var/folders/p7/nwmyw04531jbkqkgv59cx10h0000gn/T//ccKbzw64.s 			page 29


 636:Drivers/STM32F3xx_HAL_Driver/Src/stm32f3xx_hal_can.c ****       hcan->State = HAL_CAN_STATE_BUSY_RX;
 637:Drivers/STM32F3xx_HAL_Driver/Src/stm32f3xx_hal_can.c ****     }
 638:Drivers/STM32F3xx_HAL_Driver/Src/stm32f3xx_hal_can.c ****     else
 639:Drivers/STM32F3xx_HAL_Driver/Src/stm32f3xx_hal_can.c ****     {
 640:Drivers/STM32F3xx_HAL_Driver/Src/stm32f3xx_hal_can.c ****       /* Change CAN state */
 641:Drivers/STM32F3xx_HAL_Driver/Src/stm32f3xx_hal_can.c ****       hcan->State = HAL_CAN_STATE_READY;
 865              		.loc 1 641 0
 866 01b8 0123     		movs	r3, #1
 867 01ba 84F83930 		strb	r3, [r4, #57]
 868              	.L80:
 642:Drivers/STM32F3xx_HAL_Driver/Src/stm32f3xx_hal_can.c ****     }
 643:Drivers/STM32F3xx_HAL_Driver/Src/stm32f3xx_hal_can.c ****     
 644:Drivers/STM32F3xx_HAL_Driver/Src/stm32f3xx_hal_can.c ****     /* Process unlocked */
 645:Drivers/STM32F3xx_HAL_Driver/Src/stm32f3xx_hal_can.c ****     __HAL_UNLOCK(hcan);
 869              		.loc 1 645 0
 870 01be 0020     		movs	r0, #0
 871 01c0 84F83800 		strb	r0, [r4, #56]
 646:Drivers/STM32F3xx_HAL_Driver/Src/stm32f3xx_hal_can.c ****     
 647:Drivers/STM32F3xx_HAL_Driver/Src/stm32f3xx_hal_can.c ****     /* Return function status */
 648:Drivers/STM32F3xx_HAL_Driver/Src/stm32f3xx_hal_can.c ****     return HAL_OK;
 872              		.loc 1 648 0
 873 01c4 F8BD     		pop	{r3, r4, r5, r6, r7, pc}
 874              	.LVL45:
 875              	.L90:
 636:Drivers/STM32F3xx_HAL_Driver/Src/stm32f3xx_hal_can.c ****     }
 876              		.loc 1 636 0
 877 01c6 2223     		movs	r3, #34
 878 01c8 84F83930 		strb	r3, [r4, #57]
 879 01cc F7E7     		b	.L80
 880              	.LVL46:
 881              	.L62:
 649:Drivers/STM32F3xx_HAL_Driver/Src/stm32f3xx_hal_can.c ****   }
 650:Drivers/STM32F3xx_HAL_Driver/Src/stm32f3xx_hal_can.c ****   else
 651:Drivers/STM32F3xx_HAL_Driver/Src/stm32f3xx_hal_can.c ****   {
 652:Drivers/STM32F3xx_HAL_Driver/Src/stm32f3xx_hal_can.c ****     /* Change CAN state */
 653:Drivers/STM32F3xx_HAL_Driver/Src/stm32f3xx_hal_can.c ****     hcan->State = HAL_CAN_STATE_ERROR; 
 882              		.loc 1 653 0
 883 01ce 0423     		movs	r3, #4
 884 01d0 80F83930 		strb	r3, [r0, #57]
 654:Drivers/STM32F3xx_HAL_Driver/Src/stm32f3xx_hal_can.c **** 
 655:Drivers/STM32F3xx_HAL_Driver/Src/stm32f3xx_hal_can.c ****     /* Return function status */
 656:Drivers/STM32F3xx_HAL_Driver/Src/stm32f3xx_hal_can.c ****     return HAL_ERROR;
 885              		.loc 1 656 0
 886 01d4 0120     		movs	r0, #1
 887              	.LVL47:
 888 01d6 F8BD     		pop	{r3, r4, r5, r6, r7, pc}
 889              	.LVL48:
 890              	.L81:
 550:Drivers/STM32F3xx_HAL_Driver/Src/stm32f3xx_hal_can.c **** 
 891              		.loc 1 550 0
 892 01d8 0220     		movs	r0, #2
 893              	.LVL49:
 657:Drivers/STM32F3xx_HAL_Driver/Src/stm32f3xx_hal_can.c ****   }
 658:Drivers/STM32F3xx_HAL_Driver/Src/stm32f3xx_hal_can.c **** }
 894              		.loc 1 658 0
 895 01da F8BD     		pop	{r3, r4, r5, r6, r7, pc}
 896              	.L92:
ARM GAS  /var/folders/p7/nwmyw04531jbkqkgv59cx10h0000gn/T//ccKbzw64.s 			page 30


 897              		.align	2
 898              	.L91:
 899 01dc 00000310 		.word	268632064
 900 01e0 03000004 		.word	67108867
 901 01e4 00030008 		.word	134218496
 902              		.cfi_endproc
 903              	.LFE129:
 905              		.section	.text.HAL_CAN_Transmit_IT,"ax",%progbits
 906              		.align	1
 907              		.global	HAL_CAN_Transmit_IT
 908              		.syntax unified
 909              		.thumb
 910              		.thumb_func
 911              		.fpu fpv4-sp-d16
 913              	HAL_CAN_Transmit_IT:
 914              	.LFB130:
 659:Drivers/STM32F3xx_HAL_Driver/Src/stm32f3xx_hal_can.c **** 
 660:Drivers/STM32F3xx_HAL_Driver/Src/stm32f3xx_hal_can.c **** /**
 661:Drivers/STM32F3xx_HAL_Driver/Src/stm32f3xx_hal_can.c ****   * @brief  Initiates and transmits a CAN frame message.
 662:Drivers/STM32F3xx_HAL_Driver/Src/stm32f3xx_hal_can.c ****   * @param  hcan: pointer to a CAN_HandleTypeDef structure that contains
 663:Drivers/STM32F3xx_HAL_Driver/Src/stm32f3xx_hal_can.c ****   *         the configuration information for the specified CAN.  
 664:Drivers/STM32F3xx_HAL_Driver/Src/stm32f3xx_hal_can.c ****   * @retval HAL status
 665:Drivers/STM32F3xx_HAL_Driver/Src/stm32f3xx_hal_can.c ****   */
 666:Drivers/STM32F3xx_HAL_Driver/Src/stm32f3xx_hal_can.c **** HAL_StatusTypeDef HAL_CAN_Transmit_IT(CAN_HandleTypeDef* hcan)
 667:Drivers/STM32F3xx_HAL_Driver/Src/stm32f3xx_hal_can.c **** {
 915              		.loc 1 667 0
 916              		.cfi_startproc
 917              		@ args = 0, pretend = 0, frame = 0
 918              		@ frame_needed = 0, uses_anonymous_args = 0
 919              		@ link register save eliminated.
 920              	.LVL50:
 668:Drivers/STM32F3xx_HAL_Driver/Src/stm32f3xx_hal_can.c ****   uint32_t transmitmailbox = CAN_TXSTATUS_NOMAILBOX;
 669:Drivers/STM32F3xx_HAL_Driver/Src/stm32f3xx_hal_can.c **** 
 670:Drivers/STM32F3xx_HAL_Driver/Src/stm32f3xx_hal_can.c ****   /* Check the parameters */
 671:Drivers/STM32F3xx_HAL_Driver/Src/stm32f3xx_hal_can.c ****   assert_param(IS_CAN_IDTYPE(hcan->pTxMsg->IDE));
 672:Drivers/STM32F3xx_HAL_Driver/Src/stm32f3xx_hal_can.c ****   assert_param(IS_CAN_RTR(hcan->pTxMsg->RTR));
 673:Drivers/STM32F3xx_HAL_Driver/Src/stm32f3xx_hal_can.c ****   assert_param(IS_CAN_DLC(hcan->pTxMsg->DLC));
 674:Drivers/STM32F3xx_HAL_Driver/Src/stm32f3xx_hal_can.c **** 
 675:Drivers/STM32F3xx_HAL_Driver/Src/stm32f3xx_hal_can.c ****   if(((hcan->Instance->TSR&CAN_TSR_TME0) == CAN_TSR_TME0) || \
 921              		.loc 1 675 0
 922 0000 0268     		ldr	r2, [r0]
 923 0002 9368     		ldr	r3, [r2, #8]
 924 0004 13F0806F 		tst	r3, #67108864
 925 0008 08D1     		bne	.L94
 676:Drivers/STM32F3xx_HAL_Driver/Src/stm32f3xx_hal_can.c ****      ((hcan->Instance->TSR&CAN_TSR_TME1) == CAN_TSR_TME1) || \
 926              		.loc 1 676 0 discriminator 1
 927 000a 9368     		ldr	r3, [r2, #8]
 675:Drivers/STM32F3xx_HAL_Driver/Src/stm32f3xx_hal_can.c ****      ((hcan->Instance->TSR&CAN_TSR_TME1) == CAN_TSR_TME1) || \
 928              		.loc 1 675 0 discriminator 1
 929 000c 13F0006F 		tst	r3, #134217728
 930 0010 04D1     		bne	.L94
 677:Drivers/STM32F3xx_HAL_Driver/Src/stm32f3xx_hal_can.c ****      ((hcan->Instance->TSR&CAN_TSR_TME2) == CAN_TSR_TME2))
 931              		.loc 1 677 0
 932 0012 9368     		ldr	r3, [r2, #8]
 676:Drivers/STM32F3xx_HAL_Driver/Src/stm32f3xx_hal_can.c ****      ((hcan->Instance->TSR&CAN_TSR_TME1) == CAN_TSR_TME1) || \
 933              		.loc 1 676 0
 934 0014 13F0805F 		tst	r3, #268435456
ARM GAS  /var/folders/p7/nwmyw04531jbkqkgv59cx10h0000gn/T//ccKbzw64.s 			page 31


 935 0018 00F08E80 		beq	.L95
 936              	.L94:
 678:Drivers/STM32F3xx_HAL_Driver/Src/stm32f3xx_hal_can.c ****   {
 679:Drivers/STM32F3xx_HAL_Driver/Src/stm32f3xx_hal_can.c ****     /* Process Locked */
 680:Drivers/STM32F3xx_HAL_Driver/Src/stm32f3xx_hal_can.c ****     __HAL_LOCK(hcan);
 937              		.loc 1 680 0
 938 001c 90F83830 		ldrb	r3, [r0, #56]	@ zero_extendqisi2
 939 0020 012B     		cmp	r3, #1
 940 0022 00F08E80 		beq	.L102
 667:Drivers/STM32F3xx_HAL_Driver/Src/stm32f3xx_hal_can.c ****   uint32_t transmitmailbox = CAN_TXSTATUS_NOMAILBOX;
 941              		.loc 1 667 0 discriminator 2
 942 0026 F0B4     		push	{r4, r5, r6, r7}
 943              	.LCFI8:
 944              		.cfi_def_cfa_offset 16
 945              		.cfi_offset 4, -16
 946              		.cfi_offset 5, -12
 947              		.cfi_offset 6, -8
 948              		.cfi_offset 7, -4
 949              		.loc 1 680 0 discriminator 2
 950 0028 0123     		movs	r3, #1
 951 002a 80F83830 		strb	r3, [r0, #56]
 681:Drivers/STM32F3xx_HAL_Driver/Src/stm32f3xx_hal_can.c ****     
 682:Drivers/STM32F3xx_HAL_Driver/Src/stm32f3xx_hal_can.c ****     /* Select one empty transmit mailbox */
 683:Drivers/STM32F3xx_HAL_Driver/Src/stm32f3xx_hal_can.c ****     if(HAL_IS_BIT_SET(hcan->Instance->TSR, CAN_TSR_TME0))
 952              		.loc 1 683 0 discriminator 2
 953 002e 9368     		ldr	r3, [r2, #8]
 954 0030 13F0806F 		tst	r3, #67108864
 955 0034 05D1     		bne	.L103
 684:Drivers/STM32F3xx_HAL_Driver/Src/stm32f3xx_hal_can.c ****     {
 685:Drivers/STM32F3xx_HAL_Driver/Src/stm32f3xx_hal_can.c ****       transmitmailbox = 0U;
 686:Drivers/STM32F3xx_HAL_Driver/Src/stm32f3xx_hal_can.c ****     }
 687:Drivers/STM32F3xx_HAL_Driver/Src/stm32f3xx_hal_can.c ****     else if(HAL_IS_BIT_SET(hcan->Instance->TSR, CAN_TSR_TME1))
 956              		.loc 1 687 0
 957 0036 9368     		ldr	r3, [r2, #8]
 958 0038 13F0006F 		tst	r3, #134217728
 959 003c 69D0     		beq	.L104
 688:Drivers/STM32F3xx_HAL_Driver/Src/stm32f3xx_hal_can.c ****     {
 689:Drivers/STM32F3xx_HAL_Driver/Src/stm32f3xx_hal_can.c ****       transmitmailbox = 1U;
 960              		.loc 1 689 0
 961 003e 0123     		movs	r3, #1
 962 0040 00E0     		b	.L97
 963              	.L103:
 685:Drivers/STM32F3xx_HAL_Driver/Src/stm32f3xx_hal_can.c ****     }
 964              		.loc 1 685 0
 965 0042 0023     		movs	r3, #0
 966              	.L97:
 967              	.LVL51:
 690:Drivers/STM32F3xx_HAL_Driver/Src/stm32f3xx_hal_can.c ****     }
 691:Drivers/STM32F3xx_HAL_Driver/Src/stm32f3xx_hal_can.c ****     else
 692:Drivers/STM32F3xx_HAL_Driver/Src/stm32f3xx_hal_can.c ****     {
 693:Drivers/STM32F3xx_HAL_Driver/Src/stm32f3xx_hal_can.c ****       transmitmailbox = 2U;
 694:Drivers/STM32F3xx_HAL_Driver/Src/stm32f3xx_hal_can.c ****     }
 695:Drivers/STM32F3xx_HAL_Driver/Src/stm32f3xx_hal_can.c **** 
 696:Drivers/STM32F3xx_HAL_Driver/Src/stm32f3xx_hal_can.c ****     /* Set up the Id */
 697:Drivers/STM32F3xx_HAL_Driver/Src/stm32f3xx_hal_can.c ****     hcan->Instance->sTxMailBox[transmitmailbox].TIR &= CAN_TI0R_TXRQ;
 968              		.loc 1 697 0
 969 0044 03F11801 		add	r1, r3, #24
ARM GAS  /var/folders/p7/nwmyw04531jbkqkgv59cx10h0000gn/T//ccKbzw64.s 			page 32


 970 0048 0901     		lsls	r1, r1, #4
 971 004a 5458     		ldr	r4, [r2, r1]
 972 004c 04F00104 		and	r4, r4, #1
 973 0050 5450     		str	r4, [r2, r1]
 698:Drivers/STM32F3xx_HAL_Driver/Src/stm32f3xx_hal_can.c ****     if(hcan->pTxMsg->IDE == CAN_ID_STD)
 974              		.loc 1 698 0
 975 0052 016B     		ldr	r1, [r0, #48]
 976 0054 8A68     		ldr	r2, [r1, #8]
 977 0056 002A     		cmp	r2, #0
 978 0058 5DD1     		bne	.L98
 699:Drivers/STM32F3xx_HAL_Driver/Src/stm32f3xx_hal_can.c ****     {
 700:Drivers/STM32F3xx_HAL_Driver/Src/stm32f3xx_hal_can.c ****       assert_param(IS_CAN_STDID(hcan->pTxMsg->StdId));
 701:Drivers/STM32F3xx_HAL_Driver/Src/stm32f3xx_hal_can.c ****       hcan->Instance->sTxMailBox[transmitmailbox].TIR |= ((hcan->pTxMsg->StdId << 21U) | \
 979              		.loc 1 701 0
 980 005a 0568     		ldr	r5, [r0]
 981 005c 03F11802 		add	r2, r3, #24
 982 0060 1201     		lsls	r2, r2, #4
 983 0062 AC58     		ldr	r4, [r5, r2]
 984 0064 0E68     		ldr	r6, [r1]
 702:Drivers/STM32F3xx_HAL_Driver/Src/stm32f3xx_hal_can.c ****                                                            hcan->pTxMsg->RTR);
 985              		.loc 1 702 0
 986 0066 C968     		ldr	r1, [r1, #12]
 701:Drivers/STM32F3xx_HAL_Driver/Src/stm32f3xx_hal_can.c ****                                                            hcan->pTxMsg->RTR);
 987              		.loc 1 701 0
 988 0068 41EA4651 		orr	r1, r1, r6, lsl #21
 989 006c 2143     		orrs	r1, r1, r4
 990 006e A950     		str	r1, [r5, r2]
 991              	.L99:
 703:Drivers/STM32F3xx_HAL_Driver/Src/stm32f3xx_hal_can.c ****     }
 704:Drivers/STM32F3xx_HAL_Driver/Src/stm32f3xx_hal_can.c ****     else
 705:Drivers/STM32F3xx_HAL_Driver/Src/stm32f3xx_hal_can.c ****     {
 706:Drivers/STM32F3xx_HAL_Driver/Src/stm32f3xx_hal_can.c ****       assert_param(IS_CAN_EXTID(hcan->pTxMsg->ExtId));
 707:Drivers/STM32F3xx_HAL_Driver/Src/stm32f3xx_hal_can.c ****       hcan->Instance->sTxMailBox[transmitmailbox].TIR |= ((hcan->pTxMsg->ExtId << 3U) | \
 708:Drivers/STM32F3xx_HAL_Driver/Src/stm32f3xx_hal_can.c ****                                                            hcan->pTxMsg->IDE | \
 709:Drivers/STM32F3xx_HAL_Driver/Src/stm32f3xx_hal_can.c ****                                                            hcan->pTxMsg->RTR);
 710:Drivers/STM32F3xx_HAL_Driver/Src/stm32f3xx_hal_can.c ****     }
 711:Drivers/STM32F3xx_HAL_Driver/Src/stm32f3xx_hal_can.c **** 
 712:Drivers/STM32F3xx_HAL_Driver/Src/stm32f3xx_hal_can.c ****     /* Set up the DLC */
 713:Drivers/STM32F3xx_HAL_Driver/Src/stm32f3xx_hal_can.c ****     hcan->pTxMsg->DLC &= (uint8_t)0x0000000FU;
 992              		.loc 1 713 0
 993 0070 016B     		ldr	r1, [r0, #48]
 994 0072 0A69     		ldr	r2, [r1, #16]
 995 0074 02F00F02 		and	r2, r2, #15
 996 0078 0A61     		str	r2, [r1, #16]
 714:Drivers/STM32F3xx_HAL_Driver/Src/stm32f3xx_hal_can.c ****     hcan->Instance->sTxMailBox[transmitmailbox].TDTR &= 0xFFFFFFF0U;
 997              		.loc 1 714 0
 998 007a 0468     		ldr	r4, [r0]
 999 007c 03F11802 		add	r2, r3, #24
 1000 0080 1101     		lsls	r1, r2, #4
 1001 0082 6218     		adds	r2, r4, r1
 1002 0084 5468     		ldr	r4, [r2, #4]
 1003 0086 24F00F04 		bic	r4, r4, #15
 1004 008a 5460     		str	r4, [r2, #4]
 715:Drivers/STM32F3xx_HAL_Driver/Src/stm32f3xx_hal_can.c ****     hcan->Instance->sTxMailBox[transmitmailbox].TDTR |= hcan->pTxMsg->DLC;
 1005              		.loc 1 715 0
 1006 008c 0268     		ldr	r2, [r0]
 1007 008e 0A44     		add	r2, r2, r1
ARM GAS  /var/folders/p7/nwmyw04531jbkqkgv59cx10h0000gn/T//ccKbzw64.s 			page 33


 1008 0090 5168     		ldr	r1, [r2, #4]
 1009 0092 046B     		ldr	r4, [r0, #48]
 1010 0094 2469     		ldr	r4, [r4, #16]
 1011 0096 2143     		orrs	r1, r1, r4
 1012 0098 5160     		str	r1, [r2, #4]
 716:Drivers/STM32F3xx_HAL_Driver/Src/stm32f3xx_hal_can.c **** 
 717:Drivers/STM32F3xx_HAL_Driver/Src/stm32f3xx_hal_can.c ****     /* Set up the data field */
 718:Drivers/STM32F3xx_HAL_Driver/Src/stm32f3xx_hal_can.c ****     WRITE_REG(hcan->Instance->sTxMailBox[transmitmailbox].TDLR, ((uint32_t)hcan->pTxMsg->Data[3] <<
 1013              		.loc 1 718 0
 1014 009a 0468     		ldr	r4, [r0]
 1015 009c 016B     		ldr	r1, [r0, #48]
 1016 009e CD7D     		ldrb	r5, [r1, #23]	@ zero_extendqisi2
 1017 00a0 8A7D     		ldrb	r2, [r1, #22]	@ zero_extendqisi2
 1018 00a2 1204     		lsls	r2, r2, #16
 1019 00a4 42EA0562 		orr	r2, r2, r5, lsl #24
 1020 00a8 4D7D     		ldrb	r5, [r1, #21]	@ zero_extendqisi2
 1021 00aa 42EA0522 		orr	r2, r2, r5, lsl #8
 1022 00ae 097D     		ldrb	r1, [r1, #20]	@ zero_extendqisi2
 1023 00b0 0A43     		orrs	r2, r2, r1
 1024 00b2 1D01     		lsls	r5, r3, #4
 1025 00b4 2C44     		add	r4, r4, r5
 1026 00b6 C4F88821 		str	r2, [r4, #392]
 719:Drivers/STM32F3xx_HAL_Driver/Src/stm32f3xx_hal_can.c ****                                                                 ((uint32_t)hcan->pTxMsg->Data[2] <<
 720:Drivers/STM32F3xx_HAL_Driver/Src/stm32f3xx_hal_can.c ****                                                                 ((uint32_t)hcan->pTxMsg->Data[1] <<
 721:Drivers/STM32F3xx_HAL_Driver/Src/stm32f3xx_hal_can.c ****                                                                 ((uint32_t)hcan->pTxMsg->Data[0]   
 722:Drivers/STM32F3xx_HAL_Driver/Src/stm32f3xx_hal_can.c ****     WRITE_REG(hcan->Instance->sTxMailBox[transmitmailbox].TDHR, ((uint32_t)hcan->pTxMsg->Data[7] <<
 1027              		.loc 1 722 0
 1028 00ba 0168     		ldr	r1, [r0]
 1029 00bc 046B     		ldr	r4, [r0, #48]
 1030 00be E67E     		ldrb	r6, [r4, #27]	@ zero_extendqisi2
 1031 00c0 A27E     		ldrb	r2, [r4, #26]	@ zero_extendqisi2
 1032 00c2 1204     		lsls	r2, r2, #16
 1033 00c4 42EA0662 		orr	r2, r2, r6, lsl #24
 1034 00c8 667E     		ldrb	r6, [r4, #25]	@ zero_extendqisi2
 1035 00ca 42EA0622 		orr	r2, r2, r6, lsl #8
 1036 00ce 247E     		ldrb	r4, [r4, #24]	@ zero_extendqisi2
 1037 00d0 2243     		orrs	r2, r2, r4
 1038 00d2 2944     		add	r1, r1, r5
 1039 00d4 C1F88C21 		str	r2, [r1, #396]
 723:Drivers/STM32F3xx_HAL_Driver/Src/stm32f3xx_hal_can.c ****                                                                 ((uint32_t)hcan->pTxMsg->Data[6] <<
 724:Drivers/STM32F3xx_HAL_Driver/Src/stm32f3xx_hal_can.c ****                                                                 ((uint32_t)hcan->pTxMsg->Data[5] <<
 725:Drivers/STM32F3xx_HAL_Driver/Src/stm32f3xx_hal_can.c ****                                                                 ((uint32_t)hcan->pTxMsg->Data[4]   
 726:Drivers/STM32F3xx_HAL_Driver/Src/stm32f3xx_hal_can.c **** 
 727:Drivers/STM32F3xx_HAL_Driver/Src/stm32f3xx_hal_can.c ****     if(hcan->State == HAL_CAN_STATE_BUSY_RX)
 1040              		.loc 1 727 0
 1041 00d8 90F83920 		ldrb	r2, [r0, #57]	@ zero_extendqisi2
 1042 00dc D2B2     		uxtb	r2, r2
 1043 00de 222A     		cmp	r2, #34
 1044 00e0 26D0     		beq	.L109
 728:Drivers/STM32F3xx_HAL_Driver/Src/stm32f3xx_hal_can.c ****     {
 729:Drivers/STM32F3xx_HAL_Driver/Src/stm32f3xx_hal_can.c ****       /* Change CAN state */
 730:Drivers/STM32F3xx_HAL_Driver/Src/stm32f3xx_hal_can.c ****       hcan->State = HAL_CAN_STATE_BUSY_TX_RX;
 731:Drivers/STM32F3xx_HAL_Driver/Src/stm32f3xx_hal_can.c ****     }
 732:Drivers/STM32F3xx_HAL_Driver/Src/stm32f3xx_hal_can.c ****     else
 733:Drivers/STM32F3xx_HAL_Driver/Src/stm32f3xx_hal_can.c ****     {
 734:Drivers/STM32F3xx_HAL_Driver/Src/stm32f3xx_hal_can.c ****       /* Change CAN state */
 735:Drivers/STM32F3xx_HAL_Driver/Src/stm32f3xx_hal_can.c ****       hcan->State = HAL_CAN_STATE_BUSY_TX;
ARM GAS  /var/folders/p7/nwmyw04531jbkqkgv59cx10h0000gn/T//ccKbzw64.s 			page 34


 1045              		.loc 1 735 0
 1046 00e2 1222     		movs	r2, #18
 1047 00e4 80F83920 		strb	r2, [r0, #57]
 1048              	.L101:
 736:Drivers/STM32F3xx_HAL_Driver/Src/stm32f3xx_hal_can.c ****     }
 737:Drivers/STM32F3xx_HAL_Driver/Src/stm32f3xx_hal_can.c **** 
 738:Drivers/STM32F3xx_HAL_Driver/Src/stm32f3xx_hal_can.c ****     /* Set CAN error code to none */
 739:Drivers/STM32F3xx_HAL_Driver/Src/stm32f3xx_hal_can.c ****     hcan->ErrorCode = HAL_CAN_ERROR_NONE;
 1049              		.loc 1 739 0
 1050 00e8 0022     		movs	r2, #0
 1051 00ea C263     		str	r2, [r0, #60]
 740:Drivers/STM32F3xx_HAL_Driver/Src/stm32f3xx_hal_can.c **** 
 741:Drivers/STM32F3xx_HAL_Driver/Src/stm32f3xx_hal_can.c ****     /* Process Unlocked */
 742:Drivers/STM32F3xx_HAL_Driver/Src/stm32f3xx_hal_can.c ****     __HAL_UNLOCK(hcan);
 1052              		.loc 1 742 0
 1053 00ec 80F83820 		strb	r2, [r0, #56]
 743:Drivers/STM32F3xx_HAL_Driver/Src/stm32f3xx_hal_can.c **** 
 744:Drivers/STM32F3xx_HAL_Driver/Src/stm32f3xx_hal_can.c ****     /* Enable interrupts: */
 745:Drivers/STM32F3xx_HAL_Driver/Src/stm32f3xx_hal_can.c ****     /*  - Enable Error warning Interrupt */
 746:Drivers/STM32F3xx_HAL_Driver/Src/stm32f3xx_hal_can.c ****     /*  - Enable Error passive Interrupt */
 747:Drivers/STM32F3xx_HAL_Driver/Src/stm32f3xx_hal_can.c ****     /*  - Enable Bus-off Interrupt */
 748:Drivers/STM32F3xx_HAL_Driver/Src/stm32f3xx_hal_can.c ****     /*  - Enable Last error code Interrupt */
 749:Drivers/STM32F3xx_HAL_Driver/Src/stm32f3xx_hal_can.c ****     /*  - Enable Error Interrupt */
 750:Drivers/STM32F3xx_HAL_Driver/Src/stm32f3xx_hal_can.c ****     /*  - Enable Transmit mailbox empty Interrupt */
 751:Drivers/STM32F3xx_HAL_Driver/Src/stm32f3xx_hal_can.c ****     __HAL_CAN_ENABLE_IT(hcan, CAN_IT_EWG |
 1054              		.loc 1 751 0
 1055 00f0 0468     		ldr	r4, [r0]
 1056 00f2 6169     		ldr	r1, [r4, #20]
 1057 00f4 41F40F41 		orr	r1, r1, #36608
 1058 00f8 41F00101 		orr	r1, r1, #1
 1059 00fc 6161     		str	r1, [r4, #20]
 752:Drivers/STM32F3xx_HAL_Driver/Src/stm32f3xx_hal_can.c ****                               CAN_IT_EPV |
 753:Drivers/STM32F3xx_HAL_Driver/Src/stm32f3xx_hal_can.c ****                               CAN_IT_BOF |
 754:Drivers/STM32F3xx_HAL_Driver/Src/stm32f3xx_hal_can.c ****                               CAN_IT_LEC |
 755:Drivers/STM32F3xx_HAL_Driver/Src/stm32f3xx_hal_can.c ****                               CAN_IT_ERR |
 756:Drivers/STM32F3xx_HAL_Driver/Src/stm32f3xx_hal_can.c ****                               CAN_IT_TME  );
 757:Drivers/STM32F3xx_HAL_Driver/Src/stm32f3xx_hal_can.c **** 
 758:Drivers/STM32F3xx_HAL_Driver/Src/stm32f3xx_hal_can.c ****     /* Request transmission */
 759:Drivers/STM32F3xx_HAL_Driver/Src/stm32f3xx_hal_can.c ****     hcan->Instance->sTxMailBox[transmitmailbox].TIR |= CAN_TI0R_TXRQ;
 1060              		.loc 1 759 0
 1061 00fe 0068     		ldr	r0, [r0]
 1062              	.LVL52:
 1063 0100 1833     		adds	r3, r3, #24
 1064              	.LVL53:
 1065 0102 1B01     		lsls	r3, r3, #4
 1066              	.LVL54:
 1067 0104 C158     		ldr	r1, [r0, r3]
 1068 0106 41F00101 		orr	r1, r1, #1
 1069 010a C150     		str	r1, [r0, r3]
 760:Drivers/STM32F3xx_HAL_Driver/Src/stm32f3xx_hal_can.c ****   }
 761:Drivers/STM32F3xx_HAL_Driver/Src/stm32f3xx_hal_can.c ****   else
 762:Drivers/STM32F3xx_HAL_Driver/Src/stm32f3xx_hal_can.c ****   {
 763:Drivers/STM32F3xx_HAL_Driver/Src/stm32f3xx_hal_can.c ****     /* Change CAN state */
 764:Drivers/STM32F3xx_HAL_Driver/Src/stm32f3xx_hal_can.c ****     hcan->State = HAL_CAN_STATE_ERROR;
 765:Drivers/STM32F3xx_HAL_Driver/Src/stm32f3xx_hal_can.c **** 
 766:Drivers/STM32F3xx_HAL_Driver/Src/stm32f3xx_hal_can.c ****     /* Return function status */
 767:Drivers/STM32F3xx_HAL_Driver/Src/stm32f3xx_hal_can.c ****     return HAL_ERROR;
ARM GAS  /var/folders/p7/nwmyw04531jbkqkgv59cx10h0000gn/T//ccKbzw64.s 			page 35


 768:Drivers/STM32F3xx_HAL_Driver/Src/stm32f3xx_hal_can.c ****   }
 769:Drivers/STM32F3xx_HAL_Driver/Src/stm32f3xx_hal_can.c ****   
 770:Drivers/STM32F3xx_HAL_Driver/Src/stm32f3xx_hal_can.c ****   return HAL_OK;
 1070              		.loc 1 770 0
 1071 010c 1046     		mov	r0, r2
 771:Drivers/STM32F3xx_HAL_Driver/Src/stm32f3xx_hal_can.c **** }
 1072              		.loc 1 771 0
 1073 010e F0BC     		pop	{r4, r5, r6, r7}
 1074              	.LCFI9:
 1075              		.cfi_remember_state
 1076              		.cfi_restore 7
 1077              		.cfi_restore 6
 1078              		.cfi_restore 5
 1079              		.cfi_restore 4
 1080              		.cfi_def_cfa_offset 0
 1081 0110 7047     		bx	lr
 1082              	.LVL55:
 1083              	.L104:
 1084              	.LCFI10:
 1085              		.cfi_restore_state
 693:Drivers/STM32F3xx_HAL_Driver/Src/stm32f3xx_hal_can.c ****     }
 1086              		.loc 1 693 0
 1087 0112 0223     		movs	r3, #2
 1088 0114 96E7     		b	.L97
 1089              	.LVL56:
 1090              	.L98:
 707:Drivers/STM32F3xx_HAL_Driver/Src/stm32f3xx_hal_can.c ****                                                            hcan->pTxMsg->IDE | \
 1091              		.loc 1 707 0
 1092 0116 0668     		ldr	r6, [r0]
 1093 0118 03F11804 		add	r4, r3, #24
 1094 011c 2401     		lsls	r4, r4, #4
 1095 011e 3559     		ldr	r5, [r6, r4]
 1096 0120 4F68     		ldr	r7, [r1, #4]
 1097 0122 42EAC702 		orr	r2, r2, r7, lsl #3
 709:Drivers/STM32F3xx_HAL_Driver/Src/stm32f3xx_hal_can.c ****     }
 1098              		.loc 1 709 0
 1099 0126 C968     		ldr	r1, [r1, #12]
 708:Drivers/STM32F3xx_HAL_Driver/Src/stm32f3xx_hal_can.c ****                                                            hcan->pTxMsg->RTR);
 1100              		.loc 1 708 0
 1101 0128 0A43     		orrs	r2, r2, r1
 707:Drivers/STM32F3xx_HAL_Driver/Src/stm32f3xx_hal_can.c ****                                                            hcan->pTxMsg->IDE | \
 1102              		.loc 1 707 0
 1103 012a 2A43     		orrs	r2, r2, r5
 1104 012c 3251     		str	r2, [r6, r4]
 1105 012e 9FE7     		b	.L99
 1106              	.L109:
 730:Drivers/STM32F3xx_HAL_Driver/Src/stm32f3xx_hal_can.c ****     }
 1107              		.loc 1 730 0
 1108 0130 3222     		movs	r2, #50
 1109 0132 80F83920 		strb	r2, [r0, #57]
 1110 0136 D7E7     		b	.L101
 1111              	.LVL57:
 1112              	.L95:
 1113              	.LCFI11:
 1114              		.cfi_def_cfa_offset 0
 1115              		.cfi_restore 4
 1116              		.cfi_restore 5
ARM GAS  /var/folders/p7/nwmyw04531jbkqkgv59cx10h0000gn/T//ccKbzw64.s 			page 36


 1117              		.cfi_restore 6
 1118              		.cfi_restore 7
 764:Drivers/STM32F3xx_HAL_Driver/Src/stm32f3xx_hal_can.c **** 
 1119              		.loc 1 764 0
 1120 0138 0423     		movs	r3, #4
 1121 013a 80F83930 		strb	r3, [r0, #57]
 767:Drivers/STM32F3xx_HAL_Driver/Src/stm32f3xx_hal_can.c ****   }
 1122              		.loc 1 767 0
 1123 013e 0120     		movs	r0, #1
 1124              	.LVL58:
 1125 0140 7047     		bx	lr
 1126              	.LVL59:
 1127              	.L102:
 680:Drivers/STM32F3xx_HAL_Driver/Src/stm32f3xx_hal_can.c ****     
 1128              		.loc 1 680 0
 1129 0142 0220     		movs	r0, #2
 1130              	.LVL60:
 1131 0144 7047     		bx	lr
 1132              		.cfi_endproc
 1133              	.LFE130:
 1135              		.section	.text.HAL_CAN_Receive,"ax",%progbits
 1136              		.align	1
 1137              		.global	HAL_CAN_Receive
 1138              		.syntax unified
 1139              		.thumb
 1140              		.thumb_func
 1141              		.fpu fpv4-sp-d16
 1143              	HAL_CAN_Receive:
 1144              	.LFB131:
 772:Drivers/STM32F3xx_HAL_Driver/Src/stm32f3xx_hal_can.c **** 
 773:Drivers/STM32F3xx_HAL_Driver/Src/stm32f3xx_hal_can.c **** /**
 774:Drivers/STM32F3xx_HAL_Driver/Src/stm32f3xx_hal_can.c ****   * @brief  Receives a correct CAN frame.
 775:Drivers/STM32F3xx_HAL_Driver/Src/stm32f3xx_hal_can.c ****   * @param  hcan: pointer to a CAN_HandleTypeDef structure that contains
 776:Drivers/STM32F3xx_HAL_Driver/Src/stm32f3xx_hal_can.c ****   *         the configuration information for the specified CAN.  
 777:Drivers/STM32F3xx_HAL_Driver/Src/stm32f3xx_hal_can.c ****   * @param  FIFONumber:    FIFO number.
 778:Drivers/STM32F3xx_HAL_Driver/Src/stm32f3xx_hal_can.c ****   * @param  Timeout:       Timeout duration.
 779:Drivers/STM32F3xx_HAL_Driver/Src/stm32f3xx_hal_can.c ****   * @retval HAL status
 780:Drivers/STM32F3xx_HAL_Driver/Src/stm32f3xx_hal_can.c ****   * @retval None
 781:Drivers/STM32F3xx_HAL_Driver/Src/stm32f3xx_hal_can.c ****   */
 782:Drivers/STM32F3xx_HAL_Driver/Src/stm32f3xx_hal_can.c **** HAL_StatusTypeDef HAL_CAN_Receive(CAN_HandleTypeDef* hcan, uint8_t FIFONumber, uint32_t Timeout)
 783:Drivers/STM32F3xx_HAL_Driver/Src/stm32f3xx_hal_can.c **** {
 1145              		.loc 1 783 0
 1146              		.cfi_startproc
 1147              		@ args = 0, pretend = 0, frame = 0
 1148              		@ frame_needed = 0, uses_anonymous_args = 0
 1149              	.LVL61:
 1150 0000 F8B5     		push	{r3, r4, r5, r6, r7, lr}
 1151              	.LCFI12:
 1152              		.cfi_def_cfa_offset 24
 1153              		.cfi_offset 3, -24
 1154              		.cfi_offset 4, -20
 1155              		.cfi_offset 5, -16
 1156              		.cfi_offset 6, -12
 1157              		.cfi_offset 7, -8
 1158              		.cfi_offset 14, -4
 1159              	.LVL62:
 784:Drivers/STM32F3xx_HAL_Driver/Src/stm32f3xx_hal_can.c ****   uint32_t tickstart = 0U;
ARM GAS  /var/folders/p7/nwmyw04531jbkqkgv59cx10h0000gn/T//ccKbzw64.s 			page 37


 785:Drivers/STM32F3xx_HAL_Driver/Src/stm32f3xx_hal_can.c ****    
 786:Drivers/STM32F3xx_HAL_Driver/Src/stm32f3xx_hal_can.c ****   /* Check the parameters */
 787:Drivers/STM32F3xx_HAL_Driver/Src/stm32f3xx_hal_can.c ****   assert_param(IS_CAN_FIFO(FIFONumber));
 788:Drivers/STM32F3xx_HAL_Driver/Src/stm32f3xx_hal_can.c ****   
 789:Drivers/STM32F3xx_HAL_Driver/Src/stm32f3xx_hal_can.c ****   /* Process locked */
 790:Drivers/STM32F3xx_HAL_Driver/Src/stm32f3xx_hal_can.c ****   __HAL_LOCK(hcan);
 1160              		.loc 1 790 0
 1161 0002 90F83830 		ldrb	r3, [r0, #56]	@ zero_extendqisi2
 1162 0006 012B     		cmp	r3, #1
 1163 0008 00F0BE80 		beq	.L126
 1164              		.loc 1 790 0 is_stmt 0 discriminator 2
 1165 000c 0123     		movs	r3, #1
 1166 000e 80F83830 		strb	r3, [r0, #56]
 791:Drivers/STM32F3xx_HAL_Driver/Src/stm32f3xx_hal_can.c ****   
 792:Drivers/STM32F3xx_HAL_Driver/Src/stm32f3xx_hal_can.c ****   if(hcan->State == HAL_CAN_STATE_BUSY_TX) 
 1167              		.loc 1 792 0 is_stmt 1 discriminator 2
 1168 0012 90F83930 		ldrb	r3, [r0, #57]	@ zero_extendqisi2
 1169 0016 DBB2     		uxtb	r3, r3
 1170 0018 122B     		cmp	r3, #18
 1171 001a 09D0     		beq	.L128
 793:Drivers/STM32F3xx_HAL_Driver/Src/stm32f3xx_hal_can.c ****   {
 794:Drivers/STM32F3xx_HAL_Driver/Src/stm32f3xx_hal_can.c ****     /* Change CAN state */
 795:Drivers/STM32F3xx_HAL_Driver/Src/stm32f3xx_hal_can.c ****     hcan->State = HAL_CAN_STATE_BUSY_TX_RX;
 796:Drivers/STM32F3xx_HAL_Driver/Src/stm32f3xx_hal_can.c ****   }
 797:Drivers/STM32F3xx_HAL_Driver/Src/stm32f3xx_hal_can.c ****   else
 798:Drivers/STM32F3xx_HAL_Driver/Src/stm32f3xx_hal_can.c ****   {
 799:Drivers/STM32F3xx_HAL_Driver/Src/stm32f3xx_hal_can.c ****     /* Change CAN state */
 800:Drivers/STM32F3xx_HAL_Driver/Src/stm32f3xx_hal_can.c ****     hcan->State = HAL_CAN_STATE_BUSY_RX;
 1172              		.loc 1 800 0
 1173 001c 2223     		movs	r3, #34
 1174 001e 80F83930 		strb	r3, [r0, #57]
 1175              	.L113:
 1176 0022 1646     		mov	r6, r2
 1177 0024 0D46     		mov	r5, r1
 1178 0026 0446     		mov	r4, r0
 801:Drivers/STM32F3xx_HAL_Driver/Src/stm32f3xx_hal_can.c ****   }
 802:Drivers/STM32F3xx_HAL_Driver/Src/stm32f3xx_hal_can.c ****     
 803:Drivers/STM32F3xx_HAL_Driver/Src/stm32f3xx_hal_can.c ****   /* Get tick */
 804:Drivers/STM32F3xx_HAL_Driver/Src/stm32f3xx_hal_can.c ****   tickstart = HAL_GetTick();   
 1179              		.loc 1 804 0
 1180 0028 FFF7FEFF 		bl	HAL_GetTick
 1181              	.LVL63:
 1182 002c 0746     		mov	r7, r0
 1183              	.LVL64:
 805:Drivers/STM32F3xx_HAL_Driver/Src/stm32f3xx_hal_can.c ****   
 806:Drivers/STM32F3xx_HAL_Driver/Src/stm32f3xx_hal_can.c ****   /* Check pending message */
 807:Drivers/STM32F3xx_HAL_Driver/Src/stm32f3xx_hal_can.c ****   while(__HAL_CAN_MSG_PENDING(hcan, FIFONumber) == 0U)
 1184              		.loc 1 807 0
 1185 002e 1BE0     		b	.L115
 1186              	.LVL65:
 1187              	.L128:
 795:Drivers/STM32F3xx_HAL_Driver/Src/stm32f3xx_hal_can.c ****   }
 1188              		.loc 1 795 0
 1189 0030 3223     		movs	r3, #50
 1190 0032 80F83930 		strb	r3, [r0, #57]
 1191 0036 F4E7     		b	.L113
 1192              	.LVL66:
ARM GAS  /var/folders/p7/nwmyw04531jbkqkgv59cx10h0000gn/T//ccKbzw64.s 			page 38


 1193              	.L130:
 808:Drivers/STM32F3xx_HAL_Driver/Src/stm32f3xx_hal_can.c ****   {
 809:Drivers/STM32F3xx_HAL_Driver/Src/stm32f3xx_hal_can.c ****     /* Check for the Timeout */
 810:Drivers/STM32F3xx_HAL_Driver/Src/stm32f3xx_hal_can.c ****     if(Timeout != HAL_MAX_DELAY)
 811:Drivers/STM32F3xx_HAL_Driver/Src/stm32f3xx_hal_can.c ****     {
 812:Drivers/STM32F3xx_HAL_Driver/Src/stm32f3xx_hal_can.c ****       if((Timeout == 0U) || ((HAL_GetTick()-tickstart) > Timeout))
 1194              		.loc 1 812 0
 1195 0038 26B1     		cbz	r6, .L116
 1196              		.loc 1 812 0 is_stmt 0 discriminator 1
 1197 003a FFF7FEFF 		bl	HAL_GetTick
 1198              	.LVL67:
 1199 003e C01B     		subs	r0, r0, r7
 1200 0040 8642     		cmp	r6, r0
 1201 0042 11D2     		bcs	.L115
 1202              	.L116:
 813:Drivers/STM32F3xx_HAL_Driver/Src/stm32f3xx_hal_can.c ****       {
 814:Drivers/STM32F3xx_HAL_Driver/Src/stm32f3xx_hal_can.c ****         hcan->State = HAL_CAN_STATE_TIMEOUT;
 1203              		.loc 1 814 0 is_stmt 1
 1204 0044 0320     		movs	r0, #3
 1205 0046 84F83900 		strb	r0, [r4, #57]
 815:Drivers/STM32F3xx_HAL_Driver/Src/stm32f3xx_hal_can.c ****         /* Process unlocked */
 816:Drivers/STM32F3xx_HAL_Driver/Src/stm32f3xx_hal_can.c ****         __HAL_UNLOCK(hcan);
 1206              		.loc 1 816 0
 1207 004a 0023     		movs	r3, #0
 1208 004c 84F83830 		strb	r3, [r4, #56]
 817:Drivers/STM32F3xx_HAL_Driver/Src/stm32f3xx_hal_can.c ****         return HAL_TIMEOUT;
 1209              		.loc 1 817 0
 1210 0050 F8BD     		pop	{r3, r4, r5, r6, r7, pc}
 1211              	.LVL68:
 1212              	.L117:
 807:Drivers/STM32F3xx_HAL_Driver/Src/stm32f3xx_hal_can.c ****   {
 1213              		.loc 1 807 0 discriminator 2
 1214 0052 2368     		ldr	r3, [r4]
 1215 0054 1B69     		ldr	r3, [r3, #16]
 1216 0056 13F0030F 		tst	r3, #3
 1217 005a 0CBF     		ite	eq
 1218 005c 0123     		moveq	r3, #1
 1219 005e 0023     		movne	r3, #0
 1220              	.L118:
 807:Drivers/STM32F3xx_HAL_Driver/Src/stm32f3xx_hal_can.c ****   {
 1221              		.loc 1 807 0 is_stmt 0 discriminator 4
 1222 0060 63B1     		cbz	r3, .L129
 810:Drivers/STM32F3xx_HAL_Driver/Src/stm32f3xx_hal_can.c ****     {
 1223              		.loc 1 810 0 is_stmt 1
 1224 0062 B6F1FF3F 		cmp	r6, #-1
 1225 0066 E7D1     		bne	.L130
 1226              	.L115:
 807:Drivers/STM32F3xx_HAL_Driver/Src/stm32f3xx_hal_can.c ****   {
 1227              		.loc 1 807 0
 1228 0068 002D     		cmp	r5, #0
 1229 006a F2D1     		bne	.L117
 807:Drivers/STM32F3xx_HAL_Driver/Src/stm32f3xx_hal_can.c ****   {
 1230              		.loc 1 807 0 is_stmt 0 discriminator 1
 1231 006c 2368     		ldr	r3, [r4]
 1232 006e DB68     		ldr	r3, [r3, #12]
 1233 0070 13F0030F 		tst	r3, #3
 1234 0074 0CBF     		ite	eq
ARM GAS  /var/folders/p7/nwmyw04531jbkqkgv59cx10h0000gn/T//ccKbzw64.s 			page 39


 1235 0076 0123     		moveq	r3, #1
 1236 0078 0023     		movne	r3, #0
 1237 007a F1E7     		b	.L118
 1238              	.L129:
 818:Drivers/STM32F3xx_HAL_Driver/Src/stm32f3xx_hal_can.c ****       }
 819:Drivers/STM32F3xx_HAL_Driver/Src/stm32f3xx_hal_can.c ****     }
 820:Drivers/STM32F3xx_HAL_Driver/Src/stm32f3xx_hal_can.c ****   }
 821:Drivers/STM32F3xx_HAL_Driver/Src/stm32f3xx_hal_can.c ****   
 822:Drivers/STM32F3xx_HAL_Driver/Src/stm32f3xx_hal_can.c ****   /* Get the Id */
 823:Drivers/STM32F3xx_HAL_Driver/Src/stm32f3xx_hal_can.c ****   hcan->pRxMsg->IDE = (uint8_t)0x04U & hcan->Instance->sFIFOMailBox[FIFONumber].RIR;
 1239              		.loc 1 823 0 is_stmt 1
 1240 007c 626B     		ldr	r2, [r4, #52]
 1241 007e 2168     		ldr	r1, [r4]
 1242 0080 05F11B03 		add	r3, r5, #27
 1243 0084 1B01     		lsls	r3, r3, #4
 1244 0086 CB58     		ldr	r3, [r1, r3]
 1245 0088 03F00403 		and	r3, r3, #4
 1246 008c 9360     		str	r3, [r2, #8]
 824:Drivers/STM32F3xx_HAL_Driver/Src/stm32f3xx_hal_can.c ****   if (hcan->pRxMsg->IDE == CAN_ID_STD)
 1247              		.loc 1 824 0
 1248 008e 636B     		ldr	r3, [r4, #52]
 1249 0090 9A68     		ldr	r2, [r3, #8]
 1250 0092 002A     		cmp	r2, #0
 1251 0094 66D1     		bne	.L120
 825:Drivers/STM32F3xx_HAL_Driver/Src/stm32f3xx_hal_can.c ****   {
 826:Drivers/STM32F3xx_HAL_Driver/Src/stm32f3xx_hal_can.c ****     hcan->pRxMsg->StdId = 0x000007FFU & (hcan->Instance->sFIFOMailBox[FIFONumber].RIR >> 21U);
 1252              		.loc 1 826 0
 1253 0096 2168     		ldr	r1, [r4]
 1254 0098 05F11B02 		add	r2, r5, #27
 1255 009c 1201     		lsls	r2, r2, #4
 1256 009e 8A58     		ldr	r2, [r1, r2]
 1257 00a0 520D     		lsrs	r2, r2, #21
 1258 00a2 1A60     		str	r2, [r3]
 1259              	.L121:
 827:Drivers/STM32F3xx_HAL_Driver/Src/stm32f3xx_hal_can.c ****   }
 828:Drivers/STM32F3xx_HAL_Driver/Src/stm32f3xx_hal_can.c ****   else
 829:Drivers/STM32F3xx_HAL_Driver/Src/stm32f3xx_hal_can.c ****   {
 830:Drivers/STM32F3xx_HAL_Driver/Src/stm32f3xx_hal_can.c ****     hcan->pRxMsg->ExtId = 0x1FFFFFFFU & (hcan->Instance->sFIFOMailBox[FIFONumber].RIR >> 3U);
 831:Drivers/STM32F3xx_HAL_Driver/Src/stm32f3xx_hal_can.c ****   }
 832:Drivers/STM32F3xx_HAL_Driver/Src/stm32f3xx_hal_can.c ****   
 833:Drivers/STM32F3xx_HAL_Driver/Src/stm32f3xx_hal_can.c ****   hcan->pRxMsg->RTR = (uint8_t)0x02U & hcan->Instance->sFIFOMailBox[FIFONumber].RIR;
 1260              		.loc 1 833 0
 1261 00a4 616B     		ldr	r1, [r4, #52]
 1262 00a6 2268     		ldr	r2, [r4]
 1263 00a8 05F11B03 		add	r3, r5, #27
 1264 00ac 1B01     		lsls	r3, r3, #4
 1265 00ae D258     		ldr	r2, [r2, r3]
 1266 00b0 02F00202 		and	r2, r2, #2
 1267 00b4 CA60     		str	r2, [r1, #12]
 834:Drivers/STM32F3xx_HAL_Driver/Src/stm32f3xx_hal_can.c ****   /* Get the DLC */
 835:Drivers/STM32F3xx_HAL_Driver/Src/stm32f3xx_hal_can.c ****   hcan->pRxMsg->DLC = (uint8_t)0x0FU & hcan->Instance->sFIFOMailBox[FIFONumber].RDTR;
 1268              		.loc 1 835 0
 1269 00b6 616B     		ldr	r1, [r4, #52]
 1270 00b8 2268     		ldr	r2, [r4]
 1271 00ba 1A44     		add	r2, r2, r3
 1272 00bc 5268     		ldr	r2, [r2, #4]
 1273 00be 02F00F02 		and	r2, r2, #15
ARM GAS  /var/folders/p7/nwmyw04531jbkqkgv59cx10h0000gn/T//ccKbzw64.s 			page 40


 1274 00c2 0A61     		str	r2, [r1, #16]
 836:Drivers/STM32F3xx_HAL_Driver/Src/stm32f3xx_hal_can.c ****   /* Get the FMI */
 837:Drivers/STM32F3xx_HAL_Driver/Src/stm32f3xx_hal_can.c ****   hcan->pRxMsg->FMI = (uint8_t)0xFFU & (hcan->Instance->sFIFOMailBox[FIFONumber].RDTR >> 8U);
 1275              		.loc 1 837 0
 1276 00c4 616B     		ldr	r1, [r4, #52]
 1277 00c6 2268     		ldr	r2, [r4]
 1278 00c8 1344     		add	r3, r3, r2
 1279 00ca 5B68     		ldr	r3, [r3, #4]
 1280 00cc C3F30723 		ubfx	r3, r3, #8, #8
 1281 00d0 CB61     		str	r3, [r1, #28]
 838:Drivers/STM32F3xx_HAL_Driver/Src/stm32f3xx_hal_can.c ****   /* Get the data field */
 839:Drivers/STM32F3xx_HAL_Driver/Src/stm32f3xx_hal_can.c ****   hcan->pRxMsg->Data[0] = (uint8_t)0xFFU & hcan->Instance->sFIFOMailBox[FIFONumber].RDLR;
 1282              		.loc 1 839 0
 1283 00d2 616B     		ldr	r1, [r4, #52]
 1284 00d4 2268     		ldr	r2, [r4]
 1285 00d6 2B01     		lsls	r3, r5, #4
 1286 00d8 1A44     		add	r2, r2, r3
 1287 00da D2F8B821 		ldr	r2, [r2, #440]
 1288 00de 0A75     		strb	r2, [r1, #20]
 840:Drivers/STM32F3xx_HAL_Driver/Src/stm32f3xx_hal_can.c ****   hcan->pRxMsg->Data[1] = (uint8_t)0xFFU & (hcan->Instance->sFIFOMailBox[FIFONumber].RDLR >> 8U);
 1289              		.loc 1 840 0
 1290 00e0 616B     		ldr	r1, [r4, #52]
 1291 00e2 2268     		ldr	r2, [r4]
 1292 00e4 1A44     		add	r2, r2, r3
 1293 00e6 D2F8B821 		ldr	r2, [r2, #440]
 1294 00ea 120A     		lsrs	r2, r2, #8
 1295 00ec 4A75     		strb	r2, [r1, #21]
 841:Drivers/STM32F3xx_HAL_Driver/Src/stm32f3xx_hal_can.c ****   hcan->pRxMsg->Data[2] = (uint8_t)0xFFU & (hcan->Instance->sFIFOMailBox[FIFONumber].RDLR >> 16U);
 1296              		.loc 1 841 0
 1297 00ee 616B     		ldr	r1, [r4, #52]
 1298 00f0 2268     		ldr	r2, [r4]
 1299 00f2 1A44     		add	r2, r2, r3
 1300 00f4 D2F8B821 		ldr	r2, [r2, #440]
 1301 00f8 120C     		lsrs	r2, r2, #16
 1302 00fa 8A75     		strb	r2, [r1, #22]
 842:Drivers/STM32F3xx_HAL_Driver/Src/stm32f3xx_hal_can.c ****   hcan->pRxMsg->Data[3] = (uint8_t)0xFFU & (hcan->Instance->sFIFOMailBox[FIFONumber].RDLR >> 24U);
 1303              		.loc 1 842 0
 1304 00fc 616B     		ldr	r1, [r4, #52]
 1305 00fe 2268     		ldr	r2, [r4]
 1306 0100 1A44     		add	r2, r2, r3
 1307 0102 D2F8B821 		ldr	r2, [r2, #440]
 1308 0106 120E     		lsrs	r2, r2, #24
 1309 0108 CA75     		strb	r2, [r1, #23]
 843:Drivers/STM32F3xx_HAL_Driver/Src/stm32f3xx_hal_can.c ****   hcan->pRxMsg->Data[4] = (uint8_t)0xFFU & hcan->Instance->sFIFOMailBox[FIFONumber].RDHR;
 1310              		.loc 1 843 0
 1311 010a 616B     		ldr	r1, [r4, #52]
 1312 010c 2268     		ldr	r2, [r4]
 1313 010e 1A44     		add	r2, r2, r3
 1314 0110 D2F8BC21 		ldr	r2, [r2, #444]
 1315 0114 0A76     		strb	r2, [r1, #24]
 844:Drivers/STM32F3xx_HAL_Driver/Src/stm32f3xx_hal_can.c ****   hcan->pRxMsg->Data[5] = (uint8_t)0xFFU & (hcan->Instance->sFIFOMailBox[FIFONumber].RDHR >> 8U);
 1316              		.loc 1 844 0
 1317 0116 616B     		ldr	r1, [r4, #52]
 1318 0118 2268     		ldr	r2, [r4]
 1319 011a 1A44     		add	r2, r2, r3
 1320 011c D2F8BC21 		ldr	r2, [r2, #444]
 1321 0120 120A     		lsrs	r2, r2, #8
ARM GAS  /var/folders/p7/nwmyw04531jbkqkgv59cx10h0000gn/T//ccKbzw64.s 			page 41


 1322 0122 4A76     		strb	r2, [r1, #25]
 845:Drivers/STM32F3xx_HAL_Driver/Src/stm32f3xx_hal_can.c ****   hcan->pRxMsg->Data[6] = (uint8_t)0xFFU & (hcan->Instance->sFIFOMailBox[FIFONumber].RDHR >> 16U);
 1323              		.loc 1 845 0
 1324 0124 616B     		ldr	r1, [r4, #52]
 1325 0126 2268     		ldr	r2, [r4]
 1326 0128 1A44     		add	r2, r2, r3
 1327 012a D2F8BC21 		ldr	r2, [r2, #444]
 1328 012e 120C     		lsrs	r2, r2, #16
 1329 0130 8A76     		strb	r2, [r1, #26]
 846:Drivers/STM32F3xx_HAL_Driver/Src/stm32f3xx_hal_can.c ****   hcan->pRxMsg->Data[7] = (uint8_t)0xFFU & (hcan->Instance->sFIFOMailBox[FIFONumber].RDHR >> 24U);
 1330              		.loc 1 846 0
 1331 0132 616B     		ldr	r1, [r4, #52]
 1332 0134 2268     		ldr	r2, [r4]
 1333 0136 1344     		add	r3, r3, r2
 1334 0138 D3F8BC31 		ldr	r3, [r3, #444]
 1335 013c 1B0E     		lsrs	r3, r3, #24
 1336 013e CB76     		strb	r3, [r1, #27]
 847:Drivers/STM32F3xx_HAL_Driver/Src/stm32f3xx_hal_can.c ****   
 848:Drivers/STM32F3xx_HAL_Driver/Src/stm32f3xx_hal_can.c ****   /* Release the FIFO */
 849:Drivers/STM32F3xx_HAL_Driver/Src/stm32f3xx_hal_can.c ****   if(FIFONumber == CAN_FIFO0)
 1337              		.loc 1 849 0
 1338 0140 C5B9     		cbnz	r5, .L122
 850:Drivers/STM32F3xx_HAL_Driver/Src/stm32f3xx_hal_can.c ****   {
 851:Drivers/STM32F3xx_HAL_Driver/Src/stm32f3xx_hal_can.c ****     /* Release FIFO0 */
 852:Drivers/STM32F3xx_HAL_Driver/Src/stm32f3xx_hal_can.c ****     __HAL_CAN_FIFO_RELEASE(hcan, CAN_FIFO0);
 1339              		.loc 1 852 0
 1340 0142 2268     		ldr	r2, [r4]
 1341 0144 D368     		ldr	r3, [r2, #12]
 1342 0146 43F02003 		orr	r3, r3, #32
 1343 014a D360     		str	r3, [r2, #12]
 1344              	.L123:
 853:Drivers/STM32F3xx_HAL_Driver/Src/stm32f3xx_hal_can.c ****   }
 854:Drivers/STM32F3xx_HAL_Driver/Src/stm32f3xx_hal_can.c ****   else /* FIFONumber == CAN_FIFO1 */
 855:Drivers/STM32F3xx_HAL_Driver/Src/stm32f3xx_hal_can.c ****   {
 856:Drivers/STM32F3xx_HAL_Driver/Src/stm32f3xx_hal_can.c ****     /* Release FIFO1 */
 857:Drivers/STM32F3xx_HAL_Driver/Src/stm32f3xx_hal_can.c ****     __HAL_CAN_FIFO_RELEASE(hcan, CAN_FIFO1);
 858:Drivers/STM32F3xx_HAL_Driver/Src/stm32f3xx_hal_can.c ****   }
 859:Drivers/STM32F3xx_HAL_Driver/Src/stm32f3xx_hal_can.c ****   
 860:Drivers/STM32F3xx_HAL_Driver/Src/stm32f3xx_hal_can.c ****   if(hcan->State == HAL_CAN_STATE_BUSY_TX_RX) 
 1345              		.loc 1 860 0
 1346 014c 94F83930 		ldrb	r3, [r4, #57]	@ zero_extendqisi2
 1347 0150 DBB2     		uxtb	r3, r3
 1348 0152 322B     		cmp	r3, #50
 1349 0154 14D0     		beq	.L131
 861:Drivers/STM32F3xx_HAL_Driver/Src/stm32f3xx_hal_can.c ****   {
 862:Drivers/STM32F3xx_HAL_Driver/Src/stm32f3xx_hal_can.c ****     /* Change CAN state */
 863:Drivers/STM32F3xx_HAL_Driver/Src/stm32f3xx_hal_can.c ****     hcan->State = HAL_CAN_STATE_BUSY_TX;
 864:Drivers/STM32F3xx_HAL_Driver/Src/stm32f3xx_hal_can.c ****   }
 865:Drivers/STM32F3xx_HAL_Driver/Src/stm32f3xx_hal_can.c ****   else
 866:Drivers/STM32F3xx_HAL_Driver/Src/stm32f3xx_hal_can.c ****   {
 867:Drivers/STM32F3xx_HAL_Driver/Src/stm32f3xx_hal_can.c ****     /* Change CAN state */
 868:Drivers/STM32F3xx_HAL_Driver/Src/stm32f3xx_hal_can.c ****     hcan->State = HAL_CAN_STATE_READY;
 1350              		.loc 1 868 0
 1351 0156 0123     		movs	r3, #1
 1352 0158 84F83930 		strb	r3, [r4, #57]
 1353              	.L125:
 869:Drivers/STM32F3xx_HAL_Driver/Src/stm32f3xx_hal_can.c ****   }
ARM GAS  /var/folders/p7/nwmyw04531jbkqkgv59cx10h0000gn/T//ccKbzw64.s 			page 42


 870:Drivers/STM32F3xx_HAL_Driver/Src/stm32f3xx_hal_can.c ****   
 871:Drivers/STM32F3xx_HAL_Driver/Src/stm32f3xx_hal_can.c ****   /* Process unlocked */
 872:Drivers/STM32F3xx_HAL_Driver/Src/stm32f3xx_hal_can.c ****   __HAL_UNLOCK(hcan);
 1354              		.loc 1 872 0
 1355 015c 0020     		movs	r0, #0
 1356 015e 84F83800 		strb	r0, [r4, #56]
 873:Drivers/STM32F3xx_HAL_Driver/Src/stm32f3xx_hal_can.c **** 
 874:Drivers/STM32F3xx_HAL_Driver/Src/stm32f3xx_hal_can.c ****   /* Return function status */
 875:Drivers/STM32F3xx_HAL_Driver/Src/stm32f3xx_hal_can.c ****   return HAL_OK;
 1357              		.loc 1 875 0
 1358 0162 F8BD     		pop	{r3, r4, r5, r6, r7, pc}
 1359              	.LVL69:
 1360              	.L120:
 830:Drivers/STM32F3xx_HAL_Driver/Src/stm32f3xx_hal_can.c ****   }
 1361              		.loc 1 830 0
 1362 0164 2168     		ldr	r1, [r4]
 1363 0166 05F11B02 		add	r2, r5, #27
 1364 016a 1201     		lsls	r2, r2, #4
 1365 016c 8A58     		ldr	r2, [r1, r2]
 1366 016e D208     		lsrs	r2, r2, #3
 1367 0170 5A60     		str	r2, [r3, #4]
 1368 0172 97E7     		b	.L121
 1369              	.L122:
 857:Drivers/STM32F3xx_HAL_Driver/Src/stm32f3xx_hal_can.c ****   }
 1370              		.loc 1 857 0
 1371 0174 2268     		ldr	r2, [r4]
 1372 0176 1369     		ldr	r3, [r2, #16]
 1373 0178 43F02003 		orr	r3, r3, #32
 1374 017c 1361     		str	r3, [r2, #16]
 1375 017e E5E7     		b	.L123
 1376              	.L131:
 863:Drivers/STM32F3xx_HAL_Driver/Src/stm32f3xx_hal_can.c ****   }
 1377              		.loc 1 863 0
 1378 0180 1223     		movs	r3, #18
 1379 0182 84F83930 		strb	r3, [r4, #57]
 1380 0186 E9E7     		b	.L125
 1381              	.LVL70:
 1382              	.L126:
 790:Drivers/STM32F3xx_HAL_Driver/Src/stm32f3xx_hal_can.c ****   
 1383              		.loc 1 790 0
 1384 0188 0220     		movs	r0, #2
 1385              	.LVL71:
 876:Drivers/STM32F3xx_HAL_Driver/Src/stm32f3xx_hal_can.c **** }
 1386              		.loc 1 876 0
 1387 018a F8BD     		pop	{r3, r4, r5, r6, r7, pc}
 1388              		.cfi_endproc
 1389              	.LFE131:
 1391              		.section	.text.HAL_CAN_Receive_IT,"ax",%progbits
 1392              		.align	1
 1393              		.global	HAL_CAN_Receive_IT
 1394              		.syntax unified
 1395              		.thumb
 1396              		.thumb_func
 1397              		.fpu fpv4-sp-d16
 1399              	HAL_CAN_Receive_IT:
 1400              	.LFB132:
 877:Drivers/STM32F3xx_HAL_Driver/Src/stm32f3xx_hal_can.c **** 
ARM GAS  /var/folders/p7/nwmyw04531jbkqkgv59cx10h0000gn/T//ccKbzw64.s 			page 43


 878:Drivers/STM32F3xx_HAL_Driver/Src/stm32f3xx_hal_can.c **** /**
 879:Drivers/STM32F3xx_HAL_Driver/Src/stm32f3xx_hal_can.c ****   * @brief  Receives a correct CAN frame.
 880:Drivers/STM32F3xx_HAL_Driver/Src/stm32f3xx_hal_can.c ****   * @param  hcan: pointer to a CAN_HandleTypeDef structure that contains
 881:Drivers/STM32F3xx_HAL_Driver/Src/stm32f3xx_hal_can.c ****   *         the configuration information for the specified CAN.  
 882:Drivers/STM32F3xx_HAL_Driver/Src/stm32f3xx_hal_can.c ****   * @param  FIFONumber:    FIFO number.
 883:Drivers/STM32F3xx_HAL_Driver/Src/stm32f3xx_hal_can.c ****   * @retval HAL status
 884:Drivers/STM32F3xx_HAL_Driver/Src/stm32f3xx_hal_can.c ****   * @retval None
 885:Drivers/STM32F3xx_HAL_Driver/Src/stm32f3xx_hal_can.c ****   */
 886:Drivers/STM32F3xx_HAL_Driver/Src/stm32f3xx_hal_can.c **** HAL_StatusTypeDef HAL_CAN_Receive_IT(CAN_HandleTypeDef* hcan, uint8_t FIFONumber)
 887:Drivers/STM32F3xx_HAL_Driver/Src/stm32f3xx_hal_can.c **** {
 1401              		.loc 1 887 0
 1402              		.cfi_startproc
 1403              		@ args = 0, pretend = 0, frame = 0
 1404              		@ frame_needed = 0, uses_anonymous_args = 0
 1405              		@ link register save eliminated.
 1406              	.LVL72:
 888:Drivers/STM32F3xx_HAL_Driver/Src/stm32f3xx_hal_can.c ****   /* Check the parameters */
 889:Drivers/STM32F3xx_HAL_Driver/Src/stm32f3xx_hal_can.c ****   assert_param(IS_CAN_FIFO(FIFONumber));
 890:Drivers/STM32F3xx_HAL_Driver/Src/stm32f3xx_hal_can.c ****   
 891:Drivers/STM32F3xx_HAL_Driver/Src/stm32f3xx_hal_can.c ****   if((hcan->State == HAL_CAN_STATE_READY) || (hcan->State == HAL_CAN_STATE_BUSY_TX))
 1407              		.loc 1 891 0
 1408 0000 90F83930 		ldrb	r3, [r0, #57]	@ zero_extendqisi2
 1409 0004 DBB2     		uxtb	r3, r3
 1410 0006 012B     		cmp	r3, #1
 1411 0008 06D0     		beq	.L133
 1412              		.loc 1 891 0 is_stmt 0 discriminator 1
 1413 000a 90F83930 		ldrb	r3, [r0, #57]	@ zero_extendqisi2
 1414 000e DBB2     		uxtb	r3, r3
 1415 0010 122B     		cmp	r3, #18
 1416 0012 01D0     		beq	.L133
 892:Drivers/STM32F3xx_HAL_Driver/Src/stm32f3xx_hal_can.c ****   {
 893:Drivers/STM32F3xx_HAL_Driver/Src/stm32f3xx_hal_can.c ****     /* Process locked */
 894:Drivers/STM32F3xx_HAL_Driver/Src/stm32f3xx_hal_can.c ****     __HAL_LOCK(hcan);
 895:Drivers/STM32F3xx_HAL_Driver/Src/stm32f3xx_hal_can.c ****   
 896:Drivers/STM32F3xx_HAL_Driver/Src/stm32f3xx_hal_can.c ****     if(hcan->State == HAL_CAN_STATE_BUSY_TX) 
 897:Drivers/STM32F3xx_HAL_Driver/Src/stm32f3xx_hal_can.c ****     {
 898:Drivers/STM32F3xx_HAL_Driver/Src/stm32f3xx_hal_can.c ****       /* Change CAN state */
 899:Drivers/STM32F3xx_HAL_Driver/Src/stm32f3xx_hal_can.c ****       hcan->State = HAL_CAN_STATE_BUSY_TX_RX;
 900:Drivers/STM32F3xx_HAL_Driver/Src/stm32f3xx_hal_can.c ****     }
 901:Drivers/STM32F3xx_HAL_Driver/Src/stm32f3xx_hal_can.c ****     else
 902:Drivers/STM32F3xx_HAL_Driver/Src/stm32f3xx_hal_can.c ****     {
 903:Drivers/STM32F3xx_HAL_Driver/Src/stm32f3xx_hal_can.c ****       /* Change CAN state */
 904:Drivers/STM32F3xx_HAL_Driver/Src/stm32f3xx_hal_can.c ****       hcan->State = HAL_CAN_STATE_BUSY_RX;
 905:Drivers/STM32F3xx_HAL_Driver/Src/stm32f3xx_hal_can.c ****     }
 906:Drivers/STM32F3xx_HAL_Driver/Src/stm32f3xx_hal_can.c ****     
 907:Drivers/STM32F3xx_HAL_Driver/Src/stm32f3xx_hal_can.c ****     /* Set CAN error code to none */
 908:Drivers/STM32F3xx_HAL_Driver/Src/stm32f3xx_hal_can.c ****     hcan->ErrorCode = HAL_CAN_ERROR_NONE;
 909:Drivers/STM32F3xx_HAL_Driver/Src/stm32f3xx_hal_can.c ****     
 910:Drivers/STM32F3xx_HAL_Driver/Src/stm32f3xx_hal_can.c ****     /* Enable Error warning Interrupt */
 911:Drivers/STM32F3xx_HAL_Driver/Src/stm32f3xx_hal_can.c ****     __HAL_CAN_ENABLE_IT(hcan, CAN_IT_EWG);
 912:Drivers/STM32F3xx_HAL_Driver/Src/stm32f3xx_hal_can.c ****       
 913:Drivers/STM32F3xx_HAL_Driver/Src/stm32f3xx_hal_can.c ****     /* Enable Error passive Interrupt */
 914:Drivers/STM32F3xx_HAL_Driver/Src/stm32f3xx_hal_can.c ****     __HAL_CAN_ENABLE_IT(hcan, CAN_IT_EPV);
 915:Drivers/STM32F3xx_HAL_Driver/Src/stm32f3xx_hal_can.c ****       
 916:Drivers/STM32F3xx_HAL_Driver/Src/stm32f3xx_hal_can.c ****     /* Enable Bus-off Interrupt */
 917:Drivers/STM32F3xx_HAL_Driver/Src/stm32f3xx_hal_can.c ****     __HAL_CAN_ENABLE_IT(hcan, CAN_IT_BOF);
 918:Drivers/STM32F3xx_HAL_Driver/Src/stm32f3xx_hal_can.c ****       
ARM GAS  /var/folders/p7/nwmyw04531jbkqkgv59cx10h0000gn/T//ccKbzw64.s 			page 44


 919:Drivers/STM32F3xx_HAL_Driver/Src/stm32f3xx_hal_can.c ****     /* Enable Last error code Interrupt */
 920:Drivers/STM32F3xx_HAL_Driver/Src/stm32f3xx_hal_can.c ****     __HAL_CAN_ENABLE_IT(hcan, CAN_IT_LEC);
 921:Drivers/STM32F3xx_HAL_Driver/Src/stm32f3xx_hal_can.c ****       
 922:Drivers/STM32F3xx_HAL_Driver/Src/stm32f3xx_hal_can.c ****     /* Enable Error Interrupt */
 923:Drivers/STM32F3xx_HAL_Driver/Src/stm32f3xx_hal_can.c ****     __HAL_CAN_ENABLE_IT(hcan, CAN_IT_ERR);
 924:Drivers/STM32F3xx_HAL_Driver/Src/stm32f3xx_hal_can.c **** 
 925:Drivers/STM32F3xx_HAL_Driver/Src/stm32f3xx_hal_can.c ****     /* Process unlocked */
 926:Drivers/STM32F3xx_HAL_Driver/Src/stm32f3xx_hal_can.c ****     __HAL_UNLOCK(hcan);
 927:Drivers/STM32F3xx_HAL_Driver/Src/stm32f3xx_hal_can.c **** 
 928:Drivers/STM32F3xx_HAL_Driver/Src/stm32f3xx_hal_can.c ****     if(FIFONumber == CAN_FIFO0)
 929:Drivers/STM32F3xx_HAL_Driver/Src/stm32f3xx_hal_can.c ****     {
 930:Drivers/STM32F3xx_HAL_Driver/Src/stm32f3xx_hal_can.c ****       /* Enable FIFO 0 message pending Interrupt */
 931:Drivers/STM32F3xx_HAL_Driver/Src/stm32f3xx_hal_can.c ****       __HAL_CAN_ENABLE_IT(hcan, CAN_IT_FMP0);
 932:Drivers/STM32F3xx_HAL_Driver/Src/stm32f3xx_hal_can.c ****     }
 933:Drivers/STM32F3xx_HAL_Driver/Src/stm32f3xx_hal_can.c ****     else
 934:Drivers/STM32F3xx_HAL_Driver/Src/stm32f3xx_hal_can.c ****     {
 935:Drivers/STM32F3xx_HAL_Driver/Src/stm32f3xx_hal_can.c ****       /* Enable FIFO 1 message pending Interrupt */
 936:Drivers/STM32F3xx_HAL_Driver/Src/stm32f3xx_hal_can.c ****       __HAL_CAN_ENABLE_IT(hcan, CAN_IT_FMP1);
 937:Drivers/STM32F3xx_HAL_Driver/Src/stm32f3xx_hal_can.c ****     }
 938:Drivers/STM32F3xx_HAL_Driver/Src/stm32f3xx_hal_can.c ****     
 939:Drivers/STM32F3xx_HAL_Driver/Src/stm32f3xx_hal_can.c ****   }
 940:Drivers/STM32F3xx_HAL_Driver/Src/stm32f3xx_hal_can.c ****   else
 941:Drivers/STM32F3xx_HAL_Driver/Src/stm32f3xx_hal_can.c ****   {
 942:Drivers/STM32F3xx_HAL_Driver/Src/stm32f3xx_hal_can.c ****     return HAL_BUSY;
 1417              		.loc 1 942 0 is_stmt 1
 1418 0014 0220     		movs	r0, #2
 1419              	.LVL73:
 1420 0016 7047     		bx	lr
 1421              	.LVL74:
 1422              	.L133:
 894:Drivers/STM32F3xx_HAL_Driver/Src/stm32f3xx_hal_can.c ****   
 1423              		.loc 1 894 0
 1424 0018 90F83830 		ldrb	r3, [r0, #56]	@ zero_extendqisi2
 1425 001c 012B     		cmp	r3, #1
 1426 001e 3DD0     		beq	.L139
 887:Drivers/STM32F3xx_HAL_Driver/Src/stm32f3xx_hal_can.c ****   /* Check the parameters */
 1427              		.loc 1 887 0 discriminator 2
 1428 0020 10B4     		push	{r4}
 1429              	.LCFI13:
 1430              		.cfi_def_cfa_offset 4
 1431              		.cfi_offset 4, -4
 894:Drivers/STM32F3xx_HAL_Driver/Src/stm32f3xx_hal_can.c ****   
 1432              		.loc 1 894 0 discriminator 2
 1433 0022 0123     		movs	r3, #1
 1434 0024 80F83830 		strb	r3, [r0, #56]
 896:Drivers/STM32F3xx_HAL_Driver/Src/stm32f3xx_hal_can.c ****     {
 1435              		.loc 1 896 0 discriminator 2
 1436 0028 90F83930 		ldrb	r3, [r0, #57]	@ zero_extendqisi2
 1437 002c DBB2     		uxtb	r3, r3
 1438 002e 122B     		cmp	r3, #18
 1439 0030 29D0     		beq	.L144
 904:Drivers/STM32F3xx_HAL_Driver/Src/stm32f3xx_hal_can.c ****     }
 1440              		.loc 1 904 0
 1441 0032 2223     		movs	r3, #34
 1442 0034 80F83930 		strb	r3, [r0, #57]
 1443              	.L136:
 908:Drivers/STM32F3xx_HAL_Driver/Src/stm32f3xx_hal_can.c ****     
ARM GAS  /var/folders/p7/nwmyw04531jbkqkgv59cx10h0000gn/T//ccKbzw64.s 			page 45


 1444              		.loc 1 908 0
 1445 0038 0022     		movs	r2, #0
 1446 003a C263     		str	r2, [r0, #60]
 911:Drivers/STM32F3xx_HAL_Driver/Src/stm32f3xx_hal_can.c ****       
 1447              		.loc 1 911 0
 1448 003c 0468     		ldr	r4, [r0]
 1449 003e 6369     		ldr	r3, [r4, #20]
 1450 0040 43F48073 		orr	r3, r3, #256
 1451 0044 6361     		str	r3, [r4, #20]
 914:Drivers/STM32F3xx_HAL_Driver/Src/stm32f3xx_hal_can.c ****       
 1452              		.loc 1 914 0
 1453 0046 0468     		ldr	r4, [r0]
 1454 0048 6369     		ldr	r3, [r4, #20]
 1455 004a 43F40073 		orr	r3, r3, #512
 1456 004e 6361     		str	r3, [r4, #20]
 917:Drivers/STM32F3xx_HAL_Driver/Src/stm32f3xx_hal_can.c ****       
 1457              		.loc 1 917 0
 1458 0050 0468     		ldr	r4, [r0]
 1459 0052 6369     		ldr	r3, [r4, #20]
 1460 0054 43F48063 		orr	r3, r3, #1024
 1461 0058 6361     		str	r3, [r4, #20]
 920:Drivers/STM32F3xx_HAL_Driver/Src/stm32f3xx_hal_can.c ****       
 1462              		.loc 1 920 0
 1463 005a 0468     		ldr	r4, [r0]
 1464 005c 6369     		ldr	r3, [r4, #20]
 1465 005e 43F40063 		orr	r3, r3, #2048
 1466 0062 6361     		str	r3, [r4, #20]
 923:Drivers/STM32F3xx_HAL_Driver/Src/stm32f3xx_hal_can.c **** 
 1467              		.loc 1 923 0
 1468 0064 0468     		ldr	r4, [r0]
 1469 0066 6369     		ldr	r3, [r4, #20]
 1470 0068 43F40043 		orr	r3, r3, #32768
 1471 006c 6361     		str	r3, [r4, #20]
 926:Drivers/STM32F3xx_HAL_Driver/Src/stm32f3xx_hal_can.c **** 
 1472              		.loc 1 926 0
 1473 006e 80F83820 		strb	r2, [r0, #56]
 928:Drivers/STM32F3xx_HAL_Driver/Src/stm32f3xx_hal_can.c ****     {
 1474              		.loc 1 928 0
 1475 0072 61B1     		cbz	r1, .L145
 936:Drivers/STM32F3xx_HAL_Driver/Src/stm32f3xx_hal_can.c ****     }
 1476              		.loc 1 936 0
 1477 0074 0268     		ldr	r2, [r0]
 1478 0076 5369     		ldr	r3, [r2, #20]
 1479 0078 43F01003 		orr	r3, r3, #16
 1480 007c 5361     		str	r3, [r2, #20]
 943:Drivers/STM32F3xx_HAL_Driver/Src/stm32f3xx_hal_can.c ****   }
 944:Drivers/STM32F3xx_HAL_Driver/Src/stm32f3xx_hal_can.c ****   
 945:Drivers/STM32F3xx_HAL_Driver/Src/stm32f3xx_hal_can.c ****   /* Return function status */
 946:Drivers/STM32F3xx_HAL_Driver/Src/stm32f3xx_hal_can.c ****   return HAL_OK;
 1481              		.loc 1 946 0
 1482 007e 0020     		movs	r0, #0
 1483              	.LVL75:
 1484              	.L134:
 947:Drivers/STM32F3xx_HAL_Driver/Src/stm32f3xx_hal_can.c **** }
 1485              		.loc 1 947 0
 1486 0080 5DF8044B 		ldr	r4, [sp], #4
 1487              	.LCFI14:
ARM GAS  /var/folders/p7/nwmyw04531jbkqkgv59cx10h0000gn/T//ccKbzw64.s 			page 46


 1488              		.cfi_remember_state
 1489              		.cfi_restore 4
 1490              		.cfi_def_cfa_offset 0
 1491 0084 7047     		bx	lr
 1492              	.LVL76:
 1493              	.L144:
 1494              	.LCFI15:
 1495              		.cfi_restore_state
 899:Drivers/STM32F3xx_HAL_Driver/Src/stm32f3xx_hal_can.c ****     }
 1496              		.loc 1 899 0
 1497 0086 3223     		movs	r3, #50
 1498 0088 80F83930 		strb	r3, [r0, #57]
 1499 008c D4E7     		b	.L136
 1500              	.L145:
 931:Drivers/STM32F3xx_HAL_Driver/Src/stm32f3xx_hal_can.c ****     }
 1501              		.loc 1 931 0
 1502 008e 0268     		ldr	r2, [r0]
 1503 0090 5369     		ldr	r3, [r2, #20]
 1504 0092 43F00203 		orr	r3, r3, #2
 1505 0096 5361     		str	r3, [r2, #20]
 946:Drivers/STM32F3xx_HAL_Driver/Src/stm32f3xx_hal_can.c **** }
 1506              		.loc 1 946 0
 1507 0098 0020     		movs	r0, #0
 1508              	.LVL77:
 1509 009a F1E7     		b	.L134
 1510              	.LVL78:
 1511              	.L139:
 1512              	.LCFI16:
 1513              		.cfi_def_cfa_offset 0
 1514              		.cfi_restore 4
 894:Drivers/STM32F3xx_HAL_Driver/Src/stm32f3xx_hal_can.c ****   
 1515              		.loc 1 894 0
 1516 009c 0220     		movs	r0, #2
 1517              	.LVL79:
 1518 009e 7047     		bx	lr
 1519              		.cfi_endproc
 1520              	.LFE132:
 1522              		.section	.text.HAL_CAN_Sleep,"ax",%progbits
 1523              		.align	1
 1524              		.global	HAL_CAN_Sleep
 1525              		.syntax unified
 1526              		.thumb
 1527              		.thumb_func
 1528              		.fpu fpv4-sp-d16
 1530              	HAL_CAN_Sleep:
 1531              	.LFB133:
 948:Drivers/STM32F3xx_HAL_Driver/Src/stm32f3xx_hal_can.c **** 
 949:Drivers/STM32F3xx_HAL_Driver/Src/stm32f3xx_hal_can.c **** /**
 950:Drivers/STM32F3xx_HAL_Driver/Src/stm32f3xx_hal_can.c ****   * @brief  Enters the Sleep (low power) mode.
 951:Drivers/STM32F3xx_HAL_Driver/Src/stm32f3xx_hal_can.c ****   * @param  hcan: pointer to a CAN_HandleTypeDef structure that contains
 952:Drivers/STM32F3xx_HAL_Driver/Src/stm32f3xx_hal_can.c ****   *         the configuration information for the specified CAN.
 953:Drivers/STM32F3xx_HAL_Driver/Src/stm32f3xx_hal_can.c ****   * @retval HAL status.
 954:Drivers/STM32F3xx_HAL_Driver/Src/stm32f3xx_hal_can.c ****   */
 955:Drivers/STM32F3xx_HAL_Driver/Src/stm32f3xx_hal_can.c **** HAL_StatusTypeDef HAL_CAN_Sleep(CAN_HandleTypeDef* hcan)
 956:Drivers/STM32F3xx_HAL_Driver/Src/stm32f3xx_hal_can.c **** {
 1532              		.loc 1 956 0
 1533              		.cfi_startproc
ARM GAS  /var/folders/p7/nwmyw04531jbkqkgv59cx10h0000gn/T//ccKbzw64.s 			page 47


 1534              		@ args = 0, pretend = 0, frame = 0
 1535              		@ frame_needed = 0, uses_anonymous_args = 0
 1536              	.LVL80:
 1537 0000 38B5     		push	{r3, r4, r5, lr}
 1538              	.LCFI17:
 1539              		.cfi_def_cfa_offset 16
 1540              		.cfi_offset 3, -16
 1541              		.cfi_offset 4, -12
 1542              		.cfi_offset 5, -8
 1543              		.cfi_offset 14, -4
 1544              	.LVL81:
 957:Drivers/STM32F3xx_HAL_Driver/Src/stm32f3xx_hal_can.c ****   uint32_t tickstart = 0U;
 958:Drivers/STM32F3xx_HAL_Driver/Src/stm32f3xx_hal_can.c ****    
 959:Drivers/STM32F3xx_HAL_Driver/Src/stm32f3xx_hal_can.c ****   /* Process locked */
 960:Drivers/STM32F3xx_HAL_Driver/Src/stm32f3xx_hal_can.c ****   __HAL_LOCK(hcan);
 1545              		.loc 1 960 0
 1546 0002 90F83830 		ldrb	r3, [r0, #56]	@ zero_extendqisi2
 1547 0006 012B     		cmp	r3, #1
 1548 0008 34D0     		beq	.L151
 1549              		.loc 1 960 0 is_stmt 0 discriminator 2
 1550 000a 0123     		movs	r3, #1
 1551 000c 80F83830 		strb	r3, [r0, #56]
 961:Drivers/STM32F3xx_HAL_Driver/Src/stm32f3xx_hal_can.c ****   
 962:Drivers/STM32F3xx_HAL_Driver/Src/stm32f3xx_hal_can.c ****   /* Change CAN state */
 963:Drivers/STM32F3xx_HAL_Driver/Src/stm32f3xx_hal_can.c ****   hcan->State = HAL_CAN_STATE_BUSY; 
 1552              		.loc 1 963 0 is_stmt 1 discriminator 2
 1553 0010 0223     		movs	r3, #2
 1554 0012 80F83930 		strb	r3, [r0, #57]
 964:Drivers/STM32F3xx_HAL_Driver/Src/stm32f3xx_hal_can.c ****     
 965:Drivers/STM32F3xx_HAL_Driver/Src/stm32f3xx_hal_can.c ****   /* Request Sleep mode */
 966:Drivers/STM32F3xx_HAL_Driver/Src/stm32f3xx_hal_can.c ****    hcan->Instance->MCR = (((hcan->Instance->MCR) & (uint32_t)(~(uint32_t)CAN_MCR_INRQ)) | CAN_MCR_S
 1555              		.loc 1 966 0 discriminator 2
 1556 0016 0268     		ldr	r2, [r0]
 1557 0018 1368     		ldr	r3, [r2]
 1558 001a 23F00303 		bic	r3, r3, #3
 1559 001e 43F00203 		orr	r3, r3, #2
 1560 0022 1360     		str	r3, [r2]
 967:Drivers/STM32F3xx_HAL_Driver/Src/stm32f3xx_hal_can.c ****    
 968:Drivers/STM32F3xx_HAL_Driver/Src/stm32f3xx_hal_can.c ****   /* Sleep mode status */
 969:Drivers/STM32F3xx_HAL_Driver/Src/stm32f3xx_hal_can.c ****   if ((hcan->Instance->MSR & (CAN_MSR_SLAK|CAN_MSR_INAK)) != CAN_MSR_SLAK)
 1561              		.loc 1 969 0 discriminator 2
 1562 0024 0368     		ldr	r3, [r0]
 1563 0026 5B68     		ldr	r3, [r3, #4]
 1564 0028 03F00303 		and	r3, r3, #3
 1565 002c 022B     		cmp	r3, #2
 1566 002e 04D0     		beq	.L148
 970:Drivers/STM32F3xx_HAL_Driver/Src/stm32f3xx_hal_can.c ****   {
 971:Drivers/STM32F3xx_HAL_Driver/Src/stm32f3xx_hal_can.c ****     /* Process unlocked */
 972:Drivers/STM32F3xx_HAL_Driver/Src/stm32f3xx_hal_can.c ****     __HAL_UNLOCK(hcan);
 1567              		.loc 1 972 0
 1568 0030 0023     		movs	r3, #0
 1569 0032 80F83830 		strb	r3, [r0, #56]
 973:Drivers/STM32F3xx_HAL_Driver/Src/stm32f3xx_hal_can.c **** 
 974:Drivers/STM32F3xx_HAL_Driver/Src/stm32f3xx_hal_can.c ****     /* Return function status */
 975:Drivers/STM32F3xx_HAL_Driver/Src/stm32f3xx_hal_can.c ****     return HAL_ERROR;
 1570              		.loc 1 975 0
 1571 0036 0120     		movs	r0, #1
ARM GAS  /var/folders/p7/nwmyw04531jbkqkgv59cx10h0000gn/T//ccKbzw64.s 			page 48


 1572              	.LVL82:
 1573 0038 38BD     		pop	{r3, r4, r5, pc}
 1574              	.LVL83:
 1575              	.L148:
 1576 003a 0446     		mov	r4, r0
 976:Drivers/STM32F3xx_HAL_Driver/Src/stm32f3xx_hal_can.c ****   }
 977:Drivers/STM32F3xx_HAL_Driver/Src/stm32f3xx_hal_can.c ****   
 978:Drivers/STM32F3xx_HAL_Driver/Src/stm32f3xx_hal_can.c ****   /* Get tick */
 979:Drivers/STM32F3xx_HAL_Driver/Src/stm32f3xx_hal_can.c ****   tickstart = HAL_GetTick();   
 1577              		.loc 1 979 0
 1578 003c FFF7FEFF 		bl	HAL_GetTick
 1579              	.LVL84:
 1580 0040 0546     		mov	r5, r0
 1581              	.LVL85:
 1582              	.L149:
 980:Drivers/STM32F3xx_HAL_Driver/Src/stm32f3xx_hal_can.c ****   
 981:Drivers/STM32F3xx_HAL_Driver/Src/stm32f3xx_hal_can.c ****   /* Wait the acknowledge */
 982:Drivers/STM32F3xx_HAL_Driver/Src/stm32f3xx_hal_can.c ****   while((hcan->Instance->MSR & (CAN_MSR_SLAK|CAN_MSR_INAK)) != CAN_MSR_SLAK)
 1583              		.loc 1 982 0
 1584 0042 2368     		ldr	r3, [r4]
 1585 0044 5B68     		ldr	r3, [r3, #4]
 1586 0046 03F00303 		and	r3, r3, #3
 1587 004a 022B     		cmp	r3, #2
 1588 004c 0BD0     		beq	.L153
 983:Drivers/STM32F3xx_HAL_Driver/Src/stm32f3xx_hal_can.c ****   {
 984:Drivers/STM32F3xx_HAL_Driver/Src/stm32f3xx_hal_can.c ****     if((HAL_GetTick() - tickstart) > CAN_TIMEOUT_VALUE)
 1589              		.loc 1 984 0
 1590 004e FFF7FEFF 		bl	HAL_GetTick
 1591              	.LVL86:
 1592 0052 401B     		subs	r0, r0, r5
 1593 0054 0A28     		cmp	r0, #10
 1594 0056 F4D9     		bls	.L149
 985:Drivers/STM32F3xx_HAL_Driver/Src/stm32f3xx_hal_can.c ****     {
 986:Drivers/STM32F3xx_HAL_Driver/Src/stm32f3xx_hal_can.c ****       hcan->State = HAL_CAN_STATE_TIMEOUT;
 1595              		.loc 1 986 0
 1596 0058 0320     		movs	r0, #3
 1597 005a 84F83900 		strb	r0, [r4, #57]
 987:Drivers/STM32F3xx_HAL_Driver/Src/stm32f3xx_hal_can.c ****       /* Process unlocked */
 988:Drivers/STM32F3xx_HAL_Driver/Src/stm32f3xx_hal_can.c ****       __HAL_UNLOCK(hcan);
 1598              		.loc 1 988 0
 1599 005e 0023     		movs	r3, #0
 1600 0060 84F83830 		strb	r3, [r4, #56]
 989:Drivers/STM32F3xx_HAL_Driver/Src/stm32f3xx_hal_can.c ****       return HAL_TIMEOUT;
 1601              		.loc 1 989 0
 1602 0064 38BD     		pop	{r3, r4, r5, pc}
 1603              	.LVL87:
 1604              	.L153:
 990:Drivers/STM32F3xx_HAL_Driver/Src/stm32f3xx_hal_can.c ****     }
 991:Drivers/STM32F3xx_HAL_Driver/Src/stm32f3xx_hal_can.c ****   }
 992:Drivers/STM32F3xx_HAL_Driver/Src/stm32f3xx_hal_can.c ****   
 993:Drivers/STM32F3xx_HAL_Driver/Src/stm32f3xx_hal_can.c ****   /* Change CAN state */
 994:Drivers/STM32F3xx_HAL_Driver/Src/stm32f3xx_hal_can.c ****   hcan->State = HAL_CAN_STATE_READY;
 1605              		.loc 1 994 0
 1606 0066 0123     		movs	r3, #1
 1607 0068 84F83930 		strb	r3, [r4, #57]
 995:Drivers/STM32F3xx_HAL_Driver/Src/stm32f3xx_hal_can.c ****   
 996:Drivers/STM32F3xx_HAL_Driver/Src/stm32f3xx_hal_can.c ****   /* Process unlocked */
ARM GAS  /var/folders/p7/nwmyw04531jbkqkgv59cx10h0000gn/T//ccKbzw64.s 			page 49


 997:Drivers/STM32F3xx_HAL_Driver/Src/stm32f3xx_hal_can.c ****   __HAL_UNLOCK(hcan);
 1608              		.loc 1 997 0
 1609 006c 0020     		movs	r0, #0
 1610 006e 84F83800 		strb	r0, [r4, #56]
 998:Drivers/STM32F3xx_HAL_Driver/Src/stm32f3xx_hal_can.c ****   
 999:Drivers/STM32F3xx_HAL_Driver/Src/stm32f3xx_hal_can.c ****   /* Return function status */
1000:Drivers/STM32F3xx_HAL_Driver/Src/stm32f3xx_hal_can.c ****   return HAL_OK;
 1611              		.loc 1 1000 0
 1612 0072 38BD     		pop	{r3, r4, r5, pc}
 1613              	.LVL88:
 1614              	.L151:
 960:Drivers/STM32F3xx_HAL_Driver/Src/stm32f3xx_hal_can.c ****   
 1615              		.loc 1 960 0
 1616 0074 0220     		movs	r0, #2
 1617              	.LVL89:
1001:Drivers/STM32F3xx_HAL_Driver/Src/stm32f3xx_hal_can.c **** }
 1618              		.loc 1 1001 0
 1619 0076 38BD     		pop	{r3, r4, r5, pc}
 1620              		.cfi_endproc
 1621              	.LFE133:
 1623              		.section	.text.HAL_CAN_WakeUp,"ax",%progbits
 1624              		.align	1
 1625              		.global	HAL_CAN_WakeUp
 1626              		.syntax unified
 1627              		.thumb
 1628              		.thumb_func
 1629              		.fpu fpv4-sp-d16
 1631              	HAL_CAN_WakeUp:
 1632              	.LFB134:
1002:Drivers/STM32F3xx_HAL_Driver/Src/stm32f3xx_hal_can.c **** 
1003:Drivers/STM32F3xx_HAL_Driver/Src/stm32f3xx_hal_can.c **** /**
1004:Drivers/STM32F3xx_HAL_Driver/Src/stm32f3xx_hal_can.c ****   * @brief  Wakes up the CAN peripheral from sleep mode, after that the CAN peripheral
1005:Drivers/STM32F3xx_HAL_Driver/Src/stm32f3xx_hal_can.c ****   *         is in the normal mode.
1006:Drivers/STM32F3xx_HAL_Driver/Src/stm32f3xx_hal_can.c ****   * @param  hcan: pointer to a CAN_HandleTypeDef structure that contains
1007:Drivers/STM32F3xx_HAL_Driver/Src/stm32f3xx_hal_can.c ****   *         the configuration information for the specified CAN.
1008:Drivers/STM32F3xx_HAL_Driver/Src/stm32f3xx_hal_can.c ****   * @retval HAL status.
1009:Drivers/STM32F3xx_HAL_Driver/Src/stm32f3xx_hal_can.c ****   */
1010:Drivers/STM32F3xx_HAL_Driver/Src/stm32f3xx_hal_can.c **** HAL_StatusTypeDef HAL_CAN_WakeUp(CAN_HandleTypeDef* hcan)
1011:Drivers/STM32F3xx_HAL_Driver/Src/stm32f3xx_hal_can.c **** {
 1633              		.loc 1 1011 0
 1634              		.cfi_startproc
 1635              		@ args = 0, pretend = 0, frame = 0
 1636              		@ frame_needed = 0, uses_anonymous_args = 0
 1637              	.LVL90:
 1638 0000 38B5     		push	{r3, r4, r5, lr}
 1639              	.LCFI18:
 1640              		.cfi_def_cfa_offset 16
 1641              		.cfi_offset 3, -16
 1642              		.cfi_offset 4, -12
 1643              		.cfi_offset 5, -8
 1644              		.cfi_offset 14, -4
 1645              	.LVL91:
1012:Drivers/STM32F3xx_HAL_Driver/Src/stm32f3xx_hal_can.c ****   uint32_t tickstart = 0U;
1013:Drivers/STM32F3xx_HAL_Driver/Src/stm32f3xx_hal_can.c ****     
1014:Drivers/STM32F3xx_HAL_Driver/Src/stm32f3xx_hal_can.c ****   /* Process locked */
1015:Drivers/STM32F3xx_HAL_Driver/Src/stm32f3xx_hal_can.c ****   __HAL_LOCK(hcan);
 1646              		.loc 1 1015 0
ARM GAS  /var/folders/p7/nwmyw04531jbkqkgv59cx10h0000gn/T//ccKbzw64.s 			page 50


 1647 0002 90F83830 		ldrb	r3, [r0, #56]	@ zero_extendqisi2
 1648 0006 012B     		cmp	r3, #1
 1649 0008 01D1     		bne	.L161
 1650 000a 0220     		movs	r0, #2
 1651              	.LVL92:
1016:Drivers/STM32F3xx_HAL_Driver/Src/stm32f3xx_hal_can.c ****   
1017:Drivers/STM32F3xx_HAL_Driver/Src/stm32f3xx_hal_can.c ****   /* Change CAN state */
1018:Drivers/STM32F3xx_HAL_Driver/Src/stm32f3xx_hal_can.c ****   hcan->State = HAL_CAN_STATE_BUSY;  
1019:Drivers/STM32F3xx_HAL_Driver/Src/stm32f3xx_hal_can.c ****  
1020:Drivers/STM32F3xx_HAL_Driver/Src/stm32f3xx_hal_can.c ****   /* Wake up request */
1021:Drivers/STM32F3xx_HAL_Driver/Src/stm32f3xx_hal_can.c ****   hcan->Instance->MCR &= ~(uint32_t)CAN_MCR_SLEEP;
1022:Drivers/STM32F3xx_HAL_Driver/Src/stm32f3xx_hal_can.c ****     
1023:Drivers/STM32F3xx_HAL_Driver/Src/stm32f3xx_hal_can.c ****   /* Get tick */
1024:Drivers/STM32F3xx_HAL_Driver/Src/stm32f3xx_hal_can.c ****   tickstart = HAL_GetTick();   
1025:Drivers/STM32F3xx_HAL_Driver/Src/stm32f3xx_hal_can.c ****   
1026:Drivers/STM32F3xx_HAL_Driver/Src/stm32f3xx_hal_can.c ****   /* Sleep mode status */
1027:Drivers/STM32F3xx_HAL_Driver/Src/stm32f3xx_hal_can.c ****   while((hcan->Instance->MSR & CAN_MSR_SLAK) == CAN_MSR_SLAK)
1028:Drivers/STM32F3xx_HAL_Driver/Src/stm32f3xx_hal_can.c ****   {
1029:Drivers/STM32F3xx_HAL_Driver/Src/stm32f3xx_hal_can.c ****     if((HAL_GetTick() - tickstart) > CAN_TIMEOUT_VALUE)
1030:Drivers/STM32F3xx_HAL_Driver/Src/stm32f3xx_hal_can.c ****     {
1031:Drivers/STM32F3xx_HAL_Driver/Src/stm32f3xx_hal_can.c ****       hcan->State= HAL_CAN_STATE_TIMEOUT;
1032:Drivers/STM32F3xx_HAL_Driver/Src/stm32f3xx_hal_can.c ****       /* Process unlocked */
1033:Drivers/STM32F3xx_HAL_Driver/Src/stm32f3xx_hal_can.c ****       __HAL_UNLOCK(hcan);
1034:Drivers/STM32F3xx_HAL_Driver/Src/stm32f3xx_hal_can.c ****       return HAL_TIMEOUT;
1035:Drivers/STM32F3xx_HAL_Driver/Src/stm32f3xx_hal_can.c ****     }
1036:Drivers/STM32F3xx_HAL_Driver/Src/stm32f3xx_hal_can.c ****   }
1037:Drivers/STM32F3xx_HAL_Driver/Src/stm32f3xx_hal_can.c ****   if((hcan->Instance->MSR & CAN_MSR_SLAK) == CAN_MSR_SLAK)
1038:Drivers/STM32F3xx_HAL_Driver/Src/stm32f3xx_hal_can.c ****   {
1039:Drivers/STM32F3xx_HAL_Driver/Src/stm32f3xx_hal_can.c ****     /* Process unlocked */
1040:Drivers/STM32F3xx_HAL_Driver/Src/stm32f3xx_hal_can.c ****     __HAL_UNLOCK(hcan);
1041:Drivers/STM32F3xx_HAL_Driver/Src/stm32f3xx_hal_can.c **** 
1042:Drivers/STM32F3xx_HAL_Driver/Src/stm32f3xx_hal_can.c ****     /* Return function status */
1043:Drivers/STM32F3xx_HAL_Driver/Src/stm32f3xx_hal_can.c ****     return HAL_ERROR;
1044:Drivers/STM32F3xx_HAL_Driver/Src/stm32f3xx_hal_can.c ****   }
1045:Drivers/STM32F3xx_HAL_Driver/Src/stm32f3xx_hal_can.c ****   
1046:Drivers/STM32F3xx_HAL_Driver/Src/stm32f3xx_hal_can.c ****   /* Change CAN state */
1047:Drivers/STM32F3xx_HAL_Driver/Src/stm32f3xx_hal_can.c ****   hcan->State = HAL_CAN_STATE_READY; 
1048:Drivers/STM32F3xx_HAL_Driver/Src/stm32f3xx_hal_can.c ****   
1049:Drivers/STM32F3xx_HAL_Driver/Src/stm32f3xx_hal_can.c ****   /* Process unlocked */
1050:Drivers/STM32F3xx_HAL_Driver/Src/stm32f3xx_hal_can.c ****   __HAL_UNLOCK(hcan);
1051:Drivers/STM32F3xx_HAL_Driver/Src/stm32f3xx_hal_can.c ****   
1052:Drivers/STM32F3xx_HAL_Driver/Src/stm32f3xx_hal_can.c ****   /* Return function status */
1053:Drivers/STM32F3xx_HAL_Driver/Src/stm32f3xx_hal_can.c ****   return HAL_OK;
1054:Drivers/STM32F3xx_HAL_Driver/Src/stm32f3xx_hal_can.c **** }
 1652              		.loc 1 1054 0
 1653 000c 38BD     		pop	{r3, r4, r5, pc}
 1654              	.LVL93:
 1655              	.L161:
 1656 000e 0446     		mov	r4, r0
1015:Drivers/STM32F3xx_HAL_Driver/Src/stm32f3xx_hal_can.c ****   
 1657              		.loc 1 1015 0 discriminator 2
 1658 0010 0123     		movs	r3, #1
 1659 0012 80F83830 		strb	r3, [r0, #56]
1018:Drivers/STM32F3xx_HAL_Driver/Src/stm32f3xx_hal_can.c ****  
 1660              		.loc 1 1018 0 discriminator 2
 1661 0016 0223     		movs	r3, #2
 1662 0018 80F83930 		strb	r3, [r0, #57]
ARM GAS  /var/folders/p7/nwmyw04531jbkqkgv59cx10h0000gn/T//ccKbzw64.s 			page 51


1021:Drivers/STM32F3xx_HAL_Driver/Src/stm32f3xx_hal_can.c ****     
 1663              		.loc 1 1021 0 discriminator 2
 1664 001c 0268     		ldr	r2, [r0]
 1665 001e 1368     		ldr	r3, [r2]
 1666 0020 23F00203 		bic	r3, r3, #2
 1667 0024 1360     		str	r3, [r2]
1024:Drivers/STM32F3xx_HAL_Driver/Src/stm32f3xx_hal_can.c ****   
 1668              		.loc 1 1024 0 discriminator 2
 1669 0026 FFF7FEFF 		bl	HAL_GetTick
 1670              	.LVL94:
 1671 002a 0546     		mov	r5, r0
 1672              	.LVL95:
 1673              	.L156:
1027:Drivers/STM32F3xx_HAL_Driver/Src/stm32f3xx_hal_can.c ****   {
 1674              		.loc 1 1027 0
 1675 002c 2368     		ldr	r3, [r4]
 1676 002e 5A68     		ldr	r2, [r3, #4]
 1677 0030 12F0020F 		tst	r2, #2
 1678 0034 0BD0     		beq	.L162
1029:Drivers/STM32F3xx_HAL_Driver/Src/stm32f3xx_hal_can.c ****     {
 1679              		.loc 1 1029 0
 1680 0036 FFF7FEFF 		bl	HAL_GetTick
 1681              	.LVL96:
 1682 003a 401B     		subs	r0, r0, r5
 1683 003c 0A28     		cmp	r0, #10
 1684 003e F5D9     		bls	.L156
1031:Drivers/STM32F3xx_HAL_Driver/Src/stm32f3xx_hal_can.c ****       /* Process unlocked */
 1685              		.loc 1 1031 0
 1686 0040 0320     		movs	r0, #3
 1687 0042 84F83900 		strb	r0, [r4, #57]
1033:Drivers/STM32F3xx_HAL_Driver/Src/stm32f3xx_hal_can.c ****       return HAL_TIMEOUT;
 1688              		.loc 1 1033 0
 1689 0046 0023     		movs	r3, #0
 1690 0048 84F83830 		strb	r3, [r4, #56]
1034:Drivers/STM32F3xx_HAL_Driver/Src/stm32f3xx_hal_can.c ****     }
 1691              		.loc 1 1034 0
 1692 004c 38BD     		pop	{r3, r4, r5, pc}
 1693              	.LVL97:
 1694              	.L162:
1037:Drivers/STM32F3xx_HAL_Driver/Src/stm32f3xx_hal_can.c ****   {
 1695              		.loc 1 1037 0
 1696 004e 5B68     		ldr	r3, [r3, #4]
 1697 0050 13F0020F 		tst	r3, #2
 1698 0054 06D1     		bne	.L163
1047:Drivers/STM32F3xx_HAL_Driver/Src/stm32f3xx_hal_can.c ****   
 1699              		.loc 1 1047 0
 1700 0056 0123     		movs	r3, #1
 1701 0058 84F83930 		strb	r3, [r4, #57]
1050:Drivers/STM32F3xx_HAL_Driver/Src/stm32f3xx_hal_can.c ****   
 1702              		.loc 1 1050 0
 1703 005c 0020     		movs	r0, #0
 1704 005e 84F83800 		strb	r0, [r4, #56]
1053:Drivers/STM32F3xx_HAL_Driver/Src/stm32f3xx_hal_can.c **** }
 1705              		.loc 1 1053 0
 1706 0062 38BD     		pop	{r3, r4, r5, pc}
 1707              	.LVL98:
 1708              	.L163:
ARM GAS  /var/folders/p7/nwmyw04531jbkqkgv59cx10h0000gn/T//ccKbzw64.s 			page 52


1040:Drivers/STM32F3xx_HAL_Driver/Src/stm32f3xx_hal_can.c **** 
 1709              		.loc 1 1040 0
 1710 0064 0023     		movs	r3, #0
 1711 0066 84F83830 		strb	r3, [r4, #56]
1043:Drivers/STM32F3xx_HAL_Driver/Src/stm32f3xx_hal_can.c ****   }
 1712              		.loc 1 1043 0
 1713 006a 0120     		movs	r0, #1
 1714 006c 38BD     		pop	{r3, r4, r5, pc}
 1715              		.cfi_endproc
 1716              	.LFE134:
 1718              		.section	.text.HAL_CAN_TxCpltCallback,"ax",%progbits
 1719              		.align	1
 1720              		.weak	HAL_CAN_TxCpltCallback
 1721              		.syntax unified
 1722              		.thumb
 1723              		.thumb_func
 1724              		.fpu fpv4-sp-d16
 1726              	HAL_CAN_TxCpltCallback:
 1727              	.LFB136:
1055:Drivers/STM32F3xx_HAL_Driver/Src/stm32f3xx_hal_can.c **** 
1056:Drivers/STM32F3xx_HAL_Driver/Src/stm32f3xx_hal_can.c **** /**
1057:Drivers/STM32F3xx_HAL_Driver/Src/stm32f3xx_hal_can.c ****   * @brief  Handles CAN interrupt request  
1058:Drivers/STM32F3xx_HAL_Driver/Src/stm32f3xx_hal_can.c ****   * @param  hcan: pointer to a CAN_HandleTypeDef structure that contains
1059:Drivers/STM32F3xx_HAL_Driver/Src/stm32f3xx_hal_can.c ****   *         the configuration information for the specified CAN.
1060:Drivers/STM32F3xx_HAL_Driver/Src/stm32f3xx_hal_can.c ****   * @retval None
1061:Drivers/STM32F3xx_HAL_Driver/Src/stm32f3xx_hal_can.c ****   */
1062:Drivers/STM32F3xx_HAL_Driver/Src/stm32f3xx_hal_can.c **** void HAL_CAN_IRQHandler(CAN_HandleTypeDef* hcan)
1063:Drivers/STM32F3xx_HAL_Driver/Src/stm32f3xx_hal_can.c **** {
1064:Drivers/STM32F3xx_HAL_Driver/Src/stm32f3xx_hal_can.c ****   /* Check End of transmission flag */
1065:Drivers/STM32F3xx_HAL_Driver/Src/stm32f3xx_hal_can.c ****   if(__HAL_CAN_GET_IT_SOURCE(hcan, CAN_IT_TME))
1066:Drivers/STM32F3xx_HAL_Driver/Src/stm32f3xx_hal_can.c ****   {
1067:Drivers/STM32F3xx_HAL_Driver/Src/stm32f3xx_hal_can.c ****     if((__HAL_CAN_TRANSMIT_STATUS(hcan, CAN_TXMAILBOX_0)) ||
1068:Drivers/STM32F3xx_HAL_Driver/Src/stm32f3xx_hal_can.c ****        (__HAL_CAN_TRANSMIT_STATUS(hcan, CAN_TXMAILBOX_1)) ||
1069:Drivers/STM32F3xx_HAL_Driver/Src/stm32f3xx_hal_can.c ****        (__HAL_CAN_TRANSMIT_STATUS(hcan, CAN_TXMAILBOX_2)))
1070:Drivers/STM32F3xx_HAL_Driver/Src/stm32f3xx_hal_can.c ****     {
1071:Drivers/STM32F3xx_HAL_Driver/Src/stm32f3xx_hal_can.c ****       /* Call transmit function */
1072:Drivers/STM32F3xx_HAL_Driver/Src/stm32f3xx_hal_can.c ****       CAN_Transmit_IT(hcan);
1073:Drivers/STM32F3xx_HAL_Driver/Src/stm32f3xx_hal_can.c ****     }
1074:Drivers/STM32F3xx_HAL_Driver/Src/stm32f3xx_hal_can.c ****   }
1075:Drivers/STM32F3xx_HAL_Driver/Src/stm32f3xx_hal_can.c ****   
1076:Drivers/STM32F3xx_HAL_Driver/Src/stm32f3xx_hal_can.c ****   /* Check End of reception flag for FIFO0 */
1077:Drivers/STM32F3xx_HAL_Driver/Src/stm32f3xx_hal_can.c ****   if((__HAL_CAN_GET_IT_SOURCE(hcan, CAN_IT_FMP0)) &&
1078:Drivers/STM32F3xx_HAL_Driver/Src/stm32f3xx_hal_can.c ****      (__HAL_CAN_MSG_PENDING(hcan, CAN_FIFO0) != 0U))
1079:Drivers/STM32F3xx_HAL_Driver/Src/stm32f3xx_hal_can.c ****   {
1080:Drivers/STM32F3xx_HAL_Driver/Src/stm32f3xx_hal_can.c ****     /* Call receive function */
1081:Drivers/STM32F3xx_HAL_Driver/Src/stm32f3xx_hal_can.c ****     CAN_Receive_IT(hcan, CAN_FIFO0);
1082:Drivers/STM32F3xx_HAL_Driver/Src/stm32f3xx_hal_can.c ****   }
1083:Drivers/STM32F3xx_HAL_Driver/Src/stm32f3xx_hal_can.c ****   
1084:Drivers/STM32F3xx_HAL_Driver/Src/stm32f3xx_hal_can.c ****   /* Check End of reception flag for FIFO1 */
1085:Drivers/STM32F3xx_HAL_Driver/Src/stm32f3xx_hal_can.c ****   if((__HAL_CAN_GET_IT_SOURCE(hcan, CAN_IT_FMP1)) &&
1086:Drivers/STM32F3xx_HAL_Driver/Src/stm32f3xx_hal_can.c ****      (__HAL_CAN_MSG_PENDING(hcan, CAN_FIFO1) != 0U))
1087:Drivers/STM32F3xx_HAL_Driver/Src/stm32f3xx_hal_can.c ****   {
1088:Drivers/STM32F3xx_HAL_Driver/Src/stm32f3xx_hal_can.c ****     /* Call receive function */
1089:Drivers/STM32F3xx_HAL_Driver/Src/stm32f3xx_hal_can.c ****     CAN_Receive_IT(hcan, CAN_FIFO1);
1090:Drivers/STM32F3xx_HAL_Driver/Src/stm32f3xx_hal_can.c ****   }
1091:Drivers/STM32F3xx_HAL_Driver/Src/stm32f3xx_hal_can.c ****   
1092:Drivers/STM32F3xx_HAL_Driver/Src/stm32f3xx_hal_can.c ****   /* Check Error Warning Flag */
ARM GAS  /var/folders/p7/nwmyw04531jbkqkgv59cx10h0000gn/T//ccKbzw64.s 			page 53


1093:Drivers/STM32F3xx_HAL_Driver/Src/stm32f3xx_hal_can.c ****   if((__HAL_CAN_GET_FLAG(hcan, CAN_FLAG_EWG))    &&
1094:Drivers/STM32F3xx_HAL_Driver/Src/stm32f3xx_hal_can.c ****      (__HAL_CAN_GET_IT_SOURCE(hcan, CAN_IT_EWG)) &&
1095:Drivers/STM32F3xx_HAL_Driver/Src/stm32f3xx_hal_can.c ****      (__HAL_CAN_GET_IT_SOURCE(hcan, CAN_IT_ERR)))
1096:Drivers/STM32F3xx_HAL_Driver/Src/stm32f3xx_hal_can.c ****   {
1097:Drivers/STM32F3xx_HAL_Driver/Src/stm32f3xx_hal_can.c ****     /* Set CAN error code to EWG error */
1098:Drivers/STM32F3xx_HAL_Driver/Src/stm32f3xx_hal_can.c ****     hcan->ErrorCode |= HAL_CAN_ERROR_EWG;
1099:Drivers/STM32F3xx_HAL_Driver/Src/stm32f3xx_hal_can.c ****     /* No need for clear of Error Warning Flag as read-only */
1100:Drivers/STM32F3xx_HAL_Driver/Src/stm32f3xx_hal_can.c ****   }
1101:Drivers/STM32F3xx_HAL_Driver/Src/stm32f3xx_hal_can.c ****   
1102:Drivers/STM32F3xx_HAL_Driver/Src/stm32f3xx_hal_can.c ****   /* Check Error Passive Flag */
1103:Drivers/STM32F3xx_HAL_Driver/Src/stm32f3xx_hal_can.c ****   if((__HAL_CAN_GET_FLAG(hcan, CAN_FLAG_EPV))    &&
1104:Drivers/STM32F3xx_HAL_Driver/Src/stm32f3xx_hal_can.c ****      (__HAL_CAN_GET_IT_SOURCE(hcan, CAN_IT_EPV)) &&
1105:Drivers/STM32F3xx_HAL_Driver/Src/stm32f3xx_hal_can.c ****      (__HAL_CAN_GET_IT_SOURCE(hcan, CAN_IT_ERR)))
1106:Drivers/STM32F3xx_HAL_Driver/Src/stm32f3xx_hal_can.c ****   {
1107:Drivers/STM32F3xx_HAL_Driver/Src/stm32f3xx_hal_can.c ****     /* Set CAN error code to EPV error */
1108:Drivers/STM32F3xx_HAL_Driver/Src/stm32f3xx_hal_can.c ****     hcan->ErrorCode |= HAL_CAN_ERROR_EPV;
1109:Drivers/STM32F3xx_HAL_Driver/Src/stm32f3xx_hal_can.c ****     /* No need for clear of Error Passive Flag as read-only */ 
1110:Drivers/STM32F3xx_HAL_Driver/Src/stm32f3xx_hal_can.c ****   }
1111:Drivers/STM32F3xx_HAL_Driver/Src/stm32f3xx_hal_can.c ****   
1112:Drivers/STM32F3xx_HAL_Driver/Src/stm32f3xx_hal_can.c ****   /* Check Bus-Off Flag */
1113:Drivers/STM32F3xx_HAL_Driver/Src/stm32f3xx_hal_can.c ****   if((__HAL_CAN_GET_FLAG(hcan, CAN_FLAG_BOF))    &&
1114:Drivers/STM32F3xx_HAL_Driver/Src/stm32f3xx_hal_can.c ****      (__HAL_CAN_GET_IT_SOURCE(hcan, CAN_IT_BOF)) &&
1115:Drivers/STM32F3xx_HAL_Driver/Src/stm32f3xx_hal_can.c ****      (__HAL_CAN_GET_IT_SOURCE(hcan, CAN_IT_ERR)))
1116:Drivers/STM32F3xx_HAL_Driver/Src/stm32f3xx_hal_can.c ****   {
1117:Drivers/STM32F3xx_HAL_Driver/Src/stm32f3xx_hal_can.c ****     /* Set CAN error code to BOF error */
1118:Drivers/STM32F3xx_HAL_Driver/Src/stm32f3xx_hal_can.c ****     hcan->ErrorCode |= HAL_CAN_ERROR_BOF;
1119:Drivers/STM32F3xx_HAL_Driver/Src/stm32f3xx_hal_can.c ****     /* No need for clear of Bus-Off Flag as read-only */
1120:Drivers/STM32F3xx_HAL_Driver/Src/stm32f3xx_hal_can.c ****   }
1121:Drivers/STM32F3xx_HAL_Driver/Src/stm32f3xx_hal_can.c ****   
1122:Drivers/STM32F3xx_HAL_Driver/Src/stm32f3xx_hal_can.c ****   /* Check Last error code Flag */
1123:Drivers/STM32F3xx_HAL_Driver/Src/stm32f3xx_hal_can.c ****   if((!HAL_IS_BIT_CLR(hcan->Instance->ESR, CAN_ESR_LEC)) &&
1124:Drivers/STM32F3xx_HAL_Driver/Src/stm32f3xx_hal_can.c ****      (__HAL_CAN_GET_IT_SOURCE(hcan, CAN_IT_LEC))         &&
1125:Drivers/STM32F3xx_HAL_Driver/Src/stm32f3xx_hal_can.c ****      (__HAL_CAN_GET_IT_SOURCE(hcan, CAN_IT_ERR)))
1126:Drivers/STM32F3xx_HAL_Driver/Src/stm32f3xx_hal_can.c ****   {
1127:Drivers/STM32F3xx_HAL_Driver/Src/stm32f3xx_hal_can.c ****     switch(hcan->Instance->ESR & CAN_ESR_LEC)
1128:Drivers/STM32F3xx_HAL_Driver/Src/stm32f3xx_hal_can.c ****     {
1129:Drivers/STM32F3xx_HAL_Driver/Src/stm32f3xx_hal_can.c ****       case(CAN_ESR_LEC_0):
1130:Drivers/STM32F3xx_HAL_Driver/Src/stm32f3xx_hal_can.c ****           /* Set CAN error code to STF error */
1131:Drivers/STM32F3xx_HAL_Driver/Src/stm32f3xx_hal_can.c ****           hcan->ErrorCode |= HAL_CAN_ERROR_STF;
1132:Drivers/STM32F3xx_HAL_Driver/Src/stm32f3xx_hal_can.c ****           break;
1133:Drivers/STM32F3xx_HAL_Driver/Src/stm32f3xx_hal_can.c ****       case(CAN_ESR_LEC_1):
1134:Drivers/STM32F3xx_HAL_Driver/Src/stm32f3xx_hal_can.c ****           /* Set CAN error code to FOR error */
1135:Drivers/STM32F3xx_HAL_Driver/Src/stm32f3xx_hal_can.c ****           hcan->ErrorCode |= HAL_CAN_ERROR_FOR;
1136:Drivers/STM32F3xx_HAL_Driver/Src/stm32f3xx_hal_can.c ****           break;
1137:Drivers/STM32F3xx_HAL_Driver/Src/stm32f3xx_hal_can.c ****       case(CAN_ESR_LEC_1 | CAN_ESR_LEC_0):
1138:Drivers/STM32F3xx_HAL_Driver/Src/stm32f3xx_hal_can.c ****           /* Set CAN error code to ACK error */
1139:Drivers/STM32F3xx_HAL_Driver/Src/stm32f3xx_hal_can.c ****           hcan->ErrorCode |= HAL_CAN_ERROR_ACK;
1140:Drivers/STM32F3xx_HAL_Driver/Src/stm32f3xx_hal_can.c ****           break;
1141:Drivers/STM32F3xx_HAL_Driver/Src/stm32f3xx_hal_can.c ****       case(CAN_ESR_LEC_2):
1142:Drivers/STM32F3xx_HAL_Driver/Src/stm32f3xx_hal_can.c ****           /* Set CAN error code to BR error */
1143:Drivers/STM32F3xx_HAL_Driver/Src/stm32f3xx_hal_can.c ****           hcan->ErrorCode |= HAL_CAN_ERROR_BR;
1144:Drivers/STM32F3xx_HAL_Driver/Src/stm32f3xx_hal_can.c ****           break;
1145:Drivers/STM32F3xx_HAL_Driver/Src/stm32f3xx_hal_can.c ****       case(CAN_ESR_LEC_2 | CAN_ESR_LEC_0):
1146:Drivers/STM32F3xx_HAL_Driver/Src/stm32f3xx_hal_can.c ****           /* Set CAN error code to BD error */
1147:Drivers/STM32F3xx_HAL_Driver/Src/stm32f3xx_hal_can.c ****           hcan->ErrorCode |= HAL_CAN_ERROR_BD;
1148:Drivers/STM32F3xx_HAL_Driver/Src/stm32f3xx_hal_can.c ****           break;
1149:Drivers/STM32F3xx_HAL_Driver/Src/stm32f3xx_hal_can.c ****       case(CAN_ESR_LEC_2 | CAN_ESR_LEC_1):
ARM GAS  /var/folders/p7/nwmyw04531jbkqkgv59cx10h0000gn/T//ccKbzw64.s 			page 54


1150:Drivers/STM32F3xx_HAL_Driver/Src/stm32f3xx_hal_can.c ****           /* Set CAN error code to CRC error */
1151:Drivers/STM32F3xx_HAL_Driver/Src/stm32f3xx_hal_can.c ****           hcan->ErrorCode |= HAL_CAN_ERROR_CRC;
1152:Drivers/STM32F3xx_HAL_Driver/Src/stm32f3xx_hal_can.c ****           break;
1153:Drivers/STM32F3xx_HAL_Driver/Src/stm32f3xx_hal_can.c ****       default:
1154:Drivers/STM32F3xx_HAL_Driver/Src/stm32f3xx_hal_can.c ****           break;
1155:Drivers/STM32F3xx_HAL_Driver/Src/stm32f3xx_hal_can.c ****     }
1156:Drivers/STM32F3xx_HAL_Driver/Src/stm32f3xx_hal_can.c **** 
1157:Drivers/STM32F3xx_HAL_Driver/Src/stm32f3xx_hal_can.c ****     /* Clear Last error code Flag */ 
1158:Drivers/STM32F3xx_HAL_Driver/Src/stm32f3xx_hal_can.c ****     hcan->Instance->ESR &= ~(CAN_ESR_LEC);
1159:Drivers/STM32F3xx_HAL_Driver/Src/stm32f3xx_hal_can.c ****   }
1160:Drivers/STM32F3xx_HAL_Driver/Src/stm32f3xx_hal_can.c **** 
1161:Drivers/STM32F3xx_HAL_Driver/Src/stm32f3xx_hal_can.c ****   /* Call the Error call Back in case of Errors */
1162:Drivers/STM32F3xx_HAL_Driver/Src/stm32f3xx_hal_can.c ****   if(hcan->ErrorCode != HAL_CAN_ERROR_NONE)
1163:Drivers/STM32F3xx_HAL_Driver/Src/stm32f3xx_hal_can.c ****   {
1164:Drivers/STM32F3xx_HAL_Driver/Src/stm32f3xx_hal_can.c ****     /* Clear ERRI Flag */ 
1165:Drivers/STM32F3xx_HAL_Driver/Src/stm32f3xx_hal_can.c ****     hcan->Instance->MSR |= CAN_MSR_ERRI; 
1166:Drivers/STM32F3xx_HAL_Driver/Src/stm32f3xx_hal_can.c ****     /* Set the CAN state ready to be able to start again the process */
1167:Drivers/STM32F3xx_HAL_Driver/Src/stm32f3xx_hal_can.c ****     hcan->State = HAL_CAN_STATE_READY;
1168:Drivers/STM32F3xx_HAL_Driver/Src/stm32f3xx_hal_can.c ****     /* Call Error callback function */
1169:Drivers/STM32F3xx_HAL_Driver/Src/stm32f3xx_hal_can.c ****     HAL_CAN_ErrorCallback(hcan);
1170:Drivers/STM32F3xx_HAL_Driver/Src/stm32f3xx_hal_can.c ****   }  
1171:Drivers/STM32F3xx_HAL_Driver/Src/stm32f3xx_hal_can.c **** }
1172:Drivers/STM32F3xx_HAL_Driver/Src/stm32f3xx_hal_can.c **** 
1173:Drivers/STM32F3xx_HAL_Driver/Src/stm32f3xx_hal_can.c **** /**
1174:Drivers/STM32F3xx_HAL_Driver/Src/stm32f3xx_hal_can.c ****   * @brief  Transmission  complete callback in non blocking mode 
1175:Drivers/STM32F3xx_HAL_Driver/Src/stm32f3xx_hal_can.c ****   * @param  hcan: pointer to a CAN_HandleTypeDef structure that contains
1176:Drivers/STM32F3xx_HAL_Driver/Src/stm32f3xx_hal_can.c ****   *         the configuration information for the specified CAN.
1177:Drivers/STM32F3xx_HAL_Driver/Src/stm32f3xx_hal_can.c ****   * @retval None
1178:Drivers/STM32F3xx_HAL_Driver/Src/stm32f3xx_hal_can.c ****   */
1179:Drivers/STM32F3xx_HAL_Driver/Src/stm32f3xx_hal_can.c **** __weak void HAL_CAN_TxCpltCallback(CAN_HandleTypeDef* hcan)
1180:Drivers/STM32F3xx_HAL_Driver/Src/stm32f3xx_hal_can.c **** {
 1728              		.loc 1 1180 0
 1729              		.cfi_startproc
 1730              		@ args = 0, pretend = 0, frame = 0
 1731              		@ frame_needed = 0, uses_anonymous_args = 0
 1732              		@ link register save eliminated.
 1733              	.LVL99:
 1734 0000 7047     		bx	lr
 1735              		.cfi_endproc
 1736              	.LFE136:
 1738              		.section	.text.CAN_Transmit_IT,"ax",%progbits
 1739              		.align	1
 1740              		.syntax unified
 1741              		.thumb
 1742              		.thumb_func
 1743              		.fpu fpv4-sp-d16
 1745              	CAN_Transmit_IT:
 1746              	.LFB141:
1181:Drivers/STM32F3xx_HAL_Driver/Src/stm32f3xx_hal_can.c ****   /* Prevent unused argument(s) compilation warning */
1182:Drivers/STM32F3xx_HAL_Driver/Src/stm32f3xx_hal_can.c ****   UNUSED(hcan);
1183:Drivers/STM32F3xx_HAL_Driver/Src/stm32f3xx_hal_can.c **** 
1184:Drivers/STM32F3xx_HAL_Driver/Src/stm32f3xx_hal_can.c ****   /* NOTE : This function Should not be modified, when the callback is needed,
1185:Drivers/STM32F3xx_HAL_Driver/Src/stm32f3xx_hal_can.c ****             the HAL_CAN_TxCpltCallback could be implemented in the user file
1186:Drivers/STM32F3xx_HAL_Driver/Src/stm32f3xx_hal_can.c ****    */
1187:Drivers/STM32F3xx_HAL_Driver/Src/stm32f3xx_hal_can.c **** }
1188:Drivers/STM32F3xx_HAL_Driver/Src/stm32f3xx_hal_can.c **** 
1189:Drivers/STM32F3xx_HAL_Driver/Src/stm32f3xx_hal_can.c **** /**
ARM GAS  /var/folders/p7/nwmyw04531jbkqkgv59cx10h0000gn/T//ccKbzw64.s 			page 55


1190:Drivers/STM32F3xx_HAL_Driver/Src/stm32f3xx_hal_can.c ****   * @brief  Transmission  complete callback in non blocking mode 
1191:Drivers/STM32F3xx_HAL_Driver/Src/stm32f3xx_hal_can.c ****   * @param  hcan: pointer to a CAN_HandleTypeDef structure that contains
1192:Drivers/STM32F3xx_HAL_Driver/Src/stm32f3xx_hal_can.c ****   *         the configuration information for the specified CAN.
1193:Drivers/STM32F3xx_HAL_Driver/Src/stm32f3xx_hal_can.c ****   * @retval None
1194:Drivers/STM32F3xx_HAL_Driver/Src/stm32f3xx_hal_can.c ****   */
1195:Drivers/STM32F3xx_HAL_Driver/Src/stm32f3xx_hal_can.c **** __weak void HAL_CAN_RxCpltCallback(CAN_HandleTypeDef* hcan)
1196:Drivers/STM32F3xx_HAL_Driver/Src/stm32f3xx_hal_can.c **** {
1197:Drivers/STM32F3xx_HAL_Driver/Src/stm32f3xx_hal_can.c ****   /* Prevent unused argument(s) compilation warning */
1198:Drivers/STM32F3xx_HAL_Driver/Src/stm32f3xx_hal_can.c ****   UNUSED(hcan);
1199:Drivers/STM32F3xx_HAL_Driver/Src/stm32f3xx_hal_can.c **** 
1200:Drivers/STM32F3xx_HAL_Driver/Src/stm32f3xx_hal_can.c ****   /* NOTE : This function Should not be modified, when the callback is needed,
1201:Drivers/STM32F3xx_HAL_Driver/Src/stm32f3xx_hal_can.c ****             the HAL_CAN_RxCpltCallback could be implemented in the user file
1202:Drivers/STM32F3xx_HAL_Driver/Src/stm32f3xx_hal_can.c ****    */
1203:Drivers/STM32F3xx_HAL_Driver/Src/stm32f3xx_hal_can.c **** }
1204:Drivers/STM32F3xx_HAL_Driver/Src/stm32f3xx_hal_can.c **** 
1205:Drivers/STM32F3xx_HAL_Driver/Src/stm32f3xx_hal_can.c **** /**
1206:Drivers/STM32F3xx_HAL_Driver/Src/stm32f3xx_hal_can.c ****   * @brief  Error CAN callback.
1207:Drivers/STM32F3xx_HAL_Driver/Src/stm32f3xx_hal_can.c ****   * @param  hcan: pointer to a CAN_HandleTypeDef structure that contains
1208:Drivers/STM32F3xx_HAL_Driver/Src/stm32f3xx_hal_can.c ****   *         the configuration information for the specified CAN.
1209:Drivers/STM32F3xx_HAL_Driver/Src/stm32f3xx_hal_can.c ****   * @retval None
1210:Drivers/STM32F3xx_HAL_Driver/Src/stm32f3xx_hal_can.c ****   */
1211:Drivers/STM32F3xx_HAL_Driver/Src/stm32f3xx_hal_can.c **** __weak void HAL_CAN_ErrorCallback(CAN_HandleTypeDef *hcan)
1212:Drivers/STM32F3xx_HAL_Driver/Src/stm32f3xx_hal_can.c **** {
1213:Drivers/STM32F3xx_HAL_Driver/Src/stm32f3xx_hal_can.c ****   /* Prevent unused argument(s) compilation warning */
1214:Drivers/STM32F3xx_HAL_Driver/Src/stm32f3xx_hal_can.c ****   UNUSED(hcan);
1215:Drivers/STM32F3xx_HAL_Driver/Src/stm32f3xx_hal_can.c **** 
1216:Drivers/STM32F3xx_HAL_Driver/Src/stm32f3xx_hal_can.c ****   /* NOTE : This function Should not be modified, when the callback is needed,
1217:Drivers/STM32F3xx_HAL_Driver/Src/stm32f3xx_hal_can.c ****             the HAL_CAN_ErrorCallback could be implemented in the user file
1218:Drivers/STM32F3xx_HAL_Driver/Src/stm32f3xx_hal_can.c ****    */
1219:Drivers/STM32F3xx_HAL_Driver/Src/stm32f3xx_hal_can.c **** }
1220:Drivers/STM32F3xx_HAL_Driver/Src/stm32f3xx_hal_can.c **** 
1221:Drivers/STM32F3xx_HAL_Driver/Src/stm32f3xx_hal_can.c **** /**
1222:Drivers/STM32F3xx_HAL_Driver/Src/stm32f3xx_hal_can.c ****   * @}
1223:Drivers/STM32F3xx_HAL_Driver/Src/stm32f3xx_hal_can.c ****   */
1224:Drivers/STM32F3xx_HAL_Driver/Src/stm32f3xx_hal_can.c **** 
1225:Drivers/STM32F3xx_HAL_Driver/Src/stm32f3xx_hal_can.c **** /** @defgroup CAN_Exported_Functions_Group3 Peripheral State and Error functions
1226:Drivers/STM32F3xx_HAL_Driver/Src/stm32f3xx_hal_can.c ****  *  @brief   CAN Peripheral State functions 
1227:Drivers/STM32F3xx_HAL_Driver/Src/stm32f3xx_hal_can.c ****  *
1228:Drivers/STM32F3xx_HAL_Driver/Src/stm32f3xx_hal_can.c **** @verbatim   
1229:Drivers/STM32F3xx_HAL_Driver/Src/stm32f3xx_hal_can.c ****   ==============================================================================
1230:Drivers/STM32F3xx_HAL_Driver/Src/stm32f3xx_hal_can.c ****             ##### Peripheral State and Error functions #####
1231:Drivers/STM32F3xx_HAL_Driver/Src/stm32f3xx_hal_can.c ****   ==============================================================================
1232:Drivers/STM32F3xx_HAL_Driver/Src/stm32f3xx_hal_can.c ****     [..]
1233:Drivers/STM32F3xx_HAL_Driver/Src/stm32f3xx_hal_can.c ****     This subsection provides functions allowing to :
1234:Drivers/STM32F3xx_HAL_Driver/Src/stm32f3xx_hal_can.c ****       (+) Check the CAN state.
1235:Drivers/STM32F3xx_HAL_Driver/Src/stm32f3xx_hal_can.c ****       (+) Check CAN Errors detected during interrupt process
1236:Drivers/STM32F3xx_HAL_Driver/Src/stm32f3xx_hal_can.c ****          
1237:Drivers/STM32F3xx_HAL_Driver/Src/stm32f3xx_hal_can.c **** @endverbatim
1238:Drivers/STM32F3xx_HAL_Driver/Src/stm32f3xx_hal_can.c ****   * @{
1239:Drivers/STM32F3xx_HAL_Driver/Src/stm32f3xx_hal_can.c ****   */
1240:Drivers/STM32F3xx_HAL_Driver/Src/stm32f3xx_hal_can.c **** 
1241:Drivers/STM32F3xx_HAL_Driver/Src/stm32f3xx_hal_can.c **** /**
1242:Drivers/STM32F3xx_HAL_Driver/Src/stm32f3xx_hal_can.c ****   * @brief  return the CAN state
1243:Drivers/STM32F3xx_HAL_Driver/Src/stm32f3xx_hal_can.c ****   * @param  hcan: pointer to a CAN_HandleTypeDef structure that contains
1244:Drivers/STM32F3xx_HAL_Driver/Src/stm32f3xx_hal_can.c ****   *         the configuration information for the specified CAN.
1245:Drivers/STM32F3xx_HAL_Driver/Src/stm32f3xx_hal_can.c ****   * @retval HAL state
1246:Drivers/STM32F3xx_HAL_Driver/Src/stm32f3xx_hal_can.c ****   */
ARM GAS  /var/folders/p7/nwmyw04531jbkqkgv59cx10h0000gn/T//ccKbzw64.s 			page 56


1247:Drivers/STM32F3xx_HAL_Driver/Src/stm32f3xx_hal_can.c **** HAL_CAN_StateTypeDef HAL_CAN_GetState(CAN_HandleTypeDef* hcan)
1248:Drivers/STM32F3xx_HAL_Driver/Src/stm32f3xx_hal_can.c **** {
1249:Drivers/STM32F3xx_HAL_Driver/Src/stm32f3xx_hal_can.c ****   /* Return CAN state */
1250:Drivers/STM32F3xx_HAL_Driver/Src/stm32f3xx_hal_can.c ****   return hcan->State;
1251:Drivers/STM32F3xx_HAL_Driver/Src/stm32f3xx_hal_can.c **** }
1252:Drivers/STM32F3xx_HAL_Driver/Src/stm32f3xx_hal_can.c **** 
1253:Drivers/STM32F3xx_HAL_Driver/Src/stm32f3xx_hal_can.c **** /**
1254:Drivers/STM32F3xx_HAL_Driver/Src/stm32f3xx_hal_can.c ****   * @brief  Return the CAN error code
1255:Drivers/STM32F3xx_HAL_Driver/Src/stm32f3xx_hal_can.c ****   * @param  hcan: pointer to a CAN_HandleTypeDef structure that contains
1256:Drivers/STM32F3xx_HAL_Driver/Src/stm32f3xx_hal_can.c ****   *         the configuration information for the specified CAN.
1257:Drivers/STM32F3xx_HAL_Driver/Src/stm32f3xx_hal_can.c ****   * @retval CAN Error Code
1258:Drivers/STM32F3xx_HAL_Driver/Src/stm32f3xx_hal_can.c ****   */
1259:Drivers/STM32F3xx_HAL_Driver/Src/stm32f3xx_hal_can.c **** uint32_t HAL_CAN_GetError(CAN_HandleTypeDef *hcan)
1260:Drivers/STM32F3xx_HAL_Driver/Src/stm32f3xx_hal_can.c **** {
1261:Drivers/STM32F3xx_HAL_Driver/Src/stm32f3xx_hal_can.c ****   return hcan->ErrorCode;
1262:Drivers/STM32F3xx_HAL_Driver/Src/stm32f3xx_hal_can.c **** }
1263:Drivers/STM32F3xx_HAL_Driver/Src/stm32f3xx_hal_can.c **** 
1264:Drivers/STM32F3xx_HAL_Driver/Src/stm32f3xx_hal_can.c **** /**
1265:Drivers/STM32F3xx_HAL_Driver/Src/stm32f3xx_hal_can.c ****   * @}
1266:Drivers/STM32F3xx_HAL_Driver/Src/stm32f3xx_hal_can.c ****   */
1267:Drivers/STM32F3xx_HAL_Driver/Src/stm32f3xx_hal_can.c **** 
1268:Drivers/STM32F3xx_HAL_Driver/Src/stm32f3xx_hal_can.c **** /**
1269:Drivers/STM32F3xx_HAL_Driver/Src/stm32f3xx_hal_can.c ****   * @}
1270:Drivers/STM32F3xx_HAL_Driver/Src/stm32f3xx_hal_can.c ****   */
1271:Drivers/STM32F3xx_HAL_Driver/Src/stm32f3xx_hal_can.c ****   
1272:Drivers/STM32F3xx_HAL_Driver/Src/stm32f3xx_hal_can.c **** /** @addtogroup CAN_Private_Functions CAN Private Functions
1273:Drivers/STM32F3xx_HAL_Driver/Src/stm32f3xx_hal_can.c ****  *  @brief    CAN Frame message Rx/Tx functions 
1274:Drivers/STM32F3xx_HAL_Driver/Src/stm32f3xx_hal_can.c ****  *
1275:Drivers/STM32F3xx_HAL_Driver/Src/stm32f3xx_hal_can.c ****  * @{
1276:Drivers/STM32F3xx_HAL_Driver/Src/stm32f3xx_hal_can.c ****  */
1277:Drivers/STM32F3xx_HAL_Driver/Src/stm32f3xx_hal_can.c **** 
1278:Drivers/STM32F3xx_HAL_Driver/Src/stm32f3xx_hal_can.c **** /**
1279:Drivers/STM32F3xx_HAL_Driver/Src/stm32f3xx_hal_can.c ****   * @brief  Initiates and transmits a CAN frame message.
1280:Drivers/STM32F3xx_HAL_Driver/Src/stm32f3xx_hal_can.c ****   * @param  hcan: pointer to a CAN_HandleTypeDef structure that contains
1281:Drivers/STM32F3xx_HAL_Driver/Src/stm32f3xx_hal_can.c ****   *         the configuration information for the specified CAN.  
1282:Drivers/STM32F3xx_HAL_Driver/Src/stm32f3xx_hal_can.c ****   * @retval HAL status
1283:Drivers/STM32F3xx_HAL_Driver/Src/stm32f3xx_hal_can.c ****   */
1284:Drivers/STM32F3xx_HAL_Driver/Src/stm32f3xx_hal_can.c **** static HAL_StatusTypeDef CAN_Transmit_IT(CAN_HandleTypeDef* hcan)
1285:Drivers/STM32F3xx_HAL_Driver/Src/stm32f3xx_hal_can.c **** {
 1747              		.loc 1 1285 0
 1748              		.cfi_startproc
 1749              		@ args = 0, pretend = 0, frame = 0
 1750              		@ frame_needed = 0, uses_anonymous_args = 0
 1751              	.LVL100:
 1752              		.loc 1 1285 0
 1753 0000 08B5     		push	{r3, lr}
 1754              	.LCFI19:
 1755              		.cfi_def_cfa_offset 8
 1756              		.cfi_offset 3, -8
 1757              		.cfi_offset 14, -4
1286:Drivers/STM32F3xx_HAL_Driver/Src/stm32f3xx_hal_can.c ****   /* Disable Transmit mailbox empty Interrupt */
1287:Drivers/STM32F3xx_HAL_Driver/Src/stm32f3xx_hal_can.c ****   __HAL_CAN_DISABLE_IT(hcan, CAN_IT_TME);
 1758              		.loc 1 1287 0
 1759 0002 0268     		ldr	r2, [r0]
 1760 0004 5369     		ldr	r3, [r2, #20]
 1761 0006 23F00103 		bic	r3, r3, #1
 1762 000a 5361     		str	r3, [r2, #20]
ARM GAS  /var/folders/p7/nwmyw04531jbkqkgv59cx10h0000gn/T//ccKbzw64.s 			page 57


1288:Drivers/STM32F3xx_HAL_Driver/Src/stm32f3xx_hal_can.c ****   
1289:Drivers/STM32F3xx_HAL_Driver/Src/stm32f3xx_hal_can.c ****   if(hcan->State == HAL_CAN_STATE_BUSY_TX)
 1763              		.loc 1 1289 0
 1764 000c 90F83930 		ldrb	r3, [r0, #57]	@ zero_extendqisi2
 1765 0010 DBB2     		uxtb	r3, r3
 1766 0012 122B     		cmp	r3, #18
 1767 0014 0BD0     		beq	.L170
 1768              	.L166:
1290:Drivers/STM32F3xx_HAL_Driver/Src/stm32f3xx_hal_can.c ****   {   
1291:Drivers/STM32F3xx_HAL_Driver/Src/stm32f3xx_hal_can.c ****     /* Disable Error warning Interrupt */
1292:Drivers/STM32F3xx_HAL_Driver/Src/stm32f3xx_hal_can.c ****     __HAL_CAN_DISABLE_IT(hcan, CAN_IT_EWG);
1293:Drivers/STM32F3xx_HAL_Driver/Src/stm32f3xx_hal_can.c ****     
1294:Drivers/STM32F3xx_HAL_Driver/Src/stm32f3xx_hal_can.c ****     /* Disable Error passive Interrupt */
1295:Drivers/STM32F3xx_HAL_Driver/Src/stm32f3xx_hal_can.c ****     __HAL_CAN_DISABLE_IT(hcan, CAN_IT_EPV);
1296:Drivers/STM32F3xx_HAL_Driver/Src/stm32f3xx_hal_can.c ****     
1297:Drivers/STM32F3xx_HAL_Driver/Src/stm32f3xx_hal_can.c ****     /* Disable Bus-off Interrupt */
1298:Drivers/STM32F3xx_HAL_Driver/Src/stm32f3xx_hal_can.c ****     __HAL_CAN_DISABLE_IT(hcan, CAN_IT_BOF);
1299:Drivers/STM32F3xx_HAL_Driver/Src/stm32f3xx_hal_can.c ****     
1300:Drivers/STM32F3xx_HAL_Driver/Src/stm32f3xx_hal_can.c ****     /* Disable Last error code Interrupt */
1301:Drivers/STM32F3xx_HAL_Driver/Src/stm32f3xx_hal_can.c ****     __HAL_CAN_DISABLE_IT(hcan, CAN_IT_LEC);
1302:Drivers/STM32F3xx_HAL_Driver/Src/stm32f3xx_hal_can.c ****     
1303:Drivers/STM32F3xx_HAL_Driver/Src/stm32f3xx_hal_can.c ****     /* Disable Error Interrupt */
1304:Drivers/STM32F3xx_HAL_Driver/Src/stm32f3xx_hal_can.c ****     __HAL_CAN_DISABLE_IT(hcan, CAN_IT_ERR);
1305:Drivers/STM32F3xx_HAL_Driver/Src/stm32f3xx_hal_can.c ****   }
1306:Drivers/STM32F3xx_HAL_Driver/Src/stm32f3xx_hal_can.c ****   
1307:Drivers/STM32F3xx_HAL_Driver/Src/stm32f3xx_hal_can.c ****   if(hcan->State == HAL_CAN_STATE_BUSY_TX_RX) 
 1769              		.loc 1 1307 0
 1770 0016 90F83930 		ldrb	r3, [r0, #57]	@ zero_extendqisi2
 1771 001a DBB2     		uxtb	r3, r3
 1772 001c 322B     		cmp	r3, #50
 1773 001e 20D0     		beq	.L171
1308:Drivers/STM32F3xx_HAL_Driver/Src/stm32f3xx_hal_can.c ****   {
1309:Drivers/STM32F3xx_HAL_Driver/Src/stm32f3xx_hal_can.c ****     /* Change CAN state */
1310:Drivers/STM32F3xx_HAL_Driver/Src/stm32f3xx_hal_can.c ****     hcan->State = HAL_CAN_STATE_BUSY_RX;
1311:Drivers/STM32F3xx_HAL_Driver/Src/stm32f3xx_hal_can.c ****   }
1312:Drivers/STM32F3xx_HAL_Driver/Src/stm32f3xx_hal_can.c ****   else
1313:Drivers/STM32F3xx_HAL_Driver/Src/stm32f3xx_hal_can.c ****   {
1314:Drivers/STM32F3xx_HAL_Driver/Src/stm32f3xx_hal_can.c ****     /* Change CAN state */
1315:Drivers/STM32F3xx_HAL_Driver/Src/stm32f3xx_hal_can.c ****     hcan->State = HAL_CAN_STATE_READY;
 1774              		.loc 1 1315 0
 1775 0020 0123     		movs	r3, #1
 1776 0022 80F83930 		strb	r3, [r0, #57]
 1777              	.L168:
1316:Drivers/STM32F3xx_HAL_Driver/Src/stm32f3xx_hal_can.c ****   }
1317:Drivers/STM32F3xx_HAL_Driver/Src/stm32f3xx_hal_can.c ****   
1318:Drivers/STM32F3xx_HAL_Driver/Src/stm32f3xx_hal_can.c ****   /* Transmission complete callback */ 
1319:Drivers/STM32F3xx_HAL_Driver/Src/stm32f3xx_hal_can.c ****   HAL_CAN_TxCpltCallback(hcan);
 1778              		.loc 1 1319 0
 1779 0026 FFF7FEFF 		bl	HAL_CAN_TxCpltCallback
 1780              	.LVL101:
1320:Drivers/STM32F3xx_HAL_Driver/Src/stm32f3xx_hal_can.c ****   
1321:Drivers/STM32F3xx_HAL_Driver/Src/stm32f3xx_hal_can.c ****   return HAL_OK;
1322:Drivers/STM32F3xx_HAL_Driver/Src/stm32f3xx_hal_can.c **** }
 1781              		.loc 1 1322 0
 1782 002a 0020     		movs	r0, #0
 1783 002c 08BD     		pop	{r3, pc}
 1784              	.LVL102:
ARM GAS  /var/folders/p7/nwmyw04531jbkqkgv59cx10h0000gn/T//ccKbzw64.s 			page 58


 1785              	.L170:
1292:Drivers/STM32F3xx_HAL_Driver/Src/stm32f3xx_hal_can.c ****     
 1786              		.loc 1 1292 0
 1787 002e 0268     		ldr	r2, [r0]
 1788 0030 5369     		ldr	r3, [r2, #20]
 1789 0032 23F48073 		bic	r3, r3, #256
 1790 0036 5361     		str	r3, [r2, #20]
1295:Drivers/STM32F3xx_HAL_Driver/Src/stm32f3xx_hal_can.c ****     
 1791              		.loc 1 1295 0
 1792 0038 0268     		ldr	r2, [r0]
 1793 003a 5369     		ldr	r3, [r2, #20]
 1794 003c 23F40073 		bic	r3, r3, #512
 1795 0040 5361     		str	r3, [r2, #20]
1298:Drivers/STM32F3xx_HAL_Driver/Src/stm32f3xx_hal_can.c ****     
 1796              		.loc 1 1298 0
 1797 0042 0268     		ldr	r2, [r0]
 1798 0044 5369     		ldr	r3, [r2, #20]
 1799 0046 23F48063 		bic	r3, r3, #1024
 1800 004a 5361     		str	r3, [r2, #20]
1301:Drivers/STM32F3xx_HAL_Driver/Src/stm32f3xx_hal_can.c ****     
 1801              		.loc 1 1301 0
 1802 004c 0268     		ldr	r2, [r0]
 1803 004e 5369     		ldr	r3, [r2, #20]
 1804 0050 23F40063 		bic	r3, r3, #2048
 1805 0054 5361     		str	r3, [r2, #20]
1304:Drivers/STM32F3xx_HAL_Driver/Src/stm32f3xx_hal_can.c ****   }
 1806              		.loc 1 1304 0
 1807 0056 0268     		ldr	r2, [r0]
 1808 0058 5369     		ldr	r3, [r2, #20]
 1809 005a 23F40043 		bic	r3, r3, #32768
 1810 005e 5361     		str	r3, [r2, #20]
 1811 0060 D9E7     		b	.L166
 1812              	.L171:
1310:Drivers/STM32F3xx_HAL_Driver/Src/stm32f3xx_hal_can.c ****   }
 1813              		.loc 1 1310 0
 1814 0062 2223     		movs	r3, #34
 1815 0064 80F83930 		strb	r3, [r0, #57]
 1816 0068 DDE7     		b	.L168
 1817              		.cfi_endproc
 1818              	.LFE141:
 1820              		.section	.text.HAL_CAN_RxCpltCallback,"ax",%progbits
 1821              		.align	1
 1822              		.weak	HAL_CAN_RxCpltCallback
 1823              		.syntax unified
 1824              		.thumb
 1825              		.thumb_func
 1826              		.fpu fpv4-sp-d16
 1828              	HAL_CAN_RxCpltCallback:
 1829              	.LFB137:
1196:Drivers/STM32F3xx_HAL_Driver/Src/stm32f3xx_hal_can.c ****   /* Prevent unused argument(s) compilation warning */
 1830              		.loc 1 1196 0
 1831              		.cfi_startproc
 1832              		@ args = 0, pretend = 0, frame = 0
 1833              		@ frame_needed = 0, uses_anonymous_args = 0
 1834              		@ link register save eliminated.
 1835              	.LVL103:
 1836 0000 7047     		bx	lr
ARM GAS  /var/folders/p7/nwmyw04531jbkqkgv59cx10h0000gn/T//ccKbzw64.s 			page 59


 1837              		.cfi_endproc
 1838              	.LFE137:
 1840              		.section	.text.CAN_Receive_IT,"ax",%progbits
 1841              		.align	1
 1842              		.syntax unified
 1843              		.thumb
 1844              		.thumb_func
 1845              		.fpu fpv4-sp-d16
 1847              	CAN_Receive_IT:
 1848              	.LFB142:
1323:Drivers/STM32F3xx_HAL_Driver/Src/stm32f3xx_hal_can.c **** 
1324:Drivers/STM32F3xx_HAL_Driver/Src/stm32f3xx_hal_can.c **** /**
1325:Drivers/STM32F3xx_HAL_Driver/Src/stm32f3xx_hal_can.c ****   * @brief  Receives a correct CAN frame.
1326:Drivers/STM32F3xx_HAL_Driver/Src/stm32f3xx_hal_can.c ****   * @param  hcan:       Pointer to a CAN_HandleTypeDef structure that contains
1327:Drivers/STM32F3xx_HAL_Driver/Src/stm32f3xx_hal_can.c ****   *         the configuration information for the specified CAN.  
1328:Drivers/STM32F3xx_HAL_Driver/Src/stm32f3xx_hal_can.c ****   * @param  FIFONumber: Specify the FIFO number    
1329:Drivers/STM32F3xx_HAL_Driver/Src/stm32f3xx_hal_can.c ****   * @retval HAL status
1330:Drivers/STM32F3xx_HAL_Driver/Src/stm32f3xx_hal_can.c ****   * @retval None
1331:Drivers/STM32F3xx_HAL_Driver/Src/stm32f3xx_hal_can.c ****   */
1332:Drivers/STM32F3xx_HAL_Driver/Src/stm32f3xx_hal_can.c **** static HAL_StatusTypeDef CAN_Receive_IT(CAN_HandleTypeDef* hcan, uint8_t FIFONumber)
1333:Drivers/STM32F3xx_HAL_Driver/Src/stm32f3xx_hal_can.c **** {
 1849              		.loc 1 1333 0
 1850              		.cfi_startproc
 1851              		@ args = 0, pretend = 0, frame = 0
 1852              		@ frame_needed = 0, uses_anonymous_args = 0
 1853              	.LVL104:
 1854              		.loc 1 1333 0
 1855 0000 10B5     		push	{r4, lr}
 1856              	.LCFI20:
 1857              		.cfi_def_cfa_offset 8
 1858              		.cfi_offset 4, -8
 1859              		.cfi_offset 14, -4
1334:Drivers/STM32F3xx_HAL_Driver/Src/stm32f3xx_hal_can.c ****   /* Get the Id */
1335:Drivers/STM32F3xx_HAL_Driver/Src/stm32f3xx_hal_can.c ****   hcan->pRxMsg->IDE = (uint8_t)0x04U & hcan->Instance->sFIFOMailBox[FIFONumber].RIR;
 1860              		.loc 1 1335 0
 1861 0002 426B     		ldr	r2, [r0, #52]
 1862 0004 0468     		ldr	r4, [r0]
 1863 0006 01F11B03 		add	r3, r1, #27
 1864 000a 1B01     		lsls	r3, r3, #4
 1865 000c E358     		ldr	r3, [r4, r3]
 1866 000e 03F00403 		and	r3, r3, #4
 1867 0012 9360     		str	r3, [r2, #8]
1336:Drivers/STM32F3xx_HAL_Driver/Src/stm32f3xx_hal_can.c ****   if (hcan->pRxMsg->IDE == CAN_ID_STD)
 1868              		.loc 1 1336 0
 1869 0014 436B     		ldr	r3, [r0, #52]
 1870 0016 9A68     		ldr	r2, [r3, #8]
 1871 0018 002A     		cmp	r2, #0
 1872 001a 70D1     		bne	.L174
1337:Drivers/STM32F3xx_HAL_Driver/Src/stm32f3xx_hal_can.c ****   {
1338:Drivers/STM32F3xx_HAL_Driver/Src/stm32f3xx_hal_can.c ****     hcan->pRxMsg->StdId = 0x000007FFU & (hcan->Instance->sFIFOMailBox[FIFONumber].RIR >> 21U);
 1873              		.loc 1 1338 0
 1874 001c 0468     		ldr	r4, [r0]
 1875 001e 01F11B02 		add	r2, r1, #27
 1876 0022 1201     		lsls	r2, r2, #4
 1877 0024 A258     		ldr	r2, [r4, r2]
 1878 0026 520D     		lsrs	r2, r2, #21
 1879 0028 1A60     		str	r2, [r3]
ARM GAS  /var/folders/p7/nwmyw04531jbkqkgv59cx10h0000gn/T//ccKbzw64.s 			page 60


 1880              	.L175:
1339:Drivers/STM32F3xx_HAL_Driver/Src/stm32f3xx_hal_can.c ****   }
1340:Drivers/STM32F3xx_HAL_Driver/Src/stm32f3xx_hal_can.c ****   else
1341:Drivers/STM32F3xx_HAL_Driver/Src/stm32f3xx_hal_can.c ****   {
1342:Drivers/STM32F3xx_HAL_Driver/Src/stm32f3xx_hal_can.c ****     hcan->pRxMsg->ExtId = 0x1FFFFFFFU & (hcan->Instance->sFIFOMailBox[FIFONumber].RIR >> 3U);
1343:Drivers/STM32F3xx_HAL_Driver/Src/stm32f3xx_hal_can.c ****   }
1344:Drivers/STM32F3xx_HAL_Driver/Src/stm32f3xx_hal_can.c ****   
1345:Drivers/STM32F3xx_HAL_Driver/Src/stm32f3xx_hal_can.c ****   hcan->pRxMsg->RTR = (uint8_t)0x02U & hcan->Instance->sFIFOMailBox[FIFONumber].RIR;
 1881              		.loc 1 1345 0
 1882 002a 446B     		ldr	r4, [r0, #52]
 1883 002c 0268     		ldr	r2, [r0]
 1884 002e 01F11B03 		add	r3, r1, #27
 1885 0032 1B01     		lsls	r3, r3, #4
 1886 0034 D258     		ldr	r2, [r2, r3]
 1887 0036 02F00202 		and	r2, r2, #2
 1888 003a E260     		str	r2, [r4, #12]
1346:Drivers/STM32F3xx_HAL_Driver/Src/stm32f3xx_hal_can.c ****   /* Get the DLC */
1347:Drivers/STM32F3xx_HAL_Driver/Src/stm32f3xx_hal_can.c ****   hcan->pRxMsg->DLC = (uint8_t)0x0FU & hcan->Instance->sFIFOMailBox[FIFONumber].RDTR;
 1889              		.loc 1 1347 0
 1890 003c 446B     		ldr	r4, [r0, #52]
 1891 003e 0268     		ldr	r2, [r0]
 1892 0040 1A44     		add	r2, r2, r3
 1893 0042 5268     		ldr	r2, [r2, #4]
 1894 0044 02F00F02 		and	r2, r2, #15
 1895 0048 2261     		str	r2, [r4, #16]
1348:Drivers/STM32F3xx_HAL_Driver/Src/stm32f3xx_hal_can.c ****   /* Get the FMI */
1349:Drivers/STM32F3xx_HAL_Driver/Src/stm32f3xx_hal_can.c ****   hcan->pRxMsg->FMI = (uint8_t)0xFFU & (hcan->Instance->sFIFOMailBox[FIFONumber].RDTR >> 8U);
 1896              		.loc 1 1349 0
 1897 004a 446B     		ldr	r4, [r0, #52]
 1898 004c 0268     		ldr	r2, [r0]
 1899 004e 1344     		add	r3, r3, r2
 1900 0050 5B68     		ldr	r3, [r3, #4]
 1901 0052 C3F30723 		ubfx	r3, r3, #8, #8
 1902 0056 E361     		str	r3, [r4, #28]
1350:Drivers/STM32F3xx_HAL_Driver/Src/stm32f3xx_hal_can.c ****   /* Get the data field */
1351:Drivers/STM32F3xx_HAL_Driver/Src/stm32f3xx_hal_can.c ****   hcan->pRxMsg->Data[0] = (uint8_t)0xFFU & hcan->Instance->sFIFOMailBox[FIFONumber].RDLR;
 1903              		.loc 1 1351 0
 1904 0058 446B     		ldr	r4, [r0, #52]
 1905 005a 0268     		ldr	r2, [r0]
 1906 005c 0B01     		lsls	r3, r1, #4
 1907 005e 1A44     		add	r2, r2, r3
 1908 0060 D2F8B821 		ldr	r2, [r2, #440]
 1909 0064 2275     		strb	r2, [r4, #20]
1352:Drivers/STM32F3xx_HAL_Driver/Src/stm32f3xx_hal_can.c ****   hcan->pRxMsg->Data[1] = (uint8_t)0xFFU & (hcan->Instance->sFIFOMailBox[FIFONumber].RDLR >> 8U);
 1910              		.loc 1 1352 0
 1911 0066 446B     		ldr	r4, [r0, #52]
 1912 0068 0268     		ldr	r2, [r0]
 1913 006a 1A44     		add	r2, r2, r3
 1914 006c D2F8B821 		ldr	r2, [r2, #440]
 1915 0070 120A     		lsrs	r2, r2, #8
 1916 0072 6275     		strb	r2, [r4, #21]
1353:Drivers/STM32F3xx_HAL_Driver/Src/stm32f3xx_hal_can.c ****   hcan->pRxMsg->Data[2] = (uint8_t)0xFFU & (hcan->Instance->sFIFOMailBox[FIFONumber].RDLR >> 16U);
 1917              		.loc 1 1353 0
 1918 0074 446B     		ldr	r4, [r0, #52]
 1919 0076 0268     		ldr	r2, [r0]
 1920 0078 1A44     		add	r2, r2, r3
 1921 007a D2F8B821 		ldr	r2, [r2, #440]
ARM GAS  /var/folders/p7/nwmyw04531jbkqkgv59cx10h0000gn/T//ccKbzw64.s 			page 61


 1922 007e 120C     		lsrs	r2, r2, #16
 1923 0080 A275     		strb	r2, [r4, #22]
1354:Drivers/STM32F3xx_HAL_Driver/Src/stm32f3xx_hal_can.c ****   hcan->pRxMsg->Data[3] = (uint8_t)0xFFU & (hcan->Instance->sFIFOMailBox[FIFONumber].RDLR >> 24U);
 1924              		.loc 1 1354 0
 1925 0082 446B     		ldr	r4, [r0, #52]
 1926 0084 0268     		ldr	r2, [r0]
 1927 0086 1A44     		add	r2, r2, r3
 1928 0088 D2F8B821 		ldr	r2, [r2, #440]
 1929 008c 120E     		lsrs	r2, r2, #24
 1930 008e E275     		strb	r2, [r4, #23]
1355:Drivers/STM32F3xx_HAL_Driver/Src/stm32f3xx_hal_can.c ****   hcan->pRxMsg->Data[4] = (uint8_t)0xFFU & hcan->Instance->sFIFOMailBox[FIFONumber].RDHR;
 1931              		.loc 1 1355 0
 1932 0090 446B     		ldr	r4, [r0, #52]
 1933 0092 0268     		ldr	r2, [r0]
 1934 0094 1A44     		add	r2, r2, r3
 1935 0096 D2F8BC21 		ldr	r2, [r2, #444]
 1936 009a 2276     		strb	r2, [r4, #24]
1356:Drivers/STM32F3xx_HAL_Driver/Src/stm32f3xx_hal_can.c ****   hcan->pRxMsg->Data[5] = (uint8_t)0xFFU & (hcan->Instance->sFIFOMailBox[FIFONumber].RDHR >> 8U);
 1937              		.loc 1 1356 0
 1938 009c 446B     		ldr	r4, [r0, #52]
 1939 009e 0268     		ldr	r2, [r0]
 1940 00a0 1A44     		add	r2, r2, r3
 1941 00a2 D2F8BC21 		ldr	r2, [r2, #444]
 1942 00a6 120A     		lsrs	r2, r2, #8
 1943 00a8 6276     		strb	r2, [r4, #25]
1357:Drivers/STM32F3xx_HAL_Driver/Src/stm32f3xx_hal_can.c ****   hcan->pRxMsg->Data[6] = (uint8_t)0xFFU & (hcan->Instance->sFIFOMailBox[FIFONumber].RDHR >> 16U);
 1944              		.loc 1 1357 0
 1945 00aa 446B     		ldr	r4, [r0, #52]
 1946 00ac 0268     		ldr	r2, [r0]
 1947 00ae 1A44     		add	r2, r2, r3
 1948 00b0 D2F8BC21 		ldr	r2, [r2, #444]
 1949 00b4 120C     		lsrs	r2, r2, #16
 1950 00b6 A276     		strb	r2, [r4, #26]
1358:Drivers/STM32F3xx_HAL_Driver/Src/stm32f3xx_hal_can.c ****   hcan->pRxMsg->Data[7] = (uint8_t)0xFFU & (hcan->Instance->sFIFOMailBox[FIFONumber].RDHR >> 24U);
 1951              		.loc 1 1358 0
 1952 00b8 446B     		ldr	r4, [r0, #52]
 1953 00ba 0268     		ldr	r2, [r0]
 1954 00bc 1344     		add	r3, r3, r2
 1955 00be D3F8BC31 		ldr	r3, [r3, #444]
 1956 00c2 1B0E     		lsrs	r3, r3, #24
 1957 00c4 E376     		strb	r3, [r4, #27]
1359:Drivers/STM32F3xx_HAL_Driver/Src/stm32f3xx_hal_can.c ****   /* Release the FIFO */
1360:Drivers/STM32F3xx_HAL_Driver/Src/stm32f3xx_hal_can.c ****   /* Release FIFO0 */
1361:Drivers/STM32F3xx_HAL_Driver/Src/stm32f3xx_hal_can.c ****   if (FIFONumber == CAN_FIFO0)
 1958              		.loc 1 1361 0
 1959 00c6 11BB     		cbnz	r1, .L176
1362:Drivers/STM32F3xx_HAL_Driver/Src/stm32f3xx_hal_can.c ****   {
1363:Drivers/STM32F3xx_HAL_Driver/Src/stm32f3xx_hal_can.c ****     __HAL_CAN_FIFO_RELEASE(hcan, CAN_FIFO0);
 1960              		.loc 1 1363 0
 1961 00c8 0268     		ldr	r2, [r0]
 1962 00ca D368     		ldr	r3, [r2, #12]
 1963 00cc 43F02003 		orr	r3, r3, #32
 1964 00d0 D360     		str	r3, [r2, #12]
1364:Drivers/STM32F3xx_HAL_Driver/Src/stm32f3xx_hal_can.c ****     
1365:Drivers/STM32F3xx_HAL_Driver/Src/stm32f3xx_hal_can.c ****     /* Disable FIFO 0 message pending Interrupt */
1366:Drivers/STM32F3xx_HAL_Driver/Src/stm32f3xx_hal_can.c ****     __HAL_CAN_DISABLE_IT(hcan, CAN_IT_FMP0);
 1965              		.loc 1 1366 0
ARM GAS  /var/folders/p7/nwmyw04531jbkqkgv59cx10h0000gn/T//ccKbzw64.s 			page 62


 1966 00d2 0268     		ldr	r2, [r0]
 1967 00d4 5369     		ldr	r3, [r2, #20]
 1968 00d6 23F00203 		bic	r3, r3, #2
 1969 00da 5361     		str	r3, [r2, #20]
 1970              	.L177:
1367:Drivers/STM32F3xx_HAL_Driver/Src/stm32f3xx_hal_can.c ****   }
1368:Drivers/STM32F3xx_HAL_Driver/Src/stm32f3xx_hal_can.c ****   /* Release FIFO1 */
1369:Drivers/STM32F3xx_HAL_Driver/Src/stm32f3xx_hal_can.c ****   else /* FIFONumber == CAN_FIFO1 */
1370:Drivers/STM32F3xx_HAL_Driver/Src/stm32f3xx_hal_can.c ****   {
1371:Drivers/STM32F3xx_HAL_Driver/Src/stm32f3xx_hal_can.c ****     __HAL_CAN_FIFO_RELEASE(hcan, CAN_FIFO1);
1372:Drivers/STM32F3xx_HAL_Driver/Src/stm32f3xx_hal_can.c ****     
1373:Drivers/STM32F3xx_HAL_Driver/Src/stm32f3xx_hal_can.c ****     /* Disable FIFO 1 message pending Interrupt */
1374:Drivers/STM32F3xx_HAL_Driver/Src/stm32f3xx_hal_can.c ****     __HAL_CAN_DISABLE_IT(hcan, CAN_IT_FMP1);
1375:Drivers/STM32F3xx_HAL_Driver/Src/stm32f3xx_hal_can.c ****   }
1376:Drivers/STM32F3xx_HAL_Driver/Src/stm32f3xx_hal_can.c ****   
1377:Drivers/STM32F3xx_HAL_Driver/Src/stm32f3xx_hal_can.c ****   if(hcan->State == HAL_CAN_STATE_BUSY_RX)
 1971              		.loc 1 1377 0
 1972 00dc 90F83930 		ldrb	r3, [r0, #57]	@ zero_extendqisi2
 1973 00e0 DBB2     		uxtb	r3, r3
 1974 00e2 222B     		cmp	r3, #34
 1975 00e4 1ED0     		beq	.L182
 1976              	.L178:
1378:Drivers/STM32F3xx_HAL_Driver/Src/stm32f3xx_hal_can.c ****   {   
1379:Drivers/STM32F3xx_HAL_Driver/Src/stm32f3xx_hal_can.c ****     /* Disable Error warning Interrupt */
1380:Drivers/STM32F3xx_HAL_Driver/Src/stm32f3xx_hal_can.c ****     __HAL_CAN_DISABLE_IT(hcan, CAN_IT_EWG);
1381:Drivers/STM32F3xx_HAL_Driver/Src/stm32f3xx_hal_can.c ****     
1382:Drivers/STM32F3xx_HAL_Driver/Src/stm32f3xx_hal_can.c ****     /* Disable Error passive Interrupt */
1383:Drivers/STM32F3xx_HAL_Driver/Src/stm32f3xx_hal_can.c ****     __HAL_CAN_DISABLE_IT(hcan, CAN_IT_EPV);
1384:Drivers/STM32F3xx_HAL_Driver/Src/stm32f3xx_hal_can.c ****     
1385:Drivers/STM32F3xx_HAL_Driver/Src/stm32f3xx_hal_can.c ****     /* Disable Bus-off Interrupt */
1386:Drivers/STM32F3xx_HAL_Driver/Src/stm32f3xx_hal_can.c ****     __HAL_CAN_DISABLE_IT(hcan, CAN_IT_BOF);
1387:Drivers/STM32F3xx_HAL_Driver/Src/stm32f3xx_hal_can.c ****     
1388:Drivers/STM32F3xx_HAL_Driver/Src/stm32f3xx_hal_can.c ****     /* Disable Last error code Interrupt */
1389:Drivers/STM32F3xx_HAL_Driver/Src/stm32f3xx_hal_can.c ****     __HAL_CAN_DISABLE_IT(hcan, CAN_IT_LEC);
1390:Drivers/STM32F3xx_HAL_Driver/Src/stm32f3xx_hal_can.c ****     
1391:Drivers/STM32F3xx_HAL_Driver/Src/stm32f3xx_hal_can.c ****     /* Disable Error Interrupt */
1392:Drivers/STM32F3xx_HAL_Driver/Src/stm32f3xx_hal_can.c ****     __HAL_CAN_DISABLE_IT(hcan, CAN_IT_ERR);
1393:Drivers/STM32F3xx_HAL_Driver/Src/stm32f3xx_hal_can.c ****   }
1394:Drivers/STM32F3xx_HAL_Driver/Src/stm32f3xx_hal_can.c ****   
1395:Drivers/STM32F3xx_HAL_Driver/Src/stm32f3xx_hal_can.c ****   if(hcan->State == HAL_CAN_STATE_BUSY_TX_RX) 
 1977              		.loc 1 1395 0
 1978 00e6 90F83930 		ldrb	r3, [r0, #57]	@ zero_extendqisi2
 1979 00ea DBB2     		uxtb	r3, r3
 1980 00ec 322B     		cmp	r3, #50
 1981 00ee 33D0     		beq	.L183
1396:Drivers/STM32F3xx_HAL_Driver/Src/stm32f3xx_hal_can.c ****   {
1397:Drivers/STM32F3xx_HAL_Driver/Src/stm32f3xx_hal_can.c ****     /* Disable CAN state */
1398:Drivers/STM32F3xx_HAL_Driver/Src/stm32f3xx_hal_can.c ****     hcan->State = HAL_CAN_STATE_BUSY_TX;
1399:Drivers/STM32F3xx_HAL_Driver/Src/stm32f3xx_hal_can.c ****   }
1400:Drivers/STM32F3xx_HAL_Driver/Src/stm32f3xx_hal_can.c ****   else
1401:Drivers/STM32F3xx_HAL_Driver/Src/stm32f3xx_hal_can.c ****   {
1402:Drivers/STM32F3xx_HAL_Driver/Src/stm32f3xx_hal_can.c ****     /* Change CAN state */
1403:Drivers/STM32F3xx_HAL_Driver/Src/stm32f3xx_hal_can.c ****     hcan->State = HAL_CAN_STATE_READY;
 1982              		.loc 1 1403 0
 1983 00f0 0123     		movs	r3, #1
 1984 00f2 80F83930 		strb	r3, [r0, #57]
 1985              	.L180:
ARM GAS  /var/folders/p7/nwmyw04531jbkqkgv59cx10h0000gn/T//ccKbzw64.s 			page 63


1404:Drivers/STM32F3xx_HAL_Driver/Src/stm32f3xx_hal_can.c ****   }
1405:Drivers/STM32F3xx_HAL_Driver/Src/stm32f3xx_hal_can.c **** 
1406:Drivers/STM32F3xx_HAL_Driver/Src/stm32f3xx_hal_can.c ****   /* Receive complete callback */ 
1407:Drivers/STM32F3xx_HAL_Driver/Src/stm32f3xx_hal_can.c ****   HAL_CAN_RxCpltCallback(hcan);
 1986              		.loc 1 1407 0
 1987 00f6 FFF7FEFF 		bl	HAL_CAN_RxCpltCallback
 1988              	.LVL105:
1408:Drivers/STM32F3xx_HAL_Driver/Src/stm32f3xx_hal_can.c **** 
1409:Drivers/STM32F3xx_HAL_Driver/Src/stm32f3xx_hal_can.c ****   /* Return function status */
1410:Drivers/STM32F3xx_HAL_Driver/Src/stm32f3xx_hal_can.c ****   return HAL_OK;
1411:Drivers/STM32F3xx_HAL_Driver/Src/stm32f3xx_hal_can.c **** }
 1989              		.loc 1 1411 0
 1990 00fa 0020     		movs	r0, #0
 1991 00fc 10BD     		pop	{r4, pc}
 1992              	.LVL106:
 1993              	.L174:
1342:Drivers/STM32F3xx_HAL_Driver/Src/stm32f3xx_hal_can.c ****   }
 1994              		.loc 1 1342 0
 1995 00fe 0468     		ldr	r4, [r0]
 1996 0100 01F11B02 		add	r2, r1, #27
 1997 0104 1201     		lsls	r2, r2, #4
 1998 0106 A258     		ldr	r2, [r4, r2]
 1999 0108 D208     		lsrs	r2, r2, #3
 2000 010a 5A60     		str	r2, [r3, #4]
 2001 010c 8DE7     		b	.L175
 2002              	.L176:
1371:Drivers/STM32F3xx_HAL_Driver/Src/stm32f3xx_hal_can.c ****     
 2003              		.loc 1 1371 0
 2004 010e 0268     		ldr	r2, [r0]
 2005 0110 1369     		ldr	r3, [r2, #16]
 2006 0112 43F02003 		orr	r3, r3, #32
 2007 0116 1361     		str	r3, [r2, #16]
1374:Drivers/STM32F3xx_HAL_Driver/Src/stm32f3xx_hal_can.c ****   }
 2008              		.loc 1 1374 0
 2009 0118 0268     		ldr	r2, [r0]
 2010 011a 5369     		ldr	r3, [r2, #20]
 2011 011c 23F01003 		bic	r3, r3, #16
 2012 0120 5361     		str	r3, [r2, #20]
 2013 0122 DBE7     		b	.L177
 2014              	.L182:
1380:Drivers/STM32F3xx_HAL_Driver/Src/stm32f3xx_hal_can.c ****     
 2015              		.loc 1 1380 0
 2016 0124 0268     		ldr	r2, [r0]
 2017 0126 5369     		ldr	r3, [r2, #20]
 2018 0128 23F48073 		bic	r3, r3, #256
 2019 012c 5361     		str	r3, [r2, #20]
1383:Drivers/STM32F3xx_HAL_Driver/Src/stm32f3xx_hal_can.c ****     
 2020              		.loc 1 1383 0
 2021 012e 0268     		ldr	r2, [r0]
 2022 0130 5369     		ldr	r3, [r2, #20]
 2023 0132 23F40073 		bic	r3, r3, #512
 2024 0136 5361     		str	r3, [r2, #20]
1386:Drivers/STM32F3xx_HAL_Driver/Src/stm32f3xx_hal_can.c ****     
 2025              		.loc 1 1386 0
 2026 0138 0268     		ldr	r2, [r0]
 2027 013a 5369     		ldr	r3, [r2, #20]
 2028 013c 23F48063 		bic	r3, r3, #1024
ARM GAS  /var/folders/p7/nwmyw04531jbkqkgv59cx10h0000gn/T//ccKbzw64.s 			page 64


 2029 0140 5361     		str	r3, [r2, #20]
1389:Drivers/STM32F3xx_HAL_Driver/Src/stm32f3xx_hal_can.c ****     
 2030              		.loc 1 1389 0
 2031 0142 0268     		ldr	r2, [r0]
 2032 0144 5369     		ldr	r3, [r2, #20]
 2033 0146 23F40063 		bic	r3, r3, #2048
 2034 014a 5361     		str	r3, [r2, #20]
1392:Drivers/STM32F3xx_HAL_Driver/Src/stm32f3xx_hal_can.c ****   }
 2035              		.loc 1 1392 0
 2036 014c 0268     		ldr	r2, [r0]
 2037 014e 5369     		ldr	r3, [r2, #20]
 2038 0150 23F40043 		bic	r3, r3, #32768
 2039 0154 5361     		str	r3, [r2, #20]
 2040 0156 C6E7     		b	.L178
 2041              	.L183:
1398:Drivers/STM32F3xx_HAL_Driver/Src/stm32f3xx_hal_can.c ****   }
 2042              		.loc 1 1398 0
 2043 0158 1223     		movs	r3, #18
 2044 015a 80F83930 		strb	r3, [r0, #57]
 2045 015e CAE7     		b	.L180
 2046              		.cfi_endproc
 2047              	.LFE142:
 2049              		.section	.text.HAL_CAN_ErrorCallback,"ax",%progbits
 2050              		.align	1
 2051              		.weak	HAL_CAN_ErrorCallback
 2052              		.syntax unified
 2053              		.thumb
 2054              		.thumb_func
 2055              		.fpu fpv4-sp-d16
 2057              	HAL_CAN_ErrorCallback:
 2058              	.LFB138:
1212:Drivers/STM32F3xx_HAL_Driver/Src/stm32f3xx_hal_can.c ****   /* Prevent unused argument(s) compilation warning */
 2059              		.loc 1 1212 0
 2060              		.cfi_startproc
 2061              		@ args = 0, pretend = 0, frame = 0
 2062              		@ frame_needed = 0, uses_anonymous_args = 0
 2063              		@ link register save eliminated.
 2064              	.LVL107:
 2065 0000 7047     		bx	lr
 2066              		.cfi_endproc
 2067              	.LFE138:
 2069              		.section	.text.HAL_CAN_IRQHandler,"ax",%progbits
 2070              		.align	1
 2071              		.global	HAL_CAN_IRQHandler
 2072              		.syntax unified
 2073              		.thumb
 2074              		.thumb_func
 2075              		.fpu fpv4-sp-d16
 2077              	HAL_CAN_IRQHandler:
 2078              	.LFB135:
1063:Drivers/STM32F3xx_HAL_Driver/Src/stm32f3xx_hal_can.c ****   /* Check End of transmission flag */
 2079              		.loc 1 1063 0
 2080              		.cfi_startproc
 2081              		@ args = 0, pretend = 0, frame = 0
 2082              		@ frame_needed = 0, uses_anonymous_args = 0
 2083              	.LVL108:
1063:Drivers/STM32F3xx_HAL_Driver/Src/stm32f3xx_hal_can.c ****   /* Check End of transmission flag */
ARM GAS  /var/folders/p7/nwmyw04531jbkqkgv59cx10h0000gn/T//ccKbzw64.s 			page 65


 2084              		.loc 1 1063 0
 2085 0000 10B5     		push	{r4, lr}
 2086              	.LCFI21:
 2087              		.cfi_def_cfa_offset 8
 2088              		.cfi_offset 4, -8
 2089              		.cfi_offset 14, -4
 2090 0002 0446     		mov	r4, r0
1065:Drivers/STM32F3xx_HAL_Driver/Src/stm32f3xx_hal_can.c ****   {
 2091              		.loc 1 1065 0
 2092 0004 0368     		ldr	r3, [r0]
 2093 0006 5A69     		ldr	r2, [r3, #20]
 2094 0008 12F0010F 		tst	r2, #1
 2095 000c 0ED0     		beq	.L186
1067:Drivers/STM32F3xx_HAL_Driver/Src/stm32f3xx_hal_can.c ****        (__HAL_CAN_TRANSMIT_STATUS(hcan, CAN_TXMAILBOX_1)) ||
 2096              		.loc 1 1067 0
 2097 000e 9968     		ldr	r1, [r3, #8]
 2098 0010 534A     		ldr	r2, .L208
 2099 0012 8A43     		bics	r2, r2, r1
 2100 0014 07D0     		beq	.L187
1068:Drivers/STM32F3xx_HAL_Driver/Src/stm32f3xx_hal_can.c ****        (__HAL_CAN_TRANSMIT_STATUS(hcan, CAN_TXMAILBOX_2)))
 2101              		.loc 1 1068 0 discriminator 1
 2102 0016 9968     		ldr	r1, [r3, #8]
1067:Drivers/STM32F3xx_HAL_Driver/Src/stm32f3xx_hal_can.c ****        (__HAL_CAN_TRANSMIT_STATUS(hcan, CAN_TXMAILBOX_1)) ||
 2103              		.loc 1 1067 0 discriminator 1
 2104 0018 524A     		ldr	r2, .L208+4
 2105 001a 8A43     		bics	r2, r2, r1
 2106 001c 03D0     		beq	.L187
1069:Drivers/STM32F3xx_HAL_Driver/Src/stm32f3xx_hal_can.c ****     {
 2107              		.loc 1 1069 0
 2108 001e 9A68     		ldr	r2, [r3, #8]
1068:Drivers/STM32F3xx_HAL_Driver/Src/stm32f3xx_hal_can.c ****        (__HAL_CAN_TRANSMIT_STATUS(hcan, CAN_TXMAILBOX_2)))
 2109              		.loc 1 1068 0
 2110 0020 514B     		ldr	r3, .L208+8
 2111 0022 9343     		bics	r3, r3, r2
 2112 0024 02D1     		bne	.L186
 2113              	.L187:
1072:Drivers/STM32F3xx_HAL_Driver/Src/stm32f3xx_hal_can.c ****     }
 2114              		.loc 1 1072 0
 2115 0026 2046     		mov	r0, r4
 2116              	.LVL109:
 2117 0028 FFF7FEFF 		bl	CAN_Transmit_IT
 2118              	.LVL110:
 2119              	.L186:
1077:Drivers/STM32F3xx_HAL_Driver/Src/stm32f3xx_hal_can.c ****      (__HAL_CAN_MSG_PENDING(hcan, CAN_FIFO0) != 0U))
 2120              		.loc 1 1077 0
 2121 002c 2368     		ldr	r3, [r4]
 2122 002e 5A69     		ldr	r2, [r3, #20]
 2123 0030 12F0020F 		tst	r2, #2
 2124 0034 03D0     		beq	.L188
1078:Drivers/STM32F3xx_HAL_Driver/Src/stm32f3xx_hal_can.c ****   {
 2125              		.loc 1 1078 0 discriminator 1
 2126 0036 DB68     		ldr	r3, [r3, #12]
1077:Drivers/STM32F3xx_HAL_Driver/Src/stm32f3xx_hal_can.c ****      (__HAL_CAN_MSG_PENDING(hcan, CAN_FIFO0) != 0U))
 2127              		.loc 1 1077 0 discriminator 1
 2128 0038 13F0030F 		tst	r3, #3
 2129 003c 56D1     		bne	.L204
 2130              	.L188:
ARM GAS  /var/folders/p7/nwmyw04531jbkqkgv59cx10h0000gn/T//ccKbzw64.s 			page 66


1085:Drivers/STM32F3xx_HAL_Driver/Src/stm32f3xx_hal_can.c ****      (__HAL_CAN_MSG_PENDING(hcan, CAN_FIFO1) != 0U))
 2131              		.loc 1 1085 0
 2132 003e 2368     		ldr	r3, [r4]
 2133 0040 5A69     		ldr	r2, [r3, #20]
 2134 0042 12F0100F 		tst	r2, #16
 2135 0046 03D0     		beq	.L189
1086:Drivers/STM32F3xx_HAL_Driver/Src/stm32f3xx_hal_can.c ****   {
 2136              		.loc 1 1086 0 discriminator 1
 2137 0048 1B69     		ldr	r3, [r3, #16]
1085:Drivers/STM32F3xx_HAL_Driver/Src/stm32f3xx_hal_can.c ****      (__HAL_CAN_MSG_PENDING(hcan, CAN_FIFO1) != 0U))
 2138              		.loc 1 1085 0 discriminator 1
 2139 004a 13F0030F 		tst	r3, #3
 2140 004e 52D1     		bne	.L205
 2141              	.L189:
1093:Drivers/STM32F3xx_HAL_Driver/Src/stm32f3xx_hal_can.c ****      (__HAL_CAN_GET_IT_SOURCE(hcan, CAN_IT_EWG)) &&
 2142              		.loc 1 1093 0
 2143 0050 2368     		ldr	r3, [r4]
 2144 0052 9A69     		ldr	r2, [r3, #24]
 2145 0054 12F0010F 		tst	r2, #1
 2146 0058 0BD0     		beq	.L190
1094:Drivers/STM32F3xx_HAL_Driver/Src/stm32f3xx_hal_can.c ****      (__HAL_CAN_GET_IT_SOURCE(hcan, CAN_IT_ERR)))
 2147              		.loc 1 1094 0 discriminator 1
 2148 005a 5A69     		ldr	r2, [r3, #20]
1093:Drivers/STM32F3xx_HAL_Driver/Src/stm32f3xx_hal_can.c ****      (__HAL_CAN_GET_IT_SOURCE(hcan, CAN_IT_EWG)) &&
 2149              		.loc 1 1093 0 discriminator 1
 2150 005c 12F4807F 		tst	r2, #256
 2151 0060 07D0     		beq	.L190
1095:Drivers/STM32F3xx_HAL_Driver/Src/stm32f3xx_hal_can.c ****   {
 2152              		.loc 1 1095 0
 2153 0062 5A69     		ldr	r2, [r3, #20]
1094:Drivers/STM32F3xx_HAL_Driver/Src/stm32f3xx_hal_can.c ****      (__HAL_CAN_GET_IT_SOURCE(hcan, CAN_IT_ERR)))
 2154              		.loc 1 1094 0
 2155 0064 12F4004F 		tst	r2, #32768
 2156 0068 03D0     		beq	.L190
1098:Drivers/STM32F3xx_HAL_Driver/Src/stm32f3xx_hal_can.c ****     /* No need for clear of Error Warning Flag as read-only */
 2157              		.loc 1 1098 0
 2158 006a E26B     		ldr	r2, [r4, #60]
 2159 006c 42F00102 		orr	r2, r2, #1
 2160 0070 E263     		str	r2, [r4, #60]
 2161              	.L190:
1103:Drivers/STM32F3xx_HAL_Driver/Src/stm32f3xx_hal_can.c ****      (__HAL_CAN_GET_IT_SOURCE(hcan, CAN_IT_EPV)) &&
 2162              		.loc 1 1103 0
 2163 0072 9A69     		ldr	r2, [r3, #24]
 2164 0074 12F0020F 		tst	r2, #2
 2165 0078 0BD0     		beq	.L191
1104:Drivers/STM32F3xx_HAL_Driver/Src/stm32f3xx_hal_can.c ****      (__HAL_CAN_GET_IT_SOURCE(hcan, CAN_IT_ERR)))
 2166              		.loc 1 1104 0 discriminator 1
 2167 007a 5A69     		ldr	r2, [r3, #20]
1103:Drivers/STM32F3xx_HAL_Driver/Src/stm32f3xx_hal_can.c ****      (__HAL_CAN_GET_IT_SOURCE(hcan, CAN_IT_EPV)) &&
 2168              		.loc 1 1103 0 discriminator 1
 2169 007c 12F4007F 		tst	r2, #512
 2170 0080 07D0     		beq	.L191
1105:Drivers/STM32F3xx_HAL_Driver/Src/stm32f3xx_hal_can.c ****   {
 2171              		.loc 1 1105 0
 2172 0082 5A69     		ldr	r2, [r3, #20]
1104:Drivers/STM32F3xx_HAL_Driver/Src/stm32f3xx_hal_can.c ****      (__HAL_CAN_GET_IT_SOURCE(hcan, CAN_IT_ERR)))
 2173              		.loc 1 1104 0
ARM GAS  /var/folders/p7/nwmyw04531jbkqkgv59cx10h0000gn/T//ccKbzw64.s 			page 67


 2174 0084 12F4004F 		tst	r2, #32768
 2175 0088 03D0     		beq	.L191
1108:Drivers/STM32F3xx_HAL_Driver/Src/stm32f3xx_hal_can.c ****     /* No need for clear of Error Passive Flag as read-only */ 
 2176              		.loc 1 1108 0
 2177 008a E26B     		ldr	r2, [r4, #60]
 2178 008c 42F00202 		orr	r2, r2, #2
 2179 0090 E263     		str	r2, [r4, #60]
 2180              	.L191:
1113:Drivers/STM32F3xx_HAL_Driver/Src/stm32f3xx_hal_can.c ****      (__HAL_CAN_GET_IT_SOURCE(hcan, CAN_IT_BOF)) &&
 2181              		.loc 1 1113 0
 2182 0092 9A69     		ldr	r2, [r3, #24]
 2183 0094 12F0040F 		tst	r2, #4
 2184 0098 0BD0     		beq	.L192
1114:Drivers/STM32F3xx_HAL_Driver/Src/stm32f3xx_hal_can.c ****      (__HAL_CAN_GET_IT_SOURCE(hcan, CAN_IT_ERR)))
 2185              		.loc 1 1114 0 discriminator 1
 2186 009a 5A69     		ldr	r2, [r3, #20]
1113:Drivers/STM32F3xx_HAL_Driver/Src/stm32f3xx_hal_can.c ****      (__HAL_CAN_GET_IT_SOURCE(hcan, CAN_IT_BOF)) &&
 2187              		.loc 1 1113 0 discriminator 1
 2188 009c 12F4806F 		tst	r2, #1024
 2189 00a0 07D0     		beq	.L192
1115:Drivers/STM32F3xx_HAL_Driver/Src/stm32f3xx_hal_can.c ****   {
 2190              		.loc 1 1115 0
 2191 00a2 5A69     		ldr	r2, [r3, #20]
1114:Drivers/STM32F3xx_HAL_Driver/Src/stm32f3xx_hal_can.c ****      (__HAL_CAN_GET_IT_SOURCE(hcan, CAN_IT_ERR)))
 2192              		.loc 1 1114 0
 2193 00a4 12F4004F 		tst	r2, #32768
 2194 00a8 03D0     		beq	.L192
1118:Drivers/STM32F3xx_HAL_Driver/Src/stm32f3xx_hal_can.c ****     /* No need for clear of Bus-Off Flag as read-only */
 2195              		.loc 1 1118 0
 2196 00aa E26B     		ldr	r2, [r4, #60]
 2197 00ac 42F00402 		orr	r2, r2, #4
 2198 00b0 E263     		str	r2, [r4, #60]
 2199              	.L192:
1123:Drivers/STM32F3xx_HAL_Driver/Src/stm32f3xx_hal_can.c ****      (__HAL_CAN_GET_IT_SOURCE(hcan, CAN_IT_LEC))         &&
 2200              		.loc 1 1123 0
 2201 00b2 9A69     		ldr	r2, [r3, #24]
 2202 00b4 12F0700F 		tst	r2, #112
 2203 00b8 33D0     		beq	.L193
1124:Drivers/STM32F3xx_HAL_Driver/Src/stm32f3xx_hal_can.c ****      (__HAL_CAN_GET_IT_SOURCE(hcan, CAN_IT_ERR)))
 2204              		.loc 1 1124 0 discriminator 1
 2205 00ba 5A69     		ldr	r2, [r3, #20]
1123:Drivers/STM32F3xx_HAL_Driver/Src/stm32f3xx_hal_can.c ****      (__HAL_CAN_GET_IT_SOURCE(hcan, CAN_IT_LEC))         &&
 2206              		.loc 1 1123 0 discriminator 1
 2207 00bc 12F4006F 		tst	r2, #2048
 2208 00c0 2FD0     		beq	.L193
1125:Drivers/STM32F3xx_HAL_Driver/Src/stm32f3xx_hal_can.c ****   {
 2209              		.loc 1 1125 0
 2210 00c2 5A69     		ldr	r2, [r3, #20]
1124:Drivers/STM32F3xx_HAL_Driver/Src/stm32f3xx_hal_can.c ****      (__HAL_CAN_GET_IT_SOURCE(hcan, CAN_IT_ERR)))
 2211              		.loc 1 1124 0
 2212 00c4 12F4004F 		tst	r2, #32768
 2213 00c8 2BD0     		beq	.L193
1127:Drivers/STM32F3xx_HAL_Driver/Src/stm32f3xx_hal_can.c ****     {
 2214              		.loc 1 1127 0
 2215 00ca 9A69     		ldr	r2, [r3, #24]
 2216 00cc 02F07002 		and	r2, r2, #112
 2217 00d0 302A     		cmp	r2, #48
ARM GAS  /var/folders/p7/nwmyw04531jbkqkgv59cx10h0000gn/T//ccKbzw64.s 			page 68


 2218 00d2 29D0     		beq	.L195
 2219 00d4 14D9     		bls	.L206
 2220 00d6 502A     		cmp	r2, #80
 2221 00d8 2BD0     		beq	.L199
 2222 00da 602A     		cmp	r2, #96
 2223 00dc 2ED0     		beq	.L200
 2224 00de 402A     		cmp	r2, #64
 2225 00e0 1BD1     		bne	.L194
1143:Drivers/STM32F3xx_HAL_Driver/Src/stm32f3xx_hal_can.c ****           break;
 2226              		.loc 1 1143 0
 2227 00e2 E26B     		ldr	r2, [r4, #60]
 2228 00e4 42F04002 		orr	r2, r2, #64
 2229 00e8 E263     		str	r2, [r4, #60]
1144:Drivers/STM32F3xx_HAL_Driver/Src/stm32f3xx_hal_can.c ****       case(CAN_ESR_LEC_2 | CAN_ESR_LEC_0):
 2230              		.loc 1 1144 0
 2231 00ea 16E0     		b	.L194
 2232              	.L204:
1081:Drivers/STM32F3xx_HAL_Driver/Src/stm32f3xx_hal_can.c ****   }
 2233              		.loc 1 1081 0
 2234 00ec 0021     		movs	r1, #0
 2235 00ee 2046     		mov	r0, r4
 2236 00f0 FFF7FEFF 		bl	CAN_Receive_IT
 2237              	.LVL111:
 2238 00f4 A3E7     		b	.L188
 2239              	.L205:
1089:Drivers/STM32F3xx_HAL_Driver/Src/stm32f3xx_hal_can.c ****   }
 2240              		.loc 1 1089 0
 2241 00f6 0121     		movs	r1, #1
 2242 00f8 2046     		mov	r0, r4
 2243 00fa FFF7FEFF 		bl	CAN_Receive_IT
 2244              	.LVL112:
 2245 00fe A7E7     		b	.L189
 2246              	.L206:
1127:Drivers/STM32F3xx_HAL_Driver/Src/stm32f3xx_hal_can.c ****     {
 2247              		.loc 1 1127 0
 2248 0100 102A     		cmp	r2, #16
 2249 0102 06D0     		beq	.L197
 2250 0104 202A     		cmp	r2, #32
 2251 0106 08D1     		bne	.L194
1135:Drivers/STM32F3xx_HAL_Driver/Src/stm32f3xx_hal_can.c ****           break;
 2252              		.loc 1 1135 0
 2253 0108 E26B     		ldr	r2, [r4, #60]
 2254 010a 42F01002 		orr	r2, r2, #16
 2255 010e E263     		str	r2, [r4, #60]
1136:Drivers/STM32F3xx_HAL_Driver/Src/stm32f3xx_hal_can.c ****       case(CAN_ESR_LEC_1 | CAN_ESR_LEC_0):
 2256              		.loc 1 1136 0
 2257 0110 03E0     		b	.L194
 2258              	.L197:
1131:Drivers/STM32F3xx_HAL_Driver/Src/stm32f3xx_hal_can.c ****           break;
 2259              		.loc 1 1131 0
 2260 0112 E26B     		ldr	r2, [r4, #60]
 2261 0114 42F00802 		orr	r2, r2, #8
 2262 0118 E263     		str	r2, [r4, #60]
 2263              	.L194:
1158:Drivers/STM32F3xx_HAL_Driver/Src/stm32f3xx_hal_can.c ****   }
 2264              		.loc 1 1158 0
 2265 011a 9A69     		ldr	r2, [r3, #24]
ARM GAS  /var/folders/p7/nwmyw04531jbkqkgv59cx10h0000gn/T//ccKbzw64.s 			page 69


 2266 011c 22F07002 		bic	r2, r2, #112
 2267 0120 9A61     		str	r2, [r3, #24]
 2268              	.L193:
1162:Drivers/STM32F3xx_HAL_Driver/Src/stm32f3xx_hal_can.c ****   {
 2269              		.loc 1 1162 0
 2270 0122 E36B     		ldr	r3, [r4, #60]
 2271 0124 7BB9     		cbnz	r3, .L207
 2272              	.L185:
 2273 0126 10BD     		pop	{r4, pc}
 2274              	.LVL113:
 2275              	.L195:
1139:Drivers/STM32F3xx_HAL_Driver/Src/stm32f3xx_hal_can.c ****           break;
 2276              		.loc 1 1139 0
 2277 0128 E26B     		ldr	r2, [r4, #60]
 2278 012a 42F02002 		orr	r2, r2, #32
 2279 012e E263     		str	r2, [r4, #60]
1140:Drivers/STM32F3xx_HAL_Driver/Src/stm32f3xx_hal_can.c ****       case(CAN_ESR_LEC_2):
 2280              		.loc 1 1140 0
 2281 0130 F3E7     		b	.L194
 2282              	.L199:
1147:Drivers/STM32F3xx_HAL_Driver/Src/stm32f3xx_hal_can.c ****           break;
 2283              		.loc 1 1147 0
 2284 0132 E26B     		ldr	r2, [r4, #60]
 2285 0134 42F08002 		orr	r2, r2, #128
 2286 0138 E263     		str	r2, [r4, #60]
1148:Drivers/STM32F3xx_HAL_Driver/Src/stm32f3xx_hal_can.c ****       case(CAN_ESR_LEC_2 | CAN_ESR_LEC_1):
 2287              		.loc 1 1148 0
 2288 013a EEE7     		b	.L194
 2289              	.L200:
1151:Drivers/STM32F3xx_HAL_Driver/Src/stm32f3xx_hal_can.c ****           break;
 2290              		.loc 1 1151 0
 2291 013c E26B     		ldr	r2, [r4, #60]
 2292 013e 42F48072 		orr	r2, r2, #256
 2293 0142 E263     		str	r2, [r4, #60]
1152:Drivers/STM32F3xx_HAL_Driver/Src/stm32f3xx_hal_can.c ****       default:
 2294              		.loc 1 1152 0
 2295 0144 E9E7     		b	.L194
 2296              	.L207:
1165:Drivers/STM32F3xx_HAL_Driver/Src/stm32f3xx_hal_can.c ****     /* Set the CAN state ready to be able to start again the process */
 2297              		.loc 1 1165 0
 2298 0146 2268     		ldr	r2, [r4]
 2299 0148 5368     		ldr	r3, [r2, #4]
 2300 014a 43F00403 		orr	r3, r3, #4
 2301 014e 5360     		str	r3, [r2, #4]
1167:Drivers/STM32F3xx_HAL_Driver/Src/stm32f3xx_hal_can.c ****     /* Call Error callback function */
 2302              		.loc 1 1167 0
 2303 0150 0123     		movs	r3, #1
 2304 0152 84F83930 		strb	r3, [r4, #57]
1169:Drivers/STM32F3xx_HAL_Driver/Src/stm32f3xx_hal_can.c ****   }  
 2305              		.loc 1 1169 0
 2306 0156 2046     		mov	r0, r4
 2307 0158 FFF7FEFF 		bl	HAL_CAN_ErrorCallback
 2308              	.LVL114:
1171:Drivers/STM32F3xx_HAL_Driver/Src/stm32f3xx_hal_can.c **** 
 2309              		.loc 1 1171 0
 2310 015c E3E7     		b	.L185
 2311              	.L209:
ARM GAS  /var/folders/p7/nwmyw04531jbkqkgv59cx10h0000gn/T//ccKbzw64.s 			page 70


 2312 015e 00BF     		.align	2
 2313              	.L208:
 2314 0160 03000004 		.word	67108867
 2315 0164 00030008 		.word	134218496
 2316 0168 00000310 		.word	268632064
 2317              		.cfi_endproc
 2318              	.LFE135:
 2320              		.section	.text.HAL_CAN_GetState,"ax",%progbits
 2321              		.align	1
 2322              		.global	HAL_CAN_GetState
 2323              		.syntax unified
 2324              		.thumb
 2325              		.thumb_func
 2326              		.fpu fpv4-sp-d16
 2328              	HAL_CAN_GetState:
 2329              	.LFB139:
1248:Drivers/STM32F3xx_HAL_Driver/Src/stm32f3xx_hal_can.c ****   /* Return CAN state */
 2330              		.loc 1 1248 0
 2331              		.cfi_startproc
 2332              		@ args = 0, pretend = 0, frame = 0
 2333              		@ frame_needed = 0, uses_anonymous_args = 0
 2334              		@ link register save eliminated.
 2335              	.LVL115:
1250:Drivers/STM32F3xx_HAL_Driver/Src/stm32f3xx_hal_can.c **** }
 2336              		.loc 1 1250 0
 2337 0000 90F83900 		ldrb	r0, [r0, #57]	@ zero_extendqisi2
 2338              	.LVL116:
1251:Drivers/STM32F3xx_HAL_Driver/Src/stm32f3xx_hal_can.c **** 
 2339              		.loc 1 1251 0
 2340 0004 7047     		bx	lr
 2341              		.cfi_endproc
 2342              	.LFE139:
 2344              		.section	.text.HAL_CAN_GetError,"ax",%progbits
 2345              		.align	1
 2346              		.global	HAL_CAN_GetError
 2347              		.syntax unified
 2348              		.thumb
 2349              		.thumb_func
 2350              		.fpu fpv4-sp-d16
 2352              	HAL_CAN_GetError:
 2353              	.LFB140:
1260:Drivers/STM32F3xx_HAL_Driver/Src/stm32f3xx_hal_can.c ****   return hcan->ErrorCode;
 2354              		.loc 1 1260 0
 2355              		.cfi_startproc
 2356              		@ args = 0, pretend = 0, frame = 0
 2357              		@ frame_needed = 0, uses_anonymous_args = 0
 2358              		@ link register save eliminated.
 2359              	.LVL117:
1261:Drivers/STM32F3xx_HAL_Driver/Src/stm32f3xx_hal_can.c **** }
 2360              		.loc 1 1261 0
 2361 0000 C06B     		ldr	r0, [r0, #60]
 2362              	.LVL118:
1262:Drivers/STM32F3xx_HAL_Driver/Src/stm32f3xx_hal_can.c **** 
 2363              		.loc 1 1262 0
 2364 0002 7047     		bx	lr
 2365              		.cfi_endproc
 2366              	.LFE140:
ARM GAS  /var/folders/p7/nwmyw04531jbkqkgv59cx10h0000gn/T//ccKbzw64.s 			page 71


 2368              		.text
 2369              	.Letext0:
 2370              		.file 2 "/usr/local/Caskroom/gcc-arm-embedded/6-2017-q1-update/gcc-arm-none-eabi-6-2017-q1-update/
 2371              		.file 3 "/usr/local/Caskroom/gcc-arm-embedded/6-2017-q1-update/gcc-arm-none-eabi-6-2017-q1-update/
 2372              		.file 4 "Drivers/CMSIS/Include/core_cm4.h"
 2373              		.file 5 "Drivers/CMSIS/Device/ST/STM32F3xx/Include/system_stm32f3xx.h"
 2374              		.file 6 "Drivers/CMSIS/Device/ST/STM32F3xx/Include/stm32f334x8.h"
 2375              		.file 7 "Drivers/CMSIS/Device/ST/STM32F3xx/Include/stm32f3xx.h"
 2376              		.file 8 "/usr/local/Caskroom/gcc-arm-embedded/6-2017-q1-update/gcc-arm-none-eabi-6-2017-q1-update/
 2377              		.file 9 "/usr/local/Caskroom/gcc-arm-embedded/6-2017-q1-update/gcc-arm-none-eabi-6-2017-q1-update/
 2378              		.file 10 "/usr/local/Caskroom/gcc-arm-embedded/6-2017-q1-update/gcc-arm-none-eabi-6-2017-q1-update
 2379              		.file 11 "/usr/local/Caskroom/gcc-arm-embedded/6-2017-q1-update/gcc-arm-none-eabi-6-2017-q1-update
 2380              		.file 12 "Drivers/STM32F3xx_HAL_Driver/Inc/stm32f3xx_hal_def.h"
 2381              		.file 13 "Drivers/STM32F3xx_HAL_Driver/Inc/stm32f3xx_hal_can.h"
 2382              		.file 14 "Drivers/STM32F3xx_HAL_Driver/Inc/stm32f3xx_hal.h"
ARM GAS  /var/folders/p7/nwmyw04531jbkqkgv59cx10h0000gn/T//ccKbzw64.s 			page 72

