ARM GAS  /var/folders/p7/nwmyw04531jbkqkgv59cx10h0000gn/T//cchGdzVf.s 			page 1


   1              		.cpu cortex-m4
   2              		.eabi_attribute 27, 1
   3              		.eabi_attribute 28, 1
   4              		.eabi_attribute 20, 1
   5              		.eabi_attribute 21, 1
   6              		.eabi_attribute 23, 3
   7              		.eabi_attribute 24, 1
   8              		.eabi_attribute 25, 1
   9              		.eabi_attribute 26, 1
  10              		.eabi_attribute 30, 1
  11              		.eabi_attribute 34, 1
  12              		.eabi_attribute 18, 4
  13              		.file	"stm32f3xx_hal_rtc_ex.c"
  14              		.text
  15              	.Ltext0:
  16              		.cfi_sections	.debug_frame
  17              		.section	.text.HAL_RTCEx_SetTimeStamp,"ax",%progbits
  18              		.align	1
  19              		.global	HAL_RTCEx_SetTimeStamp
  20              		.syntax unified
  21              		.thumb
  22              		.thumb_func
  23              		.fpu fpv4-sp-d16
  25              	HAL_RTCEx_SetTimeStamp:
  26              	.LFB124:
  27              		.file 1 "Drivers/STM32F3xx_HAL_Driver/Src/stm32f3xx_hal_rtc_ex.c"
   1:Drivers/STM32F3xx_HAL_Driver/Src/stm32f3xx_hal_rtc_ex.c **** /**
   2:Drivers/STM32F3xx_HAL_Driver/Src/stm32f3xx_hal_rtc_ex.c ****   ******************************************************************************
   3:Drivers/STM32F3xx_HAL_Driver/Src/stm32f3xx_hal_rtc_ex.c ****   * @file    stm32f3xx_hal_rtc_ex.c
   4:Drivers/STM32F3xx_HAL_Driver/Src/stm32f3xx_hal_rtc_ex.c ****   * @author  MCD Application Team
   5:Drivers/STM32F3xx_HAL_Driver/Src/stm32f3xx_hal_rtc_ex.c ****   * @version V1.4.0
   6:Drivers/STM32F3xx_HAL_Driver/Src/stm32f3xx_hal_rtc_ex.c ****   * @date    16-December-2016
   7:Drivers/STM32F3xx_HAL_Driver/Src/stm32f3xx_hal_rtc_ex.c ****   * @brief   Extended RTC HAL module driver.
   8:Drivers/STM32F3xx_HAL_Driver/Src/stm32f3xx_hal_rtc_ex.c ****   *          This file provides firmware functions to manage the following 
   9:Drivers/STM32F3xx_HAL_Driver/Src/stm32f3xx_hal_rtc_ex.c ****   *          functionalities of the Real Time Clock (RTC) Extended peripheral:
  10:Drivers/STM32F3xx_HAL_Driver/Src/stm32f3xx_hal_rtc_ex.c ****   *           + RTC Time Stamp functions
  11:Drivers/STM32F3xx_HAL_Driver/Src/stm32f3xx_hal_rtc_ex.c ****   *           + RTC Tamper functions 
  12:Drivers/STM32F3xx_HAL_Driver/Src/stm32f3xx_hal_rtc_ex.c ****   *           + RTC Wake-up functions
  13:Drivers/STM32F3xx_HAL_Driver/Src/stm32f3xx_hal_rtc_ex.c ****   *           + Extended Control functions
  14:Drivers/STM32F3xx_HAL_Driver/Src/stm32f3xx_hal_rtc_ex.c ****   *           + Extended RTC features functions    
  15:Drivers/STM32F3xx_HAL_Driver/Src/stm32f3xx_hal_rtc_ex.c ****   *
  16:Drivers/STM32F3xx_HAL_Driver/Src/stm32f3xx_hal_rtc_ex.c ****   @verbatim
  17:Drivers/STM32F3xx_HAL_Driver/Src/stm32f3xx_hal_rtc_ex.c ****   ==============================================================================
  18:Drivers/STM32F3xx_HAL_Driver/Src/stm32f3xx_hal_rtc_ex.c ****                   ##### How to use this driver #####
  19:Drivers/STM32F3xx_HAL_Driver/Src/stm32f3xx_hal_rtc_ex.c ****   ==============================================================================
  20:Drivers/STM32F3xx_HAL_Driver/Src/stm32f3xx_hal_rtc_ex.c ****   [..] 
  21:Drivers/STM32F3xx_HAL_Driver/Src/stm32f3xx_hal_rtc_ex.c ****     (+) Enable the RTC domain access.
  22:Drivers/STM32F3xx_HAL_Driver/Src/stm32f3xx_hal_rtc_ex.c ****     (+) Configure the RTC Prescaler (Asynchronous and Synchronous) and RTC hour 
  23:Drivers/STM32F3xx_HAL_Driver/Src/stm32f3xx_hal_rtc_ex.c ****         format using the HAL_RTC_Init() function.
  24:Drivers/STM32F3xx_HAL_Driver/Src/stm32f3xx_hal_rtc_ex.c ****   
  25:Drivers/STM32F3xx_HAL_Driver/Src/stm32f3xx_hal_rtc_ex.c ****   *** RTC Wakeup configuration ***
  26:Drivers/STM32F3xx_HAL_Driver/Src/stm32f3xx_hal_rtc_ex.c ****   ================================
  27:Drivers/STM32F3xx_HAL_Driver/Src/stm32f3xx_hal_rtc_ex.c ****   [..] 
  28:Drivers/STM32F3xx_HAL_Driver/Src/stm32f3xx_hal_rtc_ex.c ****     (+) To configure the RTC Wakeup Clock source and Counter use the HAL_RTCEx_SetWakeUpTimer()
  29:Drivers/STM32F3xx_HAL_Driver/Src/stm32f3xx_hal_rtc_ex.c ****         function. You can also configure the RTC Wakeup timer with interrupt mode 
  30:Drivers/STM32F3xx_HAL_Driver/Src/stm32f3xx_hal_rtc_ex.c ****         using the HAL_RTCEx_SetWakeUpTimer_IT() function.
  31:Drivers/STM32F3xx_HAL_Driver/Src/stm32f3xx_hal_rtc_ex.c ****     (+) To read the RTC WakeUp Counter register, use the HAL_RTCEx_GetWakeUpTimer()
ARM GAS  /var/folders/p7/nwmyw04531jbkqkgv59cx10h0000gn/T//cchGdzVf.s 			page 2


  32:Drivers/STM32F3xx_HAL_Driver/Src/stm32f3xx_hal_rtc_ex.c ****         function.
  33:Drivers/STM32F3xx_HAL_Driver/Src/stm32f3xx_hal_rtc_ex.c ****   
  34:Drivers/STM32F3xx_HAL_Driver/Src/stm32f3xx_hal_rtc_ex.c ****   *** TimeStamp configuration ***
  35:Drivers/STM32F3xx_HAL_Driver/Src/stm32f3xx_hal_rtc_ex.c ****   ===============================
  36:Drivers/STM32F3xx_HAL_Driver/Src/stm32f3xx_hal_rtc_ex.c ****   [..]
  37:Drivers/STM32F3xx_HAL_Driver/Src/stm32f3xx_hal_rtc_ex.c ****         (+) Configure the RTC_AF trigger and enable the RTC TimeStamp using the 
  38:Drivers/STM32F3xx_HAL_Driver/Src/stm32f3xx_hal_rtc_ex.c ****         HAL_RTCEx_SetTimeStamp() function. You can also configure the RTC TimeStamp with
  39:Drivers/STM32F3xx_HAL_Driver/Src/stm32f3xx_hal_rtc_ex.c ****         interrupt mode using the HAL_RTCEx_SetTimeStamp_IT() function.
  40:Drivers/STM32F3xx_HAL_Driver/Src/stm32f3xx_hal_rtc_ex.c ****     (+) To read the RTC TimeStamp Time and Date register, use the HAL_RTCEx_GetTimeStamp()
  41:Drivers/STM32F3xx_HAL_Driver/Src/stm32f3xx_hal_rtc_ex.c ****         function.
  42:Drivers/STM32F3xx_HAL_Driver/Src/stm32f3xx_hal_rtc_ex.c ****     (+) The TIMESTAMP alternate function is mapped to RTC_AF1 (PC13U).
  43:Drivers/STM32F3xx_HAL_Driver/Src/stm32f3xx_hal_rtc_ex.c ****   
  44:Drivers/STM32F3xx_HAL_Driver/Src/stm32f3xx_hal_rtc_ex.c ****   *** Tamper configuration ***
  45:Drivers/STM32F3xx_HAL_Driver/Src/stm32f3xx_hal_rtc_ex.c ****   ============================
  46:Drivers/STM32F3xx_HAL_Driver/Src/stm32f3xx_hal_rtc_ex.c ****   [..]
  47:Drivers/STM32F3xx_HAL_Driver/Src/stm32f3xx_hal_rtc_ex.c ****         (+) Enable the RTC Tamper and configure the Tamper filter count, trigger Edge 
  48:Drivers/STM32F3xx_HAL_Driver/Src/stm32f3xx_hal_rtc_ex.c ****         or Level according to the Tamper filter (if equal to 0 Edge else Level) 
  49:Drivers/STM32F3xx_HAL_Driver/Src/stm32f3xx_hal_rtc_ex.c ****         value, sampling frequency, precharge or discharge and Pull-UP using the 
  50:Drivers/STM32F3xx_HAL_Driver/Src/stm32f3xx_hal_rtc_ex.c ****         HAL_RTCEx_SetTamper() function. You can configure RTC Tamper with interrupt
  51:Drivers/STM32F3xx_HAL_Driver/Src/stm32f3xx_hal_rtc_ex.c ****         mode using HAL_RTCEx_SetTamper_IT() function.
  52:Drivers/STM32F3xx_HAL_Driver/Src/stm32f3xx_hal_rtc_ex.c ****     (+) The TAMPER1 alternate function is mapped to RTC_AF1 (PC13U).
  53:Drivers/STM32F3xx_HAL_Driver/Src/stm32f3xx_hal_rtc_ex.c **** 
  54:Drivers/STM32F3xx_HAL_Driver/Src/stm32f3xx_hal_rtc_ex.c ****   *** Backup Data Registers configuration ***
  55:Drivers/STM32F3xx_HAL_Driver/Src/stm32f3xx_hal_rtc_ex.c ****   ===========================================
  56:Drivers/STM32F3xx_HAL_Driver/Src/stm32f3xx_hal_rtc_ex.c ****   [..]
  57:Drivers/STM32F3xx_HAL_Driver/Src/stm32f3xx_hal_rtc_ex.c ****     (+) To write to the RTC Backup Data registers, use the HAL_RTCEx_BKUPWrite()
  58:Drivers/STM32F3xx_HAL_Driver/Src/stm32f3xx_hal_rtc_ex.c ****         function.  
  59:Drivers/STM32F3xx_HAL_Driver/Src/stm32f3xx_hal_rtc_ex.c ****     (+) To read the RTC Backup Data registers, use the HAL_RTCEx_BKUPRead()
  60:Drivers/STM32F3xx_HAL_Driver/Src/stm32f3xx_hal_rtc_ex.c ****         function.
  61:Drivers/STM32F3xx_HAL_Driver/Src/stm32f3xx_hal_rtc_ex.c ****      
  62:Drivers/STM32F3xx_HAL_Driver/Src/stm32f3xx_hal_rtc_ex.c ****    @endverbatim
  63:Drivers/STM32F3xx_HAL_Driver/Src/stm32f3xx_hal_rtc_ex.c ****   ******************************************************************************
  64:Drivers/STM32F3xx_HAL_Driver/Src/stm32f3xx_hal_rtc_ex.c ****   * @attention
  65:Drivers/STM32F3xx_HAL_Driver/Src/stm32f3xx_hal_rtc_ex.c ****   *
  66:Drivers/STM32F3xx_HAL_Driver/Src/stm32f3xx_hal_rtc_ex.c ****   * <h2><center>&copy; COPYRIGHT(c) 2016 STMicroelectronics</center></h2>
  67:Drivers/STM32F3xx_HAL_Driver/Src/stm32f3xx_hal_rtc_ex.c ****   *
  68:Drivers/STM32F3xx_HAL_Driver/Src/stm32f3xx_hal_rtc_ex.c ****   * Redistribution and use in source and binary forms, with or without modification,
  69:Drivers/STM32F3xx_HAL_Driver/Src/stm32f3xx_hal_rtc_ex.c ****   * are permitted provided that the following conditions are met:
  70:Drivers/STM32F3xx_HAL_Driver/Src/stm32f3xx_hal_rtc_ex.c ****   *   1. Redistributions of source code must retain the above copyright notice,
  71:Drivers/STM32F3xx_HAL_Driver/Src/stm32f3xx_hal_rtc_ex.c ****   *      this list of conditions and the following disclaimer.
  72:Drivers/STM32F3xx_HAL_Driver/Src/stm32f3xx_hal_rtc_ex.c ****   *   2. Redistributions in binary form must reproduce the above copyright notice,
  73:Drivers/STM32F3xx_HAL_Driver/Src/stm32f3xx_hal_rtc_ex.c ****   *      this list of conditions and the following disclaimer in the documentation
  74:Drivers/STM32F3xx_HAL_Driver/Src/stm32f3xx_hal_rtc_ex.c ****   *      and/or other materials provided with the distribution.
  75:Drivers/STM32F3xx_HAL_Driver/Src/stm32f3xx_hal_rtc_ex.c ****   *   3. Neither the name of STMicroelectronics nor the names of its contributors
  76:Drivers/STM32F3xx_HAL_Driver/Src/stm32f3xx_hal_rtc_ex.c ****   *      may be used to endorse or promote products derived from this software
  77:Drivers/STM32F3xx_HAL_Driver/Src/stm32f3xx_hal_rtc_ex.c ****   *      without specific prior written permission.
  78:Drivers/STM32F3xx_HAL_Driver/Src/stm32f3xx_hal_rtc_ex.c ****   *
  79:Drivers/STM32F3xx_HAL_Driver/Src/stm32f3xx_hal_rtc_ex.c ****   * THIS SOFTWARE IS PROVIDED BY THE COPYRIGHT HOLDERS AND CONTRIBUTORS "AS IS"
  80:Drivers/STM32F3xx_HAL_Driver/Src/stm32f3xx_hal_rtc_ex.c ****   * AND ANY EXPRESS OR IMPLIED WARRANTIES, INCLUDING, BUT NOT LIMITED TO, THE
  81:Drivers/STM32F3xx_HAL_Driver/Src/stm32f3xx_hal_rtc_ex.c ****   * IMPLIED WARRANTIES OF MERCHANTABILITY AND FITNESS FOR A PARTICULAR PURPOSE ARE
  82:Drivers/STM32F3xx_HAL_Driver/Src/stm32f3xx_hal_rtc_ex.c ****   * DISCLAIMED. IN NO EVENT SHALL THE COPYRIGHT HOLDER OR CONTRIBUTORS BE LIABLE
  83:Drivers/STM32F3xx_HAL_Driver/Src/stm32f3xx_hal_rtc_ex.c ****   * FOR ANY DIRECT, INDIRECT, INCIDENTAL, SPECIAL, EXEMPLARY, OR CONSEQUENTIAL
  84:Drivers/STM32F3xx_HAL_Driver/Src/stm32f3xx_hal_rtc_ex.c ****   * DAMAGES (INCLUDING, BUT NOT LIMITED TO, PROCUREMENT OF SUBSTITUTE GOODS OR
  85:Drivers/STM32F3xx_HAL_Driver/Src/stm32f3xx_hal_rtc_ex.c ****   * SERVICES; LOSS OF USE, DATA, OR PROFITS; OR BUSINESS INTERRUPTION) HOWEVER
  86:Drivers/STM32F3xx_HAL_Driver/Src/stm32f3xx_hal_rtc_ex.c ****   * CAUSED AND ON ANY THEORY OF LIABILITY, WHETHER IN CONTRACT, STRICT LIABILITY,
  87:Drivers/STM32F3xx_HAL_Driver/Src/stm32f3xx_hal_rtc_ex.c ****   * OR TORT (INCLUDING NEGLIGENCE OR OTHERWISE) ARISING IN ANY WAY OUT OF THE USE
  88:Drivers/STM32F3xx_HAL_Driver/Src/stm32f3xx_hal_rtc_ex.c ****   * OF THIS SOFTWARE, EVEN IF ADVISED OF THE POSSIBILITY OF SUCH DAMAGE.
ARM GAS  /var/folders/p7/nwmyw04531jbkqkgv59cx10h0000gn/T//cchGdzVf.s 			page 3


  89:Drivers/STM32F3xx_HAL_Driver/Src/stm32f3xx_hal_rtc_ex.c ****   *
  90:Drivers/STM32F3xx_HAL_Driver/Src/stm32f3xx_hal_rtc_ex.c ****   ******************************************************************************  
  91:Drivers/STM32F3xx_HAL_Driver/Src/stm32f3xx_hal_rtc_ex.c ****   */ 
  92:Drivers/STM32F3xx_HAL_Driver/Src/stm32f3xx_hal_rtc_ex.c **** 
  93:Drivers/STM32F3xx_HAL_Driver/Src/stm32f3xx_hal_rtc_ex.c **** /* Includes ------------------------------------------------------------------*/
  94:Drivers/STM32F3xx_HAL_Driver/Src/stm32f3xx_hal_rtc_ex.c **** #include "stm32f3xx_hal.h"
  95:Drivers/STM32F3xx_HAL_Driver/Src/stm32f3xx_hal_rtc_ex.c **** 
  96:Drivers/STM32F3xx_HAL_Driver/Src/stm32f3xx_hal_rtc_ex.c **** /** @addtogroup STM32F3xx_HAL_Driver
  97:Drivers/STM32F3xx_HAL_Driver/Src/stm32f3xx_hal_rtc_ex.c ****   * @{
  98:Drivers/STM32F3xx_HAL_Driver/Src/stm32f3xx_hal_rtc_ex.c ****   */
  99:Drivers/STM32F3xx_HAL_Driver/Src/stm32f3xx_hal_rtc_ex.c **** 
 100:Drivers/STM32F3xx_HAL_Driver/Src/stm32f3xx_hal_rtc_ex.c **** 
 101:Drivers/STM32F3xx_HAL_Driver/Src/stm32f3xx_hal_rtc_ex.c **** 
 102:Drivers/STM32F3xx_HAL_Driver/Src/stm32f3xx_hal_rtc_ex.c **** /** @addtogroup RTCEx
 103:Drivers/STM32F3xx_HAL_Driver/Src/stm32f3xx_hal_rtc_ex.c ****   * @brief RTC Extended HAL module driver
 104:Drivers/STM32F3xx_HAL_Driver/Src/stm32f3xx_hal_rtc_ex.c ****   * @{
 105:Drivers/STM32F3xx_HAL_Driver/Src/stm32f3xx_hal_rtc_ex.c ****   */
 106:Drivers/STM32F3xx_HAL_Driver/Src/stm32f3xx_hal_rtc_ex.c **** 
 107:Drivers/STM32F3xx_HAL_Driver/Src/stm32f3xx_hal_rtc_ex.c **** #ifdef HAL_RTC_MODULE_ENABLED
 108:Drivers/STM32F3xx_HAL_Driver/Src/stm32f3xx_hal_rtc_ex.c **** 
 109:Drivers/STM32F3xx_HAL_Driver/Src/stm32f3xx_hal_rtc_ex.c **** /* Private typedef -----------------------------------------------------------*/
 110:Drivers/STM32F3xx_HAL_Driver/Src/stm32f3xx_hal_rtc_ex.c **** /* Private define ------------------------------------------------------------*/
 111:Drivers/STM32F3xx_HAL_Driver/Src/stm32f3xx_hal_rtc_ex.c **** /* Private macro -------------------------------------------------------------*/
 112:Drivers/STM32F3xx_HAL_Driver/Src/stm32f3xx_hal_rtc_ex.c **** /* Private variables ---------------------------------------------------------*/
 113:Drivers/STM32F3xx_HAL_Driver/Src/stm32f3xx_hal_rtc_ex.c **** /* Private function prototypes -----------------------------------------------*/
 114:Drivers/STM32F3xx_HAL_Driver/Src/stm32f3xx_hal_rtc_ex.c **** /* Exported functions ---------------------------------------------------------*/
 115:Drivers/STM32F3xx_HAL_Driver/Src/stm32f3xx_hal_rtc_ex.c **** 
 116:Drivers/STM32F3xx_HAL_Driver/Src/stm32f3xx_hal_rtc_ex.c **** /** @addtogroup RTCEx_Exported_Functions
 117:Drivers/STM32F3xx_HAL_Driver/Src/stm32f3xx_hal_rtc_ex.c ****   * @{
 118:Drivers/STM32F3xx_HAL_Driver/Src/stm32f3xx_hal_rtc_ex.c ****   */
 119:Drivers/STM32F3xx_HAL_Driver/Src/stm32f3xx_hal_rtc_ex.c ****   
 120:Drivers/STM32F3xx_HAL_Driver/Src/stm32f3xx_hal_rtc_ex.c **** 
 121:Drivers/STM32F3xx_HAL_Driver/Src/stm32f3xx_hal_rtc_ex.c **** /** @addtogroup RTCEx_Exported_Functions_Group1
 122:Drivers/STM32F3xx_HAL_Driver/Src/stm32f3xx_hal_rtc_ex.c ****  *  @brief   RTC TimeStamp and Tamper functions
 123:Drivers/STM32F3xx_HAL_Driver/Src/stm32f3xx_hal_rtc_ex.c ****  *
 124:Drivers/STM32F3xx_HAL_Driver/Src/stm32f3xx_hal_rtc_ex.c **** @verbatim   
 125:Drivers/STM32F3xx_HAL_Driver/Src/stm32f3xx_hal_rtc_ex.c ****  ===============================================================================
 126:Drivers/STM32F3xx_HAL_Driver/Src/stm32f3xx_hal_rtc_ex.c ****                  ##### RTC TimeStamp and Tamper functions #####
 127:Drivers/STM32F3xx_HAL_Driver/Src/stm32f3xx_hal_rtc_ex.c ****  ===============================================================================  
 128:Drivers/STM32F3xx_HAL_Driver/Src/stm32f3xx_hal_rtc_ex.c ****  
 129:Drivers/STM32F3xx_HAL_Driver/Src/stm32f3xx_hal_rtc_ex.c ****  [..] This section provides functions allowing to configure TimeStamp feature
 130:Drivers/STM32F3xx_HAL_Driver/Src/stm32f3xx_hal_rtc_ex.c **** 
 131:Drivers/STM32F3xx_HAL_Driver/Src/stm32f3xx_hal_rtc_ex.c **** @endverbatim
 132:Drivers/STM32F3xx_HAL_Driver/Src/stm32f3xx_hal_rtc_ex.c ****   * @{
 133:Drivers/STM32F3xx_HAL_Driver/Src/stm32f3xx_hal_rtc_ex.c ****   */
 134:Drivers/STM32F3xx_HAL_Driver/Src/stm32f3xx_hal_rtc_ex.c **** 
 135:Drivers/STM32F3xx_HAL_Driver/Src/stm32f3xx_hal_rtc_ex.c **** /**
 136:Drivers/STM32F3xx_HAL_Driver/Src/stm32f3xx_hal_rtc_ex.c ****   * @brief  Set TimeStamp.
 137:Drivers/STM32F3xx_HAL_Driver/Src/stm32f3xx_hal_rtc_ex.c ****   * @note   This API must be called before enabling the TimeStamp feature. 
 138:Drivers/STM32F3xx_HAL_Driver/Src/stm32f3xx_hal_rtc_ex.c ****   * @param  hrtc: RTC handle
 139:Drivers/STM32F3xx_HAL_Driver/Src/stm32f3xx_hal_rtc_ex.c ****   * @param  TimeStampEdge: Specifies the pin edge on which the TimeStamp is
 140:Drivers/STM32F3xx_HAL_Driver/Src/stm32f3xx_hal_rtc_ex.c ****   *         activated.
 141:Drivers/STM32F3xx_HAL_Driver/Src/stm32f3xx_hal_rtc_ex.c ****   *          This parameter can be one of the following values:
 142:Drivers/STM32F3xx_HAL_Driver/Src/stm32f3xx_hal_rtc_ex.c ****   *             @arg RTC_TIMESTAMPEDGE_RISING: the Time stamp event occurs on the  
 143:Drivers/STM32F3xx_HAL_Driver/Src/stm32f3xx_hal_rtc_ex.c ****   *                                        rising edge of the related pin.
 144:Drivers/STM32F3xx_HAL_Driver/Src/stm32f3xx_hal_rtc_ex.c ****   *             @arg RTC_TIMESTAMPEDGE_FALLING: the Time stamp event occurs on the 
 145:Drivers/STM32F3xx_HAL_Driver/Src/stm32f3xx_hal_rtc_ex.c ****   *                                         falling edge of the related pin.
ARM GAS  /var/folders/p7/nwmyw04531jbkqkgv59cx10h0000gn/T//cchGdzVf.s 			page 4


 146:Drivers/STM32F3xx_HAL_Driver/Src/stm32f3xx_hal_rtc_ex.c ****   * @param  RTC_TimeStampPin: specifies the RTC TimeStamp Pin.
 147:Drivers/STM32F3xx_HAL_Driver/Src/stm32f3xx_hal_rtc_ex.c ****   *          This parameter can be one of the following values:
 148:Drivers/STM32F3xx_HAL_Driver/Src/stm32f3xx_hal_rtc_ex.c ****   *             @arg RTC_TIMESTAMPPIN_DEFAULT: PC13 is selected as RTC TimeStamp Pin.
 149:Drivers/STM32F3xx_HAL_Driver/Src/stm32f3xx_hal_rtc_ex.c ****   * @retval HAL status
 150:Drivers/STM32F3xx_HAL_Driver/Src/stm32f3xx_hal_rtc_ex.c ****   */
 151:Drivers/STM32F3xx_HAL_Driver/Src/stm32f3xx_hal_rtc_ex.c **** HAL_StatusTypeDef HAL_RTCEx_SetTimeStamp(RTC_HandleTypeDef *hrtc, uint32_t TimeStampEdge, uint32_t 
 152:Drivers/STM32F3xx_HAL_Driver/Src/stm32f3xx_hal_rtc_ex.c **** {
  28              		.loc 1 152 0
  29              		.cfi_startproc
  30              		@ args = 0, pretend = 0, frame = 0
  31              		@ frame_needed = 0, uses_anonymous_args = 0
  32              		@ link register save eliminated.
  33              	.LVL0:
 153:Drivers/STM32F3xx_HAL_Driver/Src/stm32f3xx_hal_rtc_ex.c ****   uint32_t tmpreg = 0U;
 154:Drivers/STM32F3xx_HAL_Driver/Src/stm32f3xx_hal_rtc_ex.c **** 
 155:Drivers/STM32F3xx_HAL_Driver/Src/stm32f3xx_hal_rtc_ex.c ****   /* Check the parameters */
 156:Drivers/STM32F3xx_HAL_Driver/Src/stm32f3xx_hal_rtc_ex.c ****   assert_param(IS_TIMESTAMP_EDGE(TimeStampEdge));
 157:Drivers/STM32F3xx_HAL_Driver/Src/stm32f3xx_hal_rtc_ex.c ****   assert_param(IS_RTC_TIMESTAMP_PIN(RTC_TimeStampPin));
 158:Drivers/STM32F3xx_HAL_Driver/Src/stm32f3xx_hal_rtc_ex.c **** 
 159:Drivers/STM32F3xx_HAL_Driver/Src/stm32f3xx_hal_rtc_ex.c ****   /* Process Locked */
 160:Drivers/STM32F3xx_HAL_Driver/Src/stm32f3xx_hal_rtc_ex.c ****   __HAL_LOCK(hrtc);
  34              		.loc 1 160 0
  35 0000 027F     		ldrb	r2, [r0, #28]	@ zero_extendqisi2
  36              	.LVL1:
  37 0002 012A     		cmp	r2, #1
  38 0004 21D0     		beq	.L3
 152:Drivers/STM32F3xx_HAL_Driver/Src/stm32f3xx_hal_rtc_ex.c ****   uint32_t tmpreg = 0U;
  39              		.loc 1 152 0 discriminator 2
  40 0006 10B4     		push	{r4}
  41              	.LCFI0:
  42              		.cfi_def_cfa_offset 4
  43              		.cfi_offset 4, -4
  44              		.loc 1 160 0 discriminator 2
  45 0008 0122     		movs	r2, #1
  46 000a 0277     		strb	r2, [r0, #28]
 161:Drivers/STM32F3xx_HAL_Driver/Src/stm32f3xx_hal_rtc_ex.c **** 
 162:Drivers/STM32F3xx_HAL_Driver/Src/stm32f3xx_hal_rtc_ex.c ****   hrtc->State = HAL_RTC_STATE_BUSY;
  47              		.loc 1 162 0 discriminator 2
  48 000c 0223     		movs	r3, #2
  49 000e 4377     		strb	r3, [r0, #29]
 163:Drivers/STM32F3xx_HAL_Driver/Src/stm32f3xx_hal_rtc_ex.c **** 
 164:Drivers/STM32F3xx_HAL_Driver/Src/stm32f3xx_hal_rtc_ex.c ****   /* Get the RTC_CR register and clear the bits to be configured */
 165:Drivers/STM32F3xx_HAL_Driver/Src/stm32f3xx_hal_rtc_ex.c ****   tmpreg = (uint32_t)(hrtc->Instance->CR & (uint32_t)~(RTC_CR_TSEDGE | RTC_CR_TSE));
  50              		.loc 1 165 0 discriminator 2
  51 0010 0468     		ldr	r4, [r0]
  52 0012 A368     		ldr	r3, [r4, #8]
  53 0014 23F40063 		bic	r3, r3, #2048
  54 0018 23F00803 		bic	r3, r3, #8
  55              	.LVL2:
 166:Drivers/STM32F3xx_HAL_Driver/Src/stm32f3xx_hal_rtc_ex.c **** 
 167:Drivers/STM32F3xx_HAL_Driver/Src/stm32f3xx_hal_rtc_ex.c ****   tmpreg|= TimeStampEdge;
  56              		.loc 1 167 0 discriminator 2
  57 001c 0B43     		orrs	r3, r3, r1
  58              	.LVL3:
 168:Drivers/STM32F3xx_HAL_Driver/Src/stm32f3xx_hal_rtc_ex.c **** 
 169:Drivers/STM32F3xx_HAL_Driver/Src/stm32f3xx_hal_rtc_ex.c ****   /* Disable the write protection for RTC registers */
 170:Drivers/STM32F3xx_HAL_Driver/Src/stm32f3xx_hal_rtc_ex.c ****   __HAL_RTC_WRITEPROTECTION_DISABLE(hrtc);
ARM GAS  /var/folders/p7/nwmyw04531jbkqkgv59cx10h0000gn/T//cchGdzVf.s 			page 5


  59              		.loc 1 170 0 discriminator 2
  60 001e CA21     		movs	r1, #202
  61              	.LVL4:
  62 0020 6162     		str	r1, [r4, #36]
  63 0022 0168     		ldr	r1, [r0]
  64 0024 5324     		movs	r4, #83
  65 0026 4C62     		str	r4, [r1, #36]
 171:Drivers/STM32F3xx_HAL_Driver/Src/stm32f3xx_hal_rtc_ex.c **** 
 172:Drivers/STM32F3xx_HAL_Driver/Src/stm32f3xx_hal_rtc_ex.c ****   /* Configure the Time Stamp TSEDGE and Enable bits */
 173:Drivers/STM32F3xx_HAL_Driver/Src/stm32f3xx_hal_rtc_ex.c ****   hrtc->Instance->CR = (uint32_t)tmpreg;
  66              		.loc 1 173 0 discriminator 2
  67 0028 0168     		ldr	r1, [r0]
  68 002a 8B60     		str	r3, [r1, #8]
 174:Drivers/STM32F3xx_HAL_Driver/Src/stm32f3xx_hal_rtc_ex.c **** 
 175:Drivers/STM32F3xx_HAL_Driver/Src/stm32f3xx_hal_rtc_ex.c ****   __HAL_RTC_TIMESTAMP_ENABLE(hrtc);
  69              		.loc 1 175 0 discriminator 2
  70 002c 0168     		ldr	r1, [r0]
  71 002e 8B68     		ldr	r3, [r1, #8]
  72              	.LVL5:
  73 0030 43F40063 		orr	r3, r3, #2048
  74 0034 8B60     		str	r3, [r1, #8]
 176:Drivers/STM32F3xx_HAL_Driver/Src/stm32f3xx_hal_rtc_ex.c **** 
 177:Drivers/STM32F3xx_HAL_Driver/Src/stm32f3xx_hal_rtc_ex.c ****   /* Enable the write protection for RTC registers */
 178:Drivers/STM32F3xx_HAL_Driver/Src/stm32f3xx_hal_rtc_ex.c ****   __HAL_RTC_WRITEPROTECTION_ENABLE(hrtc);
  75              		.loc 1 178 0 discriminator 2
  76 0036 0368     		ldr	r3, [r0]
  77 0038 FF21     		movs	r1, #255
  78 003a 5962     		str	r1, [r3, #36]
 179:Drivers/STM32F3xx_HAL_Driver/Src/stm32f3xx_hal_rtc_ex.c **** 
 180:Drivers/STM32F3xx_HAL_Driver/Src/stm32f3xx_hal_rtc_ex.c ****   /* Change RTC state */
 181:Drivers/STM32F3xx_HAL_Driver/Src/stm32f3xx_hal_rtc_ex.c ****   hrtc->State = HAL_RTC_STATE_READY;
  79              		.loc 1 181 0 discriminator 2
  80 003c 4277     		strb	r2, [r0, #29]
 182:Drivers/STM32F3xx_HAL_Driver/Src/stm32f3xx_hal_rtc_ex.c **** 
 183:Drivers/STM32F3xx_HAL_Driver/Src/stm32f3xx_hal_rtc_ex.c ****   /* Process Unlocked */
 184:Drivers/STM32F3xx_HAL_Driver/Src/stm32f3xx_hal_rtc_ex.c ****   __HAL_UNLOCK(hrtc);
  81              		.loc 1 184 0 discriminator 2
  82 003e 0023     		movs	r3, #0
  83 0040 0377     		strb	r3, [r0, #28]
 185:Drivers/STM32F3xx_HAL_Driver/Src/stm32f3xx_hal_rtc_ex.c **** 
 186:Drivers/STM32F3xx_HAL_Driver/Src/stm32f3xx_hal_rtc_ex.c ****   return HAL_OK;
  84              		.loc 1 186 0 discriminator 2
  85 0042 1846     		mov	r0, r3
  86              	.LVL6:
 187:Drivers/STM32F3xx_HAL_Driver/Src/stm32f3xx_hal_rtc_ex.c **** }
  87              		.loc 1 187 0 discriminator 2
  88 0044 5DF8044B 		ldr	r4, [sp], #4
  89              	.LCFI1:
  90              		.cfi_restore 4
  91              		.cfi_def_cfa_offset 0
  92 0048 7047     		bx	lr
  93              	.LVL7:
  94              	.L3:
 160:Drivers/STM32F3xx_HAL_Driver/Src/stm32f3xx_hal_rtc_ex.c **** 
  95              		.loc 1 160 0
  96 004a 0220     		movs	r0, #2
  97              	.LVL8:
ARM GAS  /var/folders/p7/nwmyw04531jbkqkgv59cx10h0000gn/T//cchGdzVf.s 			page 6


  98 004c 7047     		bx	lr
  99              		.cfi_endproc
 100              	.LFE124:
 102              		.section	.text.HAL_RTCEx_SetTimeStamp_IT,"ax",%progbits
 103              		.align	1
 104              		.global	HAL_RTCEx_SetTimeStamp_IT
 105              		.syntax unified
 106              		.thumb
 107              		.thumb_func
 108              		.fpu fpv4-sp-d16
 110              	HAL_RTCEx_SetTimeStamp_IT:
 111              	.LFB125:
 188:Drivers/STM32F3xx_HAL_Driver/Src/stm32f3xx_hal_rtc_ex.c **** 
 189:Drivers/STM32F3xx_HAL_Driver/Src/stm32f3xx_hal_rtc_ex.c **** /**
 190:Drivers/STM32F3xx_HAL_Driver/Src/stm32f3xx_hal_rtc_ex.c ****   * @brief  Set TimeStamp with Interrupt.
 191:Drivers/STM32F3xx_HAL_Driver/Src/stm32f3xx_hal_rtc_ex.c ****   * @param  hrtc: RTC handle
 192:Drivers/STM32F3xx_HAL_Driver/Src/stm32f3xx_hal_rtc_ex.c ****   * @note   This API must be called before enabling the TimeStamp feature.
 193:Drivers/STM32F3xx_HAL_Driver/Src/stm32f3xx_hal_rtc_ex.c ****   * @param  TimeStampEdge: Specifies the pin edge on which the TimeStamp is 
 194:Drivers/STM32F3xx_HAL_Driver/Src/stm32f3xx_hal_rtc_ex.c ****   *         activated.
 195:Drivers/STM32F3xx_HAL_Driver/Src/stm32f3xx_hal_rtc_ex.c ****   *          This parameter can be one of the following values:
 196:Drivers/STM32F3xx_HAL_Driver/Src/stm32f3xx_hal_rtc_ex.c ****   *             @arg RTC_TIMESTAMPEDGE_RISING: the Time stamp event occurs on the  
 197:Drivers/STM32F3xx_HAL_Driver/Src/stm32f3xx_hal_rtc_ex.c ****   *                                        rising edge of the related pin.
 198:Drivers/STM32F3xx_HAL_Driver/Src/stm32f3xx_hal_rtc_ex.c ****   *             @arg RTC_TIMESTAMPEDGE_FALLING: the Time stamp event occurs on the 
 199:Drivers/STM32F3xx_HAL_Driver/Src/stm32f3xx_hal_rtc_ex.c ****   *                                         falling edge of the related pin.
 200:Drivers/STM32F3xx_HAL_Driver/Src/stm32f3xx_hal_rtc_ex.c ****   * @param  RTC_TimeStampPin: Specifies the RTC TimeStamp Pin.
 201:Drivers/STM32F3xx_HAL_Driver/Src/stm32f3xx_hal_rtc_ex.c ****   *          This parameter can be one of the following values:
 202:Drivers/STM32F3xx_HAL_Driver/Src/stm32f3xx_hal_rtc_ex.c ****   *             @arg RTC_TIMESTAMPPIN_DEFAULT: PC13 is selected as RTC TimeStamp Pin.
 203:Drivers/STM32F3xx_HAL_Driver/Src/stm32f3xx_hal_rtc_ex.c ****   * @retval HAL status
 204:Drivers/STM32F3xx_HAL_Driver/Src/stm32f3xx_hal_rtc_ex.c ****   */
 205:Drivers/STM32F3xx_HAL_Driver/Src/stm32f3xx_hal_rtc_ex.c **** HAL_StatusTypeDef HAL_RTCEx_SetTimeStamp_IT(RTC_HandleTypeDef *hrtc, uint32_t TimeStampEdge, uint32
 206:Drivers/STM32F3xx_HAL_Driver/Src/stm32f3xx_hal_rtc_ex.c **** {
 112              		.loc 1 206 0
 113              		.cfi_startproc
 114              		@ args = 0, pretend = 0, frame = 0
 115              		@ frame_needed = 0, uses_anonymous_args = 0
 116              		@ link register save eliminated.
 117              	.LVL9:
 207:Drivers/STM32F3xx_HAL_Driver/Src/stm32f3xx_hal_rtc_ex.c ****   uint32_t tmpreg = 0U;
 208:Drivers/STM32F3xx_HAL_Driver/Src/stm32f3xx_hal_rtc_ex.c **** 
 209:Drivers/STM32F3xx_HAL_Driver/Src/stm32f3xx_hal_rtc_ex.c ****   /* Check the parameters */
 210:Drivers/STM32F3xx_HAL_Driver/Src/stm32f3xx_hal_rtc_ex.c ****   assert_param(IS_TIMESTAMP_EDGE(TimeStampEdge));
 211:Drivers/STM32F3xx_HAL_Driver/Src/stm32f3xx_hal_rtc_ex.c ****   assert_param(IS_RTC_TIMESTAMP_PIN(RTC_TimeStampPin));
 212:Drivers/STM32F3xx_HAL_Driver/Src/stm32f3xx_hal_rtc_ex.c **** 
 213:Drivers/STM32F3xx_HAL_Driver/Src/stm32f3xx_hal_rtc_ex.c ****   /* Process Locked */ 
 214:Drivers/STM32F3xx_HAL_Driver/Src/stm32f3xx_hal_rtc_ex.c ****   __HAL_LOCK(hrtc);
 118              		.loc 1 214 0
 119 0000 027F     		ldrb	r2, [r0, #28]	@ zero_extendqisi2
 120              	.LVL10:
 121 0002 012A     		cmp	r2, #1
 122 0004 2FD0     		beq	.L10
 206:Drivers/STM32F3xx_HAL_Driver/Src/stm32f3xx_hal_rtc_ex.c ****   uint32_t tmpreg = 0U;
 123              		.loc 1 206 0 discriminator 2
 124 0006 10B4     		push	{r4}
 125              	.LCFI2:
 126              		.cfi_def_cfa_offset 4
 127              		.cfi_offset 4, -4
 128              		.loc 1 214 0 discriminator 2
ARM GAS  /var/folders/p7/nwmyw04531jbkqkgv59cx10h0000gn/T//cchGdzVf.s 			page 7


 129 0008 0124     		movs	r4, #1
 130 000a 0477     		strb	r4, [r0, #28]
 215:Drivers/STM32F3xx_HAL_Driver/Src/stm32f3xx_hal_rtc_ex.c **** 
 216:Drivers/STM32F3xx_HAL_Driver/Src/stm32f3xx_hal_rtc_ex.c ****   hrtc->State = HAL_RTC_STATE_BUSY;
 131              		.loc 1 216 0 discriminator 2
 132 000c 0223     		movs	r3, #2
 133 000e 4377     		strb	r3, [r0, #29]
 217:Drivers/STM32F3xx_HAL_Driver/Src/stm32f3xx_hal_rtc_ex.c **** 
 218:Drivers/STM32F3xx_HAL_Driver/Src/stm32f3xx_hal_rtc_ex.c ****   /* Get the RTC_CR register and clear the bits to be configured */
 219:Drivers/STM32F3xx_HAL_Driver/Src/stm32f3xx_hal_rtc_ex.c ****   tmpreg = (uint32_t)(hrtc->Instance->CR & (uint32_t)~(RTC_CR_TSEDGE | RTC_CR_TSE));
 134              		.loc 1 219 0 discriminator 2
 135 0010 0268     		ldr	r2, [r0]
 136 0012 9368     		ldr	r3, [r2, #8]
 137 0014 23F40063 		bic	r3, r3, #2048
 138 0018 23F00803 		bic	r3, r3, #8
 139              	.LVL11:
 220:Drivers/STM32F3xx_HAL_Driver/Src/stm32f3xx_hal_rtc_ex.c **** 
 221:Drivers/STM32F3xx_HAL_Driver/Src/stm32f3xx_hal_rtc_ex.c ****   tmpreg |= TimeStampEdge;
 140              		.loc 1 221 0 discriminator 2
 141 001c 0B43     		orrs	r3, r3, r1
 142              	.LVL12:
 222:Drivers/STM32F3xx_HAL_Driver/Src/stm32f3xx_hal_rtc_ex.c **** 
 223:Drivers/STM32F3xx_HAL_Driver/Src/stm32f3xx_hal_rtc_ex.c ****   /* Disable the write protection for RTC registers */
 224:Drivers/STM32F3xx_HAL_Driver/Src/stm32f3xx_hal_rtc_ex.c ****   __HAL_RTC_WRITEPROTECTION_DISABLE(hrtc);
 143              		.loc 1 224 0 discriminator 2
 144 001e CA21     		movs	r1, #202
 145              	.LVL13:
 146 0020 5162     		str	r1, [r2, #36]
 147 0022 0268     		ldr	r2, [r0]
 148 0024 5321     		movs	r1, #83
 149 0026 5162     		str	r1, [r2, #36]
 225:Drivers/STM32F3xx_HAL_Driver/Src/stm32f3xx_hal_rtc_ex.c **** 
 226:Drivers/STM32F3xx_HAL_Driver/Src/stm32f3xx_hal_rtc_ex.c ****   /* Configure the Time Stamp TSEDGE and Enable bits */
 227:Drivers/STM32F3xx_HAL_Driver/Src/stm32f3xx_hal_rtc_ex.c ****   hrtc->Instance->CR = (uint32_t)tmpreg;
 150              		.loc 1 227 0 discriminator 2
 151 0028 0268     		ldr	r2, [r0]
 152 002a 9360     		str	r3, [r2, #8]
 228:Drivers/STM32F3xx_HAL_Driver/Src/stm32f3xx_hal_rtc_ex.c **** 
 229:Drivers/STM32F3xx_HAL_Driver/Src/stm32f3xx_hal_rtc_ex.c ****   __HAL_RTC_TIMESTAMP_ENABLE(hrtc);
 153              		.loc 1 229 0 discriminator 2
 154 002c 0268     		ldr	r2, [r0]
 155 002e 9368     		ldr	r3, [r2, #8]
 156              	.LVL14:
 157 0030 43F40063 		orr	r3, r3, #2048
 158 0034 9360     		str	r3, [r2, #8]
 230:Drivers/STM32F3xx_HAL_Driver/Src/stm32f3xx_hal_rtc_ex.c **** 
 231:Drivers/STM32F3xx_HAL_Driver/Src/stm32f3xx_hal_rtc_ex.c ****   /* Enable IT timestamp */
 232:Drivers/STM32F3xx_HAL_Driver/Src/stm32f3xx_hal_rtc_ex.c ****   __HAL_RTC_TIMESTAMP_ENABLE_IT(hrtc,RTC_IT_TS);
 159              		.loc 1 232 0 discriminator 2
 160 0036 0268     		ldr	r2, [r0]
 161 0038 9368     		ldr	r3, [r2, #8]
 162 003a 43F40043 		orr	r3, r3, #32768
 163 003e 9360     		str	r3, [r2, #8]
 233:Drivers/STM32F3xx_HAL_Driver/Src/stm32f3xx_hal_rtc_ex.c **** 
 234:Drivers/STM32F3xx_HAL_Driver/Src/stm32f3xx_hal_rtc_ex.c ****   /* RTC timestamp Interrupt Configuration: EXTI configuration */
 235:Drivers/STM32F3xx_HAL_Driver/Src/stm32f3xx_hal_rtc_ex.c ****   __HAL_RTC_TAMPER_TIMESTAMP_EXTI_ENABLE_IT();
 164              		.loc 1 235 0 discriminator 2
ARM GAS  /var/folders/p7/nwmyw04531jbkqkgv59cx10h0000gn/T//cchGdzVf.s 			page 8


 165 0040 0A4B     		ldr	r3, .L15
 166 0042 1A68     		ldr	r2, [r3]
 167 0044 42F40022 		orr	r2, r2, #524288
 168 0048 1A60     		str	r2, [r3]
 236:Drivers/STM32F3xx_HAL_Driver/Src/stm32f3xx_hal_rtc_ex.c **** 
 237:Drivers/STM32F3xx_HAL_Driver/Src/stm32f3xx_hal_rtc_ex.c ****   __HAL_RTC_TAMPER_TIMESTAMP_EXTI_ENABLE_RISING_EDGE();
 169              		.loc 1 237 0 discriminator 2
 170 004a 9A68     		ldr	r2, [r3, #8]
 171 004c 42F40022 		orr	r2, r2, #524288
 172 0050 9A60     		str	r2, [r3, #8]
 238:Drivers/STM32F3xx_HAL_Driver/Src/stm32f3xx_hal_rtc_ex.c **** 
 239:Drivers/STM32F3xx_HAL_Driver/Src/stm32f3xx_hal_rtc_ex.c ****   /* Enable the write protection for RTC registers */
 240:Drivers/STM32F3xx_HAL_Driver/Src/stm32f3xx_hal_rtc_ex.c ****   __HAL_RTC_WRITEPROTECTION_ENABLE(hrtc);
 173              		.loc 1 240 0 discriminator 2
 174 0052 0368     		ldr	r3, [r0]
 175 0054 FF22     		movs	r2, #255
 176 0056 5A62     		str	r2, [r3, #36]
 241:Drivers/STM32F3xx_HAL_Driver/Src/stm32f3xx_hal_rtc_ex.c **** 
 242:Drivers/STM32F3xx_HAL_Driver/Src/stm32f3xx_hal_rtc_ex.c ****   hrtc->State = HAL_RTC_STATE_READY;
 177              		.loc 1 242 0 discriminator 2
 178 0058 4477     		strb	r4, [r0, #29]
 243:Drivers/STM32F3xx_HAL_Driver/Src/stm32f3xx_hal_rtc_ex.c **** 
 244:Drivers/STM32F3xx_HAL_Driver/Src/stm32f3xx_hal_rtc_ex.c ****   /* Process Unlocked */
 245:Drivers/STM32F3xx_HAL_Driver/Src/stm32f3xx_hal_rtc_ex.c ****   __HAL_UNLOCK(hrtc);
 179              		.loc 1 245 0 discriminator 2
 180 005a 0023     		movs	r3, #0
 181 005c 0377     		strb	r3, [r0, #28]
 246:Drivers/STM32F3xx_HAL_Driver/Src/stm32f3xx_hal_rtc_ex.c **** 
 247:Drivers/STM32F3xx_HAL_Driver/Src/stm32f3xx_hal_rtc_ex.c ****   return HAL_OK;
 182              		.loc 1 247 0 discriminator 2
 183 005e 1846     		mov	r0, r3
 184              	.LVL15:
 248:Drivers/STM32F3xx_HAL_Driver/Src/stm32f3xx_hal_rtc_ex.c **** }
 185              		.loc 1 248 0 discriminator 2
 186 0060 5DF8044B 		ldr	r4, [sp], #4
 187              	.LCFI3:
 188              		.cfi_restore 4
 189              		.cfi_def_cfa_offset 0
 190 0064 7047     		bx	lr
 191              	.LVL16:
 192              	.L10:
 214:Drivers/STM32F3xx_HAL_Driver/Src/stm32f3xx_hal_rtc_ex.c **** 
 193              		.loc 1 214 0
 194 0066 0220     		movs	r0, #2
 195              	.LVL17:
 196 0068 7047     		bx	lr
 197              	.L16:
 198 006a 00BF     		.align	2
 199              	.L15:
 200 006c 00040140 		.word	1073808384
 201              		.cfi_endproc
 202              	.LFE125:
 204              		.section	.text.HAL_RTCEx_DeactivateTimeStamp,"ax",%progbits
 205              		.align	1
 206              		.global	HAL_RTCEx_DeactivateTimeStamp
 207              		.syntax unified
 208              		.thumb
ARM GAS  /var/folders/p7/nwmyw04531jbkqkgv59cx10h0000gn/T//cchGdzVf.s 			page 9


 209              		.thumb_func
 210              		.fpu fpv4-sp-d16
 212              	HAL_RTCEx_DeactivateTimeStamp:
 213              	.LFB126:
 249:Drivers/STM32F3xx_HAL_Driver/Src/stm32f3xx_hal_rtc_ex.c **** 
 250:Drivers/STM32F3xx_HAL_Driver/Src/stm32f3xx_hal_rtc_ex.c **** /**
 251:Drivers/STM32F3xx_HAL_Driver/Src/stm32f3xx_hal_rtc_ex.c ****   * @brief  Deactivate TimeStamp.
 252:Drivers/STM32F3xx_HAL_Driver/Src/stm32f3xx_hal_rtc_ex.c ****   * @param  hrtc: RTC handle
 253:Drivers/STM32F3xx_HAL_Driver/Src/stm32f3xx_hal_rtc_ex.c ****   * @retval HAL status
 254:Drivers/STM32F3xx_HAL_Driver/Src/stm32f3xx_hal_rtc_ex.c ****   */
 255:Drivers/STM32F3xx_HAL_Driver/Src/stm32f3xx_hal_rtc_ex.c **** HAL_StatusTypeDef HAL_RTCEx_DeactivateTimeStamp(RTC_HandleTypeDef *hrtc)
 256:Drivers/STM32F3xx_HAL_Driver/Src/stm32f3xx_hal_rtc_ex.c **** {
 214              		.loc 1 256 0
 215              		.cfi_startproc
 216              		@ args = 0, pretend = 0, frame = 0
 217              		@ frame_needed = 0, uses_anonymous_args = 0
 218              		@ link register save eliminated.
 219              	.LVL18:
 257:Drivers/STM32F3xx_HAL_Driver/Src/stm32f3xx_hal_rtc_ex.c ****   uint32_t tmpreg = 0U;
 258:Drivers/STM32F3xx_HAL_Driver/Src/stm32f3xx_hal_rtc_ex.c **** 
 259:Drivers/STM32F3xx_HAL_Driver/Src/stm32f3xx_hal_rtc_ex.c ****   /* Process Locked */
 260:Drivers/STM32F3xx_HAL_Driver/Src/stm32f3xx_hal_rtc_ex.c ****   __HAL_LOCK(hrtc);
 220              		.loc 1 260 0
 221 0000 037F     		ldrb	r3, [r0, #28]	@ zero_extendqisi2
 222 0002 012B     		cmp	r3, #1
 223 0004 1DD0     		beq	.L19
 224              		.loc 1 260 0 is_stmt 0 discriminator 2
 225 0006 0122     		movs	r2, #1
 226 0008 0277     		strb	r2, [r0, #28]
 261:Drivers/STM32F3xx_HAL_Driver/Src/stm32f3xx_hal_rtc_ex.c **** 
 262:Drivers/STM32F3xx_HAL_Driver/Src/stm32f3xx_hal_rtc_ex.c ****   hrtc->State = HAL_RTC_STATE_BUSY;
 227              		.loc 1 262 0 is_stmt 1 discriminator 2
 228 000a 0223     		movs	r3, #2
 229 000c 4377     		strb	r3, [r0, #29]
 263:Drivers/STM32F3xx_HAL_Driver/Src/stm32f3xx_hal_rtc_ex.c **** 
 264:Drivers/STM32F3xx_HAL_Driver/Src/stm32f3xx_hal_rtc_ex.c ****   /* Disable the write protection for RTC registers */
 265:Drivers/STM32F3xx_HAL_Driver/Src/stm32f3xx_hal_rtc_ex.c ****   __HAL_RTC_WRITEPROTECTION_DISABLE(hrtc);
 230              		.loc 1 265 0 discriminator 2
 231 000e 0368     		ldr	r3, [r0]
 232 0010 CA21     		movs	r1, #202
 233 0012 5962     		str	r1, [r3, #36]
 234 0014 0368     		ldr	r3, [r0]
 235 0016 5321     		movs	r1, #83
 236 0018 5962     		str	r1, [r3, #36]
 266:Drivers/STM32F3xx_HAL_Driver/Src/stm32f3xx_hal_rtc_ex.c **** 
 267:Drivers/STM32F3xx_HAL_Driver/Src/stm32f3xx_hal_rtc_ex.c ****   /* In case of interrupt mode is used, the interrupt source must disabled */
 268:Drivers/STM32F3xx_HAL_Driver/Src/stm32f3xx_hal_rtc_ex.c ****   __HAL_RTC_TIMESTAMP_DISABLE_IT(hrtc, RTC_IT_TS);
 237              		.loc 1 268 0 discriminator 2
 238 001a 0168     		ldr	r1, [r0]
 239 001c 8B68     		ldr	r3, [r1, #8]
 240 001e 23F40043 		bic	r3, r3, #32768
 241 0022 8B60     		str	r3, [r1, #8]
 269:Drivers/STM32F3xx_HAL_Driver/Src/stm32f3xx_hal_rtc_ex.c **** 
 270:Drivers/STM32F3xx_HAL_Driver/Src/stm32f3xx_hal_rtc_ex.c ****   /* Get the RTC_CR register and clear the bits to be configured */
 271:Drivers/STM32F3xx_HAL_Driver/Src/stm32f3xx_hal_rtc_ex.c ****   tmpreg = (uint32_t)(hrtc->Instance->CR & (uint32_t)~(RTC_CR_TSEDGE | RTC_CR_TSE));
 242              		.loc 1 271 0 discriminator 2
 243 0024 0168     		ldr	r1, [r0]
ARM GAS  /var/folders/p7/nwmyw04531jbkqkgv59cx10h0000gn/T//cchGdzVf.s 			page 10


 244 0026 8B68     		ldr	r3, [r1, #8]
 245 0028 23F40063 		bic	r3, r3, #2048
 246 002c 23F00803 		bic	r3, r3, #8
 247              	.LVL19:
 272:Drivers/STM32F3xx_HAL_Driver/Src/stm32f3xx_hal_rtc_ex.c **** 
 273:Drivers/STM32F3xx_HAL_Driver/Src/stm32f3xx_hal_rtc_ex.c ****   /* Configure the Time Stamp TSEDGE and Enable bits */
 274:Drivers/STM32F3xx_HAL_Driver/Src/stm32f3xx_hal_rtc_ex.c ****   hrtc->Instance->CR = (uint32_t)tmpreg;
 248              		.loc 1 274 0 discriminator 2
 249 0030 8B60     		str	r3, [r1, #8]
 275:Drivers/STM32F3xx_HAL_Driver/Src/stm32f3xx_hal_rtc_ex.c **** 
 276:Drivers/STM32F3xx_HAL_Driver/Src/stm32f3xx_hal_rtc_ex.c ****   /* Enable the write protection for RTC registers */
 277:Drivers/STM32F3xx_HAL_Driver/Src/stm32f3xx_hal_rtc_ex.c ****   __HAL_RTC_WRITEPROTECTION_ENABLE(hrtc);
 250              		.loc 1 277 0 discriminator 2
 251 0032 0368     		ldr	r3, [r0]
 252              	.LVL20:
 253 0034 FF21     		movs	r1, #255
 254              	.LVL21:
 255 0036 5962     		str	r1, [r3, #36]
 278:Drivers/STM32F3xx_HAL_Driver/Src/stm32f3xx_hal_rtc_ex.c **** 
 279:Drivers/STM32F3xx_HAL_Driver/Src/stm32f3xx_hal_rtc_ex.c ****   hrtc->State = HAL_RTC_STATE_READY;
 256              		.loc 1 279 0 discriminator 2
 257 0038 4277     		strb	r2, [r0, #29]
 280:Drivers/STM32F3xx_HAL_Driver/Src/stm32f3xx_hal_rtc_ex.c **** 
 281:Drivers/STM32F3xx_HAL_Driver/Src/stm32f3xx_hal_rtc_ex.c ****   /* Process Unlocked */
 282:Drivers/STM32F3xx_HAL_Driver/Src/stm32f3xx_hal_rtc_ex.c ****   __HAL_UNLOCK(hrtc);
 258              		.loc 1 282 0 discriminator 2
 259 003a 0023     		movs	r3, #0
 260 003c 0377     		strb	r3, [r0, #28]
 283:Drivers/STM32F3xx_HAL_Driver/Src/stm32f3xx_hal_rtc_ex.c **** 
 284:Drivers/STM32F3xx_HAL_Driver/Src/stm32f3xx_hal_rtc_ex.c ****   return HAL_OK;
 261              		.loc 1 284 0 discriminator 2
 262 003e 1846     		mov	r0, r3
 263              	.LVL22:
 264 0040 7047     		bx	lr
 265              	.LVL23:
 266              	.L19:
 260:Drivers/STM32F3xx_HAL_Driver/Src/stm32f3xx_hal_rtc_ex.c **** 
 267              		.loc 1 260 0
 268 0042 0220     		movs	r0, #2
 269              	.LVL24:
 285:Drivers/STM32F3xx_HAL_Driver/Src/stm32f3xx_hal_rtc_ex.c **** }
 270              		.loc 1 285 0
 271 0044 7047     		bx	lr
 272              		.cfi_endproc
 273              	.LFE126:
 275              		.section	.text.HAL_RTCEx_GetTimeStamp,"ax",%progbits
 276              		.align	1
 277              		.global	HAL_RTCEx_GetTimeStamp
 278              		.syntax unified
 279              		.thumb
 280              		.thumb_func
 281              		.fpu fpv4-sp-d16
 283              	HAL_RTCEx_GetTimeStamp:
 284              	.LFB127:
 286:Drivers/STM32F3xx_HAL_Driver/Src/stm32f3xx_hal_rtc_ex.c **** 
 287:Drivers/STM32F3xx_HAL_Driver/Src/stm32f3xx_hal_rtc_ex.c **** /**
 288:Drivers/STM32F3xx_HAL_Driver/Src/stm32f3xx_hal_rtc_ex.c ****   * @brief  Get the RTC TimeStamp value.
ARM GAS  /var/folders/p7/nwmyw04531jbkqkgv59cx10h0000gn/T//cchGdzVf.s 			page 11


 289:Drivers/STM32F3xx_HAL_Driver/Src/stm32f3xx_hal_rtc_ex.c ****   * @param  hrtc: RTC handle
 290:Drivers/STM32F3xx_HAL_Driver/Src/stm32f3xx_hal_rtc_ex.c ****   * @param  sTimeStamp: Pointer to Time structure
 291:Drivers/STM32F3xx_HAL_Driver/Src/stm32f3xx_hal_rtc_ex.c ****   * @param  sTimeStampDate: Pointer to Date structure  
 292:Drivers/STM32F3xx_HAL_Driver/Src/stm32f3xx_hal_rtc_ex.c ****   * @param  Format: specifies the format of the entered parameters.
 293:Drivers/STM32F3xx_HAL_Driver/Src/stm32f3xx_hal_rtc_ex.c ****   *          This parameter can be one of the following values:
 294:Drivers/STM32F3xx_HAL_Driver/Src/stm32f3xx_hal_rtc_ex.c ****   *             @arg RTC_FORMAT_BIN: Binary data format 
 295:Drivers/STM32F3xx_HAL_Driver/Src/stm32f3xx_hal_rtc_ex.c ****   *             @arg RTC_FORMAT_BCD: BCD data format
 296:Drivers/STM32F3xx_HAL_Driver/Src/stm32f3xx_hal_rtc_ex.c ****   * @retval HAL status
 297:Drivers/STM32F3xx_HAL_Driver/Src/stm32f3xx_hal_rtc_ex.c ****   */
 298:Drivers/STM32F3xx_HAL_Driver/Src/stm32f3xx_hal_rtc_ex.c **** HAL_StatusTypeDef HAL_RTCEx_GetTimeStamp(RTC_HandleTypeDef *hrtc, RTC_TimeTypeDef* sTimeStamp, RTC_
 299:Drivers/STM32F3xx_HAL_Driver/Src/stm32f3xx_hal_rtc_ex.c **** {
 285              		.loc 1 299 0
 286              		.cfi_startproc
 287              		@ args = 0, pretend = 0, frame = 0
 288              		@ frame_needed = 0, uses_anonymous_args = 0
 289              	.LVL25:
 290 0000 F8B5     		push	{r3, r4, r5, r6, r7, lr}
 291              	.LCFI4:
 292              		.cfi_def_cfa_offset 24
 293              		.cfi_offset 3, -24
 294              		.cfi_offset 4, -20
 295              		.cfi_offset 5, -16
 296              		.cfi_offset 6, -12
 297              		.cfi_offset 7, -8
 298              		.cfi_offset 14, -4
 299 0002 0646     		mov	r6, r0
 300 0004 0C46     		mov	r4, r1
 301 0006 1546     		mov	r5, r2
 302              	.LVL26:
 300:Drivers/STM32F3xx_HAL_Driver/Src/stm32f3xx_hal_rtc_ex.c ****   uint32_t tmptime = 0U, tmpdate = 0U;
 301:Drivers/STM32F3xx_HAL_Driver/Src/stm32f3xx_hal_rtc_ex.c **** 
 302:Drivers/STM32F3xx_HAL_Driver/Src/stm32f3xx_hal_rtc_ex.c ****   /* Check the parameters */
 303:Drivers/STM32F3xx_HAL_Driver/Src/stm32f3xx_hal_rtc_ex.c ****   assert_param(IS_RTC_FORMAT(Format));
 304:Drivers/STM32F3xx_HAL_Driver/Src/stm32f3xx_hal_rtc_ex.c **** 
 305:Drivers/STM32F3xx_HAL_Driver/Src/stm32f3xx_hal_rtc_ex.c ****   /* Get the TimeStamp time and date registers values */
 306:Drivers/STM32F3xx_HAL_Driver/Src/stm32f3xx_hal_rtc_ex.c ****   tmptime = (uint32_t)(hrtc->Instance->TSTR & RTC_TR_RESERVED_MASK);
 303              		.loc 1 306 0
 304 0008 0268     		ldr	r2, [r0]
 305              	.LVL27:
 306 000a 116B     		ldr	r1, [r2, #48]
 307              	.LVL28:
 308 000c 01F07F31 		and	r1, r1, #2139062143
 309 0010 21F0FE41 		bic	r1, r1, #2130706432
 310              	.LVL29:
 307:Drivers/STM32F3xx_HAL_Driver/Src/stm32f3xx_hal_rtc_ex.c ****   tmpdate = (uint32_t)(hrtc->Instance->TSDR & RTC_DR_RESERVED_MASK);
 311              		.loc 1 307 0
 312 0014 526B     		ldr	r2, [r2, #52]
 313 0016 22F07F42 		bic	r2, r2, #-16777216
 314 001a 22F0C002 		bic	r2, r2, #192
 315              	.LVL30:
 308:Drivers/STM32F3xx_HAL_Driver/Src/stm32f3xx_hal_rtc_ex.c **** 
 309:Drivers/STM32F3xx_HAL_Driver/Src/stm32f3xx_hal_rtc_ex.c ****   /* Fill the Time structure fields with the read parameters */
 310:Drivers/STM32F3xx_HAL_Driver/Src/stm32f3xx_hal_rtc_ex.c ****   sTimeStamp->Hours = (uint8_t)((tmptime & (RTC_TR_HT | RTC_TR_HU)) >> 16U);
 316              		.loc 1 310 0
 317 001e 080C     		lsrs	r0, r1, #16
 318              	.LVL31:
 319 0020 00F03F07 		and	r7, r0, #63
ARM GAS  /var/folders/p7/nwmyw04531jbkqkgv59cx10h0000gn/T//cchGdzVf.s 			page 12


 320 0024 2770     		strb	r7, [r4]
 311:Drivers/STM32F3xx_HAL_Driver/Src/stm32f3xx_hal_rtc_ex.c ****   sTimeStamp->Minutes = (uint8_t)((tmptime & (RTC_TR_MNT | RTC_TR_MNU)) >> 8U);
 321              		.loc 1 311 0
 322 0026 C1F30627 		ubfx	r7, r1, #8, #7
 323 002a 6770     		strb	r7, [r4, #1]
 312:Drivers/STM32F3xx_HAL_Driver/Src/stm32f3xx_hal_rtc_ex.c ****   sTimeStamp->Seconds = (uint8_t)(tmptime & (RTC_TR_ST | RTC_TR_SU));
 324              		.loc 1 312 0
 325 002c A170     		strb	r1, [r4, #2]
 313:Drivers/STM32F3xx_HAL_Driver/Src/stm32f3xx_hal_rtc_ex.c ****   sTimeStamp->TimeFormat = (uint8_t)((tmptime & (RTC_TR_PM)) >> 16U);
 326              		.loc 1 313 0
 327 002e 00F04000 		and	r0, r0, #64
 328 0032 E070     		strb	r0, [r4, #3]
 314:Drivers/STM32F3xx_HAL_Driver/Src/stm32f3xx_hal_rtc_ex.c ****   sTimeStamp->SubSeconds = (uint32_t) hrtc->Instance->TSSSR;
 329              		.loc 1 314 0
 330 0034 3168     		ldr	r1, [r6]
 331              	.LVL32:
 332 0036 896B     		ldr	r1, [r1, #56]
 333 0038 6160     		str	r1, [r4, #4]
 315:Drivers/STM32F3xx_HAL_Driver/Src/stm32f3xx_hal_rtc_ex.c **** 
 316:Drivers/STM32F3xx_HAL_Driver/Src/stm32f3xx_hal_rtc_ex.c ****   /* Fill the Date structure fields with the read parameters */
 317:Drivers/STM32F3xx_HAL_Driver/Src/stm32f3xx_hal_rtc_ex.c ****   sTimeStampDate->Year = 0U;
 334              		.loc 1 317 0
 335 003a 0021     		movs	r1, #0
 336 003c E970     		strb	r1, [r5, #3]
 318:Drivers/STM32F3xx_HAL_Driver/Src/stm32f3xx_hal_rtc_ex.c ****   sTimeStampDate->Month = (uint8_t)((tmpdate & (RTC_DR_MT | RTC_DR_MU)) >> 8U);
 337              		.loc 1 318 0
 338 003e C2F30421 		ubfx	r1, r2, #8, #5
 339 0042 6970     		strb	r1, [r5, #1]
 319:Drivers/STM32F3xx_HAL_Driver/Src/stm32f3xx_hal_rtc_ex.c ****   sTimeStampDate->Date = (uint8_t)(tmpdate & (RTC_DR_DT | RTC_DR_DU));
 340              		.loc 1 319 0
 341 0044 AA70     		strb	r2, [r5, #2]
 320:Drivers/STM32F3xx_HAL_Driver/Src/stm32f3xx_hal_rtc_ex.c ****   sTimeStampDate->WeekDay = (uint8_t)((tmpdate & (RTC_DR_WDU)) >> 13U);
 342              		.loc 1 320 0
 343 0046 C2F34232 		ubfx	r2, r2, #13, #3
 344              	.LVL33:
 345 004a 2A70     		strb	r2, [r5]
 321:Drivers/STM32F3xx_HAL_Driver/Src/stm32f3xx_hal_rtc_ex.c **** 
 322:Drivers/STM32F3xx_HAL_Driver/Src/stm32f3xx_hal_rtc_ex.c ****   /* Check the input parameters format */
 323:Drivers/STM32F3xx_HAL_Driver/Src/stm32f3xx_hal_rtc_ex.c ****   if(Format == RTC_FORMAT_BIN)
 346              		.loc 1 323 0
 347 004c 3BB1     		cbz	r3, .L23
 348              	.LVL34:
 349              	.L21:
 324:Drivers/STM32F3xx_HAL_Driver/Src/stm32f3xx_hal_rtc_ex.c ****   {
 325:Drivers/STM32F3xx_HAL_Driver/Src/stm32f3xx_hal_rtc_ex.c ****     /* Convert the TimeStamp structure parameters to Binary format */
 326:Drivers/STM32F3xx_HAL_Driver/Src/stm32f3xx_hal_rtc_ex.c ****     sTimeStamp->Hours = (uint8_t)RTC_Bcd2ToByte(sTimeStamp->Hours);
 327:Drivers/STM32F3xx_HAL_Driver/Src/stm32f3xx_hal_rtc_ex.c ****     sTimeStamp->Minutes = (uint8_t)RTC_Bcd2ToByte(sTimeStamp->Minutes);
 328:Drivers/STM32F3xx_HAL_Driver/Src/stm32f3xx_hal_rtc_ex.c ****     sTimeStamp->Seconds = (uint8_t)RTC_Bcd2ToByte(sTimeStamp->Seconds);
 329:Drivers/STM32F3xx_HAL_Driver/Src/stm32f3xx_hal_rtc_ex.c **** 
 330:Drivers/STM32F3xx_HAL_Driver/Src/stm32f3xx_hal_rtc_ex.c ****     /* Convert the DateTimeStamp structure parameters to Binary format */
 331:Drivers/STM32F3xx_HAL_Driver/Src/stm32f3xx_hal_rtc_ex.c ****     sTimeStampDate->Month = (uint8_t)RTC_Bcd2ToByte(sTimeStampDate->Month);
 332:Drivers/STM32F3xx_HAL_Driver/Src/stm32f3xx_hal_rtc_ex.c ****     sTimeStampDate->Date = (uint8_t)RTC_Bcd2ToByte(sTimeStampDate->Date);
 333:Drivers/STM32F3xx_HAL_Driver/Src/stm32f3xx_hal_rtc_ex.c ****     sTimeStampDate->WeekDay = (uint8_t)RTC_Bcd2ToByte(sTimeStampDate->WeekDay);
 334:Drivers/STM32F3xx_HAL_Driver/Src/stm32f3xx_hal_rtc_ex.c ****   }
 335:Drivers/STM32F3xx_HAL_Driver/Src/stm32f3xx_hal_rtc_ex.c **** 
 336:Drivers/STM32F3xx_HAL_Driver/Src/stm32f3xx_hal_rtc_ex.c ****   /* Clear the TIMESTAMP Flag */
 337:Drivers/STM32F3xx_HAL_Driver/Src/stm32f3xx_hal_rtc_ex.c ****   __HAL_RTC_TIMESTAMP_CLEAR_FLAG(hrtc, RTC_FLAG_TSF);
ARM GAS  /var/folders/p7/nwmyw04531jbkqkgv59cx10h0000gn/T//cchGdzVf.s 			page 13


 350              		.loc 1 337 0
 351 004e 3268     		ldr	r2, [r6]
 352 0050 D368     		ldr	r3, [r2, #12]
 353 0052 DBB2     		uxtb	r3, r3
 354 0054 63F40863 		orn	r3, r3, #2176
 355 0058 D360     		str	r3, [r2, #12]
 338:Drivers/STM32F3xx_HAL_Driver/Src/stm32f3xx_hal_rtc_ex.c **** 
 339:Drivers/STM32F3xx_HAL_Driver/Src/stm32f3xx_hal_rtc_ex.c ****   return HAL_OK;
 340:Drivers/STM32F3xx_HAL_Driver/Src/stm32f3xx_hal_rtc_ex.c **** }
 356              		.loc 1 340 0
 357 005a 0020     		movs	r0, #0
 358 005c F8BD     		pop	{r3, r4, r5, r6, r7, pc}
 359              	.LVL35:
 360              	.L23:
 326:Drivers/STM32F3xx_HAL_Driver/Src/stm32f3xx_hal_rtc_ex.c ****     sTimeStamp->Minutes = (uint8_t)RTC_Bcd2ToByte(sTimeStamp->Minutes);
 361              		.loc 1 326 0
 362 005e 2078     		ldrb	r0, [r4]	@ zero_extendqisi2
 363 0060 FFF7FEFF 		bl	RTC_Bcd2ToByte
 364              	.LVL36:
 365 0064 2070     		strb	r0, [r4]
 327:Drivers/STM32F3xx_HAL_Driver/Src/stm32f3xx_hal_rtc_ex.c ****     sTimeStamp->Seconds = (uint8_t)RTC_Bcd2ToByte(sTimeStamp->Seconds);
 366              		.loc 1 327 0
 367 0066 6078     		ldrb	r0, [r4, #1]	@ zero_extendqisi2
 368 0068 FFF7FEFF 		bl	RTC_Bcd2ToByte
 369              	.LVL37:
 370 006c 6070     		strb	r0, [r4, #1]
 328:Drivers/STM32F3xx_HAL_Driver/Src/stm32f3xx_hal_rtc_ex.c **** 
 371              		.loc 1 328 0
 372 006e A078     		ldrb	r0, [r4, #2]	@ zero_extendqisi2
 373 0070 FFF7FEFF 		bl	RTC_Bcd2ToByte
 374              	.LVL38:
 375 0074 A070     		strb	r0, [r4, #2]
 331:Drivers/STM32F3xx_HAL_Driver/Src/stm32f3xx_hal_rtc_ex.c ****     sTimeStampDate->Date = (uint8_t)RTC_Bcd2ToByte(sTimeStampDate->Date);
 376              		.loc 1 331 0
 377 0076 6878     		ldrb	r0, [r5, #1]	@ zero_extendqisi2
 378 0078 FFF7FEFF 		bl	RTC_Bcd2ToByte
 379              	.LVL39:
 380 007c 6870     		strb	r0, [r5, #1]
 332:Drivers/STM32F3xx_HAL_Driver/Src/stm32f3xx_hal_rtc_ex.c ****     sTimeStampDate->WeekDay = (uint8_t)RTC_Bcd2ToByte(sTimeStampDate->WeekDay);
 381              		.loc 1 332 0
 382 007e A878     		ldrb	r0, [r5, #2]	@ zero_extendqisi2
 383 0080 FFF7FEFF 		bl	RTC_Bcd2ToByte
 384              	.LVL40:
 385 0084 A870     		strb	r0, [r5, #2]
 333:Drivers/STM32F3xx_HAL_Driver/Src/stm32f3xx_hal_rtc_ex.c ****   }
 386              		.loc 1 333 0
 387 0086 2878     		ldrb	r0, [r5]	@ zero_extendqisi2
 388 0088 FFF7FEFF 		bl	RTC_Bcd2ToByte
 389              	.LVL41:
 390 008c 2870     		strb	r0, [r5]
 391 008e DEE7     		b	.L21
 392              		.cfi_endproc
 393              	.LFE127:
 395              		.section	.text.HAL_RTCEx_SetTamper,"ax",%progbits
 396              		.align	1
 397              		.global	HAL_RTCEx_SetTamper
 398              		.syntax unified
ARM GAS  /var/folders/p7/nwmyw04531jbkqkgv59cx10h0000gn/T//cchGdzVf.s 			page 14


 399              		.thumb
 400              		.thumb_func
 401              		.fpu fpv4-sp-d16
 403              	HAL_RTCEx_SetTamper:
 404              	.LFB128:
 341:Drivers/STM32F3xx_HAL_Driver/Src/stm32f3xx_hal_rtc_ex.c **** 
 342:Drivers/STM32F3xx_HAL_Driver/Src/stm32f3xx_hal_rtc_ex.c **** /**
 343:Drivers/STM32F3xx_HAL_Driver/Src/stm32f3xx_hal_rtc_ex.c ****   * @brief  Set Tamper
 344:Drivers/STM32F3xx_HAL_Driver/Src/stm32f3xx_hal_rtc_ex.c ****   * @note   By calling this API we disable the tamper interrupt for all tampers. 
 345:Drivers/STM32F3xx_HAL_Driver/Src/stm32f3xx_hal_rtc_ex.c ****   * @param  hrtc: RTC handle
 346:Drivers/STM32F3xx_HAL_Driver/Src/stm32f3xx_hal_rtc_ex.c ****   * @param  sTamper: Pointer to Tamper Structure.
 347:Drivers/STM32F3xx_HAL_Driver/Src/stm32f3xx_hal_rtc_ex.c ****   * @retval HAL status
 348:Drivers/STM32F3xx_HAL_Driver/Src/stm32f3xx_hal_rtc_ex.c ****   */
 349:Drivers/STM32F3xx_HAL_Driver/Src/stm32f3xx_hal_rtc_ex.c **** HAL_StatusTypeDef HAL_RTCEx_SetTamper(RTC_HandleTypeDef *hrtc, RTC_TamperTypeDef* sTamper)
 350:Drivers/STM32F3xx_HAL_Driver/Src/stm32f3xx_hal_rtc_ex.c **** {
 405              		.loc 1 350 0
 406              		.cfi_startproc
 407              		@ args = 0, pretend = 0, frame = 0
 408              		@ frame_needed = 0, uses_anonymous_args = 0
 409              		@ link register save eliminated.
 410              	.LVL42:
 351:Drivers/STM32F3xx_HAL_Driver/Src/stm32f3xx_hal_rtc_ex.c ****   uint32_t tmpreg = 0U;
 352:Drivers/STM32F3xx_HAL_Driver/Src/stm32f3xx_hal_rtc_ex.c **** 
 353:Drivers/STM32F3xx_HAL_Driver/Src/stm32f3xx_hal_rtc_ex.c ****   /* Check the parameters */
 354:Drivers/STM32F3xx_HAL_Driver/Src/stm32f3xx_hal_rtc_ex.c ****   assert_param(IS_RTC_TAMPER(sTamper->Tamper));
 355:Drivers/STM32F3xx_HAL_Driver/Src/stm32f3xx_hal_rtc_ex.c ****   assert_param(IS_RTC_TAMPER_TRIGGER(sTamper->Trigger));
 356:Drivers/STM32F3xx_HAL_Driver/Src/stm32f3xx_hal_rtc_ex.c ****   assert_param(IS_RTC_TAMPER_FILTER(sTamper->Filter));
 357:Drivers/STM32F3xx_HAL_Driver/Src/stm32f3xx_hal_rtc_ex.c ****   assert_param(IS_RTC_TAMPER_SAMPLING_FREQ(sTamper->SamplingFrequency));
 358:Drivers/STM32F3xx_HAL_Driver/Src/stm32f3xx_hal_rtc_ex.c ****   assert_param(IS_RTC_TAMPER_PRECHARGE_DURATION(sTamper->PrechargeDuration));
 359:Drivers/STM32F3xx_HAL_Driver/Src/stm32f3xx_hal_rtc_ex.c ****   assert_param(IS_RTC_TAMPER_PULLUP_STATE(sTamper->TamperPullUp));
 360:Drivers/STM32F3xx_HAL_Driver/Src/stm32f3xx_hal_rtc_ex.c ****   assert_param(IS_RTC_TAMPER_TIMESTAMPONTAMPER_DETECTION(sTamper->TimeStampOnTamperDetection));
 361:Drivers/STM32F3xx_HAL_Driver/Src/stm32f3xx_hal_rtc_ex.c **** 
 362:Drivers/STM32F3xx_HAL_Driver/Src/stm32f3xx_hal_rtc_ex.c ****   /* Process Locked */
 363:Drivers/STM32F3xx_HAL_Driver/Src/stm32f3xx_hal_rtc_ex.c ****   __HAL_LOCK(hrtc);
 411              		.loc 1 363 0
 412 0000 037F     		ldrb	r3, [r0, #28]	@ zero_extendqisi2
 413 0002 012B     		cmp	r3, #1
 414 0004 2DD0     		beq	.L27
 350:Drivers/STM32F3xx_HAL_Driver/Src/stm32f3xx_hal_rtc_ex.c ****   uint32_t tmpreg = 0U;
 415              		.loc 1 350 0 discriminator 2
 416 0006 10B4     		push	{r4}
 417              	.LCFI5:
 418              		.cfi_def_cfa_offset 4
 419              		.cfi_offset 4, -4
 420              		.loc 1 363 0 discriminator 2
 421 0008 0123     		movs	r3, #1
 422 000a 0377     		strb	r3, [r0, #28]
 364:Drivers/STM32F3xx_HAL_Driver/Src/stm32f3xx_hal_rtc_ex.c **** 
 365:Drivers/STM32F3xx_HAL_Driver/Src/stm32f3xx_hal_rtc_ex.c ****   hrtc->State = HAL_RTC_STATE_BUSY;
 423              		.loc 1 365 0 discriminator 2
 424 000c 0223     		movs	r3, #2
 425 000e 4377     		strb	r3, [r0, #29]
 366:Drivers/STM32F3xx_HAL_Driver/Src/stm32f3xx_hal_rtc_ex.c **** 
 367:Drivers/STM32F3xx_HAL_Driver/Src/stm32f3xx_hal_rtc_ex.c ****   if(sTamper->Trigger != RTC_TAMPERTRIGGER_RISINGEDGE)
 426              		.loc 1 367 0 discriminator 2
 427 0010 4B68     		ldr	r3, [r1, #4]
 428 0012 13B1     		cbz	r3, .L26
ARM GAS  /var/folders/p7/nwmyw04531jbkqkgv59cx10h0000gn/T//cchGdzVf.s 			page 15


 368:Drivers/STM32F3xx_HAL_Driver/Src/stm32f3xx_hal_rtc_ex.c ****   {
 369:Drivers/STM32F3xx_HAL_Driver/Src/stm32f3xx_hal_rtc_ex.c ****     sTamper->Trigger = (uint32_t)(sTamper->Tamper << 1U);
 429              		.loc 1 369 0
 430 0014 0B68     		ldr	r3, [r1]
 431 0016 5B00     		lsls	r3, r3, #1
 432 0018 4B60     		str	r3, [r1, #4]
 433              	.L26:
 370:Drivers/STM32F3xx_HAL_Driver/Src/stm32f3xx_hal_rtc_ex.c ****   }
 371:Drivers/STM32F3xx_HAL_Driver/Src/stm32f3xx_hal_rtc_ex.c **** 
 372:Drivers/STM32F3xx_HAL_Driver/Src/stm32f3xx_hal_rtc_ex.c ****   tmpreg = ((uint32_t)sTamper->Tamper | (uint32_t)sTamper->Trigger | (uint32_t)sTamper->Filter |\
 434              		.loc 1 372 0
 435 001a 0A68     		ldr	r2, [r1]
 436 001c 4B68     		ldr	r3, [r1, #4]
 437 001e 1343     		orrs	r3, r3, r2
 438 0020 8C68     		ldr	r4, [r1, #8]
 439 0022 2343     		orrs	r3, r3, r4
 373:Drivers/STM32F3xx_HAL_Driver/Src/stm32f3xx_hal_rtc_ex.c ****             (uint32_t)sTamper->SamplingFrequency | (uint32_t)sTamper->PrechargeDuration |\
 440              		.loc 1 373 0
 441 0024 CC68     		ldr	r4, [r1, #12]
 372:Drivers/STM32F3xx_HAL_Driver/Src/stm32f3xx_hal_rtc_ex.c ****             (uint32_t)sTamper->SamplingFrequency | (uint32_t)sTamper->PrechargeDuration |\
 442              		.loc 1 372 0
 443 0026 2343     		orrs	r3, r3, r4
 444              		.loc 1 373 0
 445 0028 0C69     		ldr	r4, [r1, #16]
 446 002a 2343     		orrs	r3, r3, r4
 374:Drivers/STM32F3xx_HAL_Driver/Src/stm32f3xx_hal_rtc_ex.c ****             (uint32_t)sTamper->TamperPullUp | sTamper->TimeStampOnTamperDetection);
 447              		.loc 1 374 0
 448 002c 4C69     		ldr	r4, [r1, #20]
 373:Drivers/STM32F3xx_HAL_Driver/Src/stm32f3xx_hal_rtc_ex.c ****             (uint32_t)sTamper->SamplingFrequency | (uint32_t)sTamper->PrechargeDuration |\
 449              		.loc 1 373 0
 450 002e 2343     		orrs	r3, r3, r4
 451              		.loc 1 374 0
 452 0030 8969     		ldr	r1, [r1, #24]
 453              	.LVL43:
 372:Drivers/STM32F3xx_HAL_Driver/Src/stm32f3xx_hal_rtc_ex.c ****             (uint32_t)sTamper->SamplingFrequency | (uint32_t)sTamper->PrechargeDuration |\
 454              		.loc 1 372 0
 455 0032 0B43     		orrs	r3, r3, r1
 456              	.LVL44:
 375:Drivers/STM32F3xx_HAL_Driver/Src/stm32f3xx_hal_rtc_ex.c **** 
 376:Drivers/STM32F3xx_HAL_Driver/Src/stm32f3xx_hal_rtc_ex.c ****   hrtc->Instance->TAFCR &= (uint32_t)~((uint32_t)sTamper->Tamper | (uint32_t)(sTamper->Tamper << 1U
 457              		.loc 1 376 0
 458 0034 0468     		ldr	r4, [r0]
 459 0036 216C     		ldr	r1, [r4, #64]
 460 0038 42EA4202 		orr	r2, r2, r2, lsl #1
 377:Drivers/STM32F3xx_HAL_Driver/Src/stm32f3xx_hal_rtc_ex.c ****                                        (uint32_t)RTC_TAFCR_TAMPFREQ | (uint32_t)RTC_TAFCR_TAMPFLT |
 378:Drivers/STM32F3xx_HAL_Driver/Src/stm32f3xx_hal_rtc_ex.c ****                                        (uint32_t)RTC_TAFCR_TAMPPUDIS | (uint32_t)RTC_TAFCR_TAMPIE);
 461              		.loc 1 378 0
 462 003c 42F47F42 		orr	r2, r2, #65280
 463 0040 42F08402 		orr	r2, r2, #132
 376:Drivers/STM32F3xx_HAL_Driver/Src/stm32f3xx_hal_rtc_ex.c ****                                        (uint32_t)RTC_TAFCR_TAMPFREQ | (uint32_t)RTC_TAFCR_TAMPFLT |
 464              		.loc 1 376 0
 465 0044 21EA0202 		bic	r2, r1, r2
 466 0048 2264     		str	r2, [r4, #64]
 379:Drivers/STM32F3xx_HAL_Driver/Src/stm32f3xx_hal_rtc_ex.c **** 
 380:Drivers/STM32F3xx_HAL_Driver/Src/stm32f3xx_hal_rtc_ex.c ****   hrtc->Instance->TAFCR |= tmpreg;
 467              		.loc 1 380 0
 468 004a 0268     		ldr	r2, [r0]
ARM GAS  /var/folders/p7/nwmyw04531jbkqkgv59cx10h0000gn/T//cchGdzVf.s 			page 16


 469 004c 116C     		ldr	r1, [r2, #64]
 470 004e 0B43     		orrs	r3, r3, r1
 471              	.LVL45:
 472 0050 1364     		str	r3, [r2, #64]
 381:Drivers/STM32F3xx_HAL_Driver/Src/stm32f3xx_hal_rtc_ex.c ****   
 382:Drivers/STM32F3xx_HAL_Driver/Src/stm32f3xx_hal_rtc_ex.c ****   hrtc->State = HAL_RTC_STATE_READY; 
 473              		.loc 1 382 0
 474 0052 0123     		movs	r3, #1
 475 0054 4377     		strb	r3, [r0, #29]
 383:Drivers/STM32F3xx_HAL_Driver/Src/stm32f3xx_hal_rtc_ex.c **** 
 384:Drivers/STM32F3xx_HAL_Driver/Src/stm32f3xx_hal_rtc_ex.c ****   /* Process Unlocked */
 385:Drivers/STM32F3xx_HAL_Driver/Src/stm32f3xx_hal_rtc_ex.c ****   __HAL_UNLOCK(hrtc);
 476              		.loc 1 385 0
 477 0056 0023     		movs	r3, #0
 478 0058 0377     		strb	r3, [r0, #28]
 386:Drivers/STM32F3xx_HAL_Driver/Src/stm32f3xx_hal_rtc_ex.c **** 
 387:Drivers/STM32F3xx_HAL_Driver/Src/stm32f3xx_hal_rtc_ex.c ****   return HAL_OK;
 479              		.loc 1 387 0
 480 005a 1846     		mov	r0, r3
 481              	.LVL46:
 388:Drivers/STM32F3xx_HAL_Driver/Src/stm32f3xx_hal_rtc_ex.c **** }
 482              		.loc 1 388 0
 483 005c 5DF8044B 		ldr	r4, [sp], #4
 484              	.LCFI6:
 485              		.cfi_restore 4
 486              		.cfi_def_cfa_offset 0
 487 0060 7047     		bx	lr
 488              	.LVL47:
 489              	.L27:
 363:Drivers/STM32F3xx_HAL_Driver/Src/stm32f3xx_hal_rtc_ex.c **** 
 490              		.loc 1 363 0
 491 0062 0220     		movs	r0, #2
 492              	.LVL48:
 493 0064 7047     		bx	lr
 494              		.cfi_endproc
 495              	.LFE128:
 497              		.section	.text.HAL_RTCEx_SetTamper_IT,"ax",%progbits
 498              		.align	1
 499              		.global	HAL_RTCEx_SetTamper_IT
 500              		.syntax unified
 501              		.thumb
 502              		.thumb_func
 503              		.fpu fpv4-sp-d16
 505              	HAL_RTCEx_SetTamper_IT:
 506              	.LFB129:
 389:Drivers/STM32F3xx_HAL_Driver/Src/stm32f3xx_hal_rtc_ex.c **** 
 390:Drivers/STM32F3xx_HAL_Driver/Src/stm32f3xx_hal_rtc_ex.c **** /**
 391:Drivers/STM32F3xx_HAL_Driver/Src/stm32f3xx_hal_rtc_ex.c ****   * @brief  Set Tamper with interrupt.
 392:Drivers/STM32F3xx_HAL_Driver/Src/stm32f3xx_hal_rtc_ex.c ****   * @note   By calling this API we force the tamper interrupt for all tampers.
 393:Drivers/STM32F3xx_HAL_Driver/Src/stm32f3xx_hal_rtc_ex.c ****   * @param  hrtc: RTC handle
 394:Drivers/STM32F3xx_HAL_Driver/Src/stm32f3xx_hal_rtc_ex.c ****   * @param  sTamper: Pointer to RTC Tamper.
 395:Drivers/STM32F3xx_HAL_Driver/Src/stm32f3xx_hal_rtc_ex.c ****   * @retval HAL status
 396:Drivers/STM32F3xx_HAL_Driver/Src/stm32f3xx_hal_rtc_ex.c ****   */
 397:Drivers/STM32F3xx_HAL_Driver/Src/stm32f3xx_hal_rtc_ex.c **** HAL_StatusTypeDef HAL_RTCEx_SetTamper_IT(RTC_HandleTypeDef *hrtc, RTC_TamperTypeDef* sTamper)
 398:Drivers/STM32F3xx_HAL_Driver/Src/stm32f3xx_hal_rtc_ex.c **** {
 507              		.loc 1 398 0
 508              		.cfi_startproc
ARM GAS  /var/folders/p7/nwmyw04531jbkqkgv59cx10h0000gn/T//cchGdzVf.s 			page 17


 509              		@ args = 0, pretend = 0, frame = 0
 510              		@ frame_needed = 0, uses_anonymous_args = 0
 511              		@ link register save eliminated.
 512              	.LVL49:
 399:Drivers/STM32F3xx_HAL_Driver/Src/stm32f3xx_hal_rtc_ex.c ****   uint32_t tmpreg = 0U;
 400:Drivers/STM32F3xx_HAL_Driver/Src/stm32f3xx_hal_rtc_ex.c **** 
 401:Drivers/STM32F3xx_HAL_Driver/Src/stm32f3xx_hal_rtc_ex.c ****   /* Check the parameters */
 402:Drivers/STM32F3xx_HAL_Driver/Src/stm32f3xx_hal_rtc_ex.c ****   assert_param(IS_RTC_TAMPER(sTamper->Tamper)); 
 403:Drivers/STM32F3xx_HAL_Driver/Src/stm32f3xx_hal_rtc_ex.c ****   assert_param(IS_RTC_TAMPER_TRIGGER(sTamper->Trigger));
 404:Drivers/STM32F3xx_HAL_Driver/Src/stm32f3xx_hal_rtc_ex.c ****   assert_param(IS_RTC_TAMPER_FILTER(sTamper->Filter));
 405:Drivers/STM32F3xx_HAL_Driver/Src/stm32f3xx_hal_rtc_ex.c ****   assert_param(IS_RTC_TAMPER_SAMPLING_FREQ(sTamper->SamplingFrequency));
 406:Drivers/STM32F3xx_HAL_Driver/Src/stm32f3xx_hal_rtc_ex.c ****   assert_param(IS_RTC_TAMPER_PRECHARGE_DURATION(sTamper->PrechargeDuration));
 407:Drivers/STM32F3xx_HAL_Driver/Src/stm32f3xx_hal_rtc_ex.c ****   assert_param(IS_RTC_TAMPER_PULLUP_STATE(sTamper->TamperPullUp));
 408:Drivers/STM32F3xx_HAL_Driver/Src/stm32f3xx_hal_rtc_ex.c ****   assert_param(IS_RTC_TAMPER_TIMESTAMPONTAMPER_DETECTION(sTamper->TimeStampOnTamperDetection));
 409:Drivers/STM32F3xx_HAL_Driver/Src/stm32f3xx_hal_rtc_ex.c **** 
 410:Drivers/STM32F3xx_HAL_Driver/Src/stm32f3xx_hal_rtc_ex.c ****   /* Process Locked */
 411:Drivers/STM32F3xx_HAL_Driver/Src/stm32f3xx_hal_rtc_ex.c ****   __HAL_LOCK(hrtc);
 513              		.loc 1 411 0
 514 0000 037F     		ldrb	r3, [r0, #28]	@ zero_extendqisi2
 515 0002 012B     		cmp	r3, #1
 516 0004 3BD0     		beq	.L35
 398:Drivers/STM32F3xx_HAL_Driver/Src/stm32f3xx_hal_rtc_ex.c ****   uint32_t tmpreg = 0U;
 517              		.loc 1 398 0 discriminator 2
 518 0006 10B4     		push	{r4}
 519              	.LCFI7:
 520              		.cfi_def_cfa_offset 4
 521              		.cfi_offset 4, -4
 522              		.loc 1 411 0 discriminator 2
 523 0008 0123     		movs	r3, #1
 524 000a 0377     		strb	r3, [r0, #28]
 412:Drivers/STM32F3xx_HAL_Driver/Src/stm32f3xx_hal_rtc_ex.c **** 
 413:Drivers/STM32F3xx_HAL_Driver/Src/stm32f3xx_hal_rtc_ex.c ****   hrtc->State = HAL_RTC_STATE_BUSY;
 525              		.loc 1 413 0 discriminator 2
 526 000c 0223     		movs	r3, #2
 527 000e 4377     		strb	r3, [r0, #29]
 414:Drivers/STM32F3xx_HAL_Driver/Src/stm32f3xx_hal_rtc_ex.c **** 
 415:Drivers/STM32F3xx_HAL_Driver/Src/stm32f3xx_hal_rtc_ex.c ****   /* Configure the tamper trigger */
 416:Drivers/STM32F3xx_HAL_Driver/Src/stm32f3xx_hal_rtc_ex.c ****   if(sTamper->Trigger != RTC_TAMPERTRIGGER_RISINGEDGE)
 528              		.loc 1 416 0 discriminator 2
 529 0010 4B68     		ldr	r3, [r1, #4]
 530 0012 13B1     		cbz	r3, .L34
 417:Drivers/STM32F3xx_HAL_Driver/Src/stm32f3xx_hal_rtc_ex.c ****   {
 418:Drivers/STM32F3xx_HAL_Driver/Src/stm32f3xx_hal_rtc_ex.c ****     sTamper->Trigger = (uint32_t) (sTamper->Tamper<<1U);
 531              		.loc 1 418 0
 532 0014 0B68     		ldr	r3, [r1]
 533 0016 5B00     		lsls	r3, r3, #1
 534 0018 4B60     		str	r3, [r1, #4]
 535              	.L34:
 419:Drivers/STM32F3xx_HAL_Driver/Src/stm32f3xx_hal_rtc_ex.c ****   }
 420:Drivers/STM32F3xx_HAL_Driver/Src/stm32f3xx_hal_rtc_ex.c **** 
 421:Drivers/STM32F3xx_HAL_Driver/Src/stm32f3xx_hal_rtc_ex.c ****   tmpreg = ((uint32_t)sTamper->Tamper | (uint32_t)sTamper->Trigger | (uint32_t)sTamper->Filter |\
 536              		.loc 1 421 0
 537 001a 0A68     		ldr	r2, [r1]
 538 001c 4B68     		ldr	r3, [r1, #4]
 539 001e 1343     		orrs	r3, r3, r2
 540 0020 8C68     		ldr	r4, [r1, #8]
 541 0022 2343     		orrs	r3, r3, r4
ARM GAS  /var/folders/p7/nwmyw04531jbkqkgv59cx10h0000gn/T//cchGdzVf.s 			page 18


 422:Drivers/STM32F3xx_HAL_Driver/Src/stm32f3xx_hal_rtc_ex.c ****             (uint32_t)sTamper->SamplingFrequency | (uint32_t)sTamper->PrechargeDuration |\
 542              		.loc 1 422 0
 543 0024 CC68     		ldr	r4, [r1, #12]
 421:Drivers/STM32F3xx_HAL_Driver/Src/stm32f3xx_hal_rtc_ex.c ****             (uint32_t)sTamper->SamplingFrequency | (uint32_t)sTamper->PrechargeDuration |\
 544              		.loc 1 421 0
 545 0026 2343     		orrs	r3, r3, r4
 546              		.loc 1 422 0
 547 0028 0C69     		ldr	r4, [r1, #16]
 548 002a 2343     		orrs	r3, r3, r4
 423:Drivers/STM32F3xx_HAL_Driver/Src/stm32f3xx_hal_rtc_ex.c ****             (uint32_t)sTamper->TamperPullUp | sTamper->TimeStampOnTamperDetection);
 549              		.loc 1 423 0
 550 002c 4C69     		ldr	r4, [r1, #20]
 422:Drivers/STM32F3xx_HAL_Driver/Src/stm32f3xx_hal_rtc_ex.c ****             (uint32_t)sTamper->SamplingFrequency | (uint32_t)sTamper->PrechargeDuration |\
 551              		.loc 1 422 0
 552 002e 2343     		orrs	r3, r3, r4
 553              		.loc 1 423 0
 554 0030 8969     		ldr	r1, [r1, #24]
 555              	.LVL50:
 421:Drivers/STM32F3xx_HAL_Driver/Src/stm32f3xx_hal_rtc_ex.c ****             (uint32_t)sTamper->SamplingFrequency | (uint32_t)sTamper->PrechargeDuration |\
 556              		.loc 1 421 0
 557 0032 0B43     		orrs	r3, r3, r1
 558              	.LVL51:
 424:Drivers/STM32F3xx_HAL_Driver/Src/stm32f3xx_hal_rtc_ex.c **** 
 425:Drivers/STM32F3xx_HAL_Driver/Src/stm32f3xx_hal_rtc_ex.c ****   hrtc->Instance->TAFCR &= (uint32_t)~((uint32_t)sTamper->Tamper | (uint32_t)(sTamper->Tamper << 1U
 559              		.loc 1 425 0
 560 0034 0468     		ldr	r4, [r0]
 561 0036 216C     		ldr	r1, [r4, #64]
 562 0038 42EA4202 		orr	r2, r2, r2, lsl #1
 426:Drivers/STM32F3xx_HAL_Driver/Src/stm32f3xx_hal_rtc_ex.c ****                                        (uint32_t)RTC_TAFCR_TAMPFREQ | (uint32_t)RTC_TAFCR_TAMPFLT |
 563              		.loc 1 426 0
 564 003c 42F47F42 		orr	r2, r2, #65280
 565 0040 42F08002 		orr	r2, r2, #128
 425:Drivers/STM32F3xx_HAL_Driver/Src/stm32f3xx_hal_rtc_ex.c ****                                        (uint32_t)RTC_TAFCR_TAMPFREQ | (uint32_t)RTC_TAFCR_TAMPFLT |
 566              		.loc 1 425 0
 567 0044 21EA0202 		bic	r2, r1, r2
 568 0048 2264     		str	r2, [r4, #64]
 427:Drivers/STM32F3xx_HAL_Driver/Src/stm32f3xx_hal_rtc_ex.c ****                                        (uint32_t)RTC_TAFCR_TAMPPUDIS);
 428:Drivers/STM32F3xx_HAL_Driver/Src/stm32f3xx_hal_rtc_ex.c **** 
 429:Drivers/STM32F3xx_HAL_Driver/Src/stm32f3xx_hal_rtc_ex.c ****   hrtc->Instance->TAFCR |= tmpreg;
 569              		.loc 1 429 0
 570 004a 0268     		ldr	r2, [r0]
 571 004c 116C     		ldr	r1, [r2, #64]
 572 004e 0B43     		orrs	r3, r3, r1
 573              	.LVL52:
 574 0050 1364     		str	r3, [r2, #64]
 430:Drivers/STM32F3xx_HAL_Driver/Src/stm32f3xx_hal_rtc_ex.c **** 
 431:Drivers/STM32F3xx_HAL_Driver/Src/stm32f3xx_hal_rtc_ex.c ****   /* Configure the Tamper Interrupt in the RTC_TAFCR */
 432:Drivers/STM32F3xx_HAL_Driver/Src/stm32f3xx_hal_rtc_ex.c ****   hrtc->Instance->TAFCR |= (uint32_t)RTC_TAFCR_TAMPIE;
 575              		.loc 1 432 0
 576 0052 0268     		ldr	r2, [r0]
 577 0054 136C     		ldr	r3, [r2, #64]
 578 0056 43F00403 		orr	r3, r3, #4
 579 005a 1364     		str	r3, [r2, #64]
 433:Drivers/STM32F3xx_HAL_Driver/Src/stm32f3xx_hal_rtc_ex.c **** 
 434:Drivers/STM32F3xx_HAL_Driver/Src/stm32f3xx_hal_rtc_ex.c ****   /* RTC Tamper Interrupt Configuration: EXTI configuration */
 435:Drivers/STM32F3xx_HAL_Driver/Src/stm32f3xx_hal_rtc_ex.c ****   __HAL_RTC_TAMPER_TIMESTAMP_EXTI_ENABLE_IT();
 580              		.loc 1 435 0
ARM GAS  /var/folders/p7/nwmyw04531jbkqkgv59cx10h0000gn/T//cchGdzVf.s 			page 19


 581 005c 094B     		ldr	r3, .L40
 582 005e 1A68     		ldr	r2, [r3]
 583 0060 42F40022 		orr	r2, r2, #524288
 584 0064 1A60     		str	r2, [r3]
 436:Drivers/STM32F3xx_HAL_Driver/Src/stm32f3xx_hal_rtc_ex.c ****   
 437:Drivers/STM32F3xx_HAL_Driver/Src/stm32f3xx_hal_rtc_ex.c ****   __HAL_RTC_TAMPER_TIMESTAMP_EXTI_ENABLE_RISING_EDGE();
 585              		.loc 1 437 0
 586 0066 9A68     		ldr	r2, [r3, #8]
 587 0068 42F40022 		orr	r2, r2, #524288
 588 006c 9A60     		str	r2, [r3, #8]
 438:Drivers/STM32F3xx_HAL_Driver/Src/stm32f3xx_hal_rtc_ex.c **** 
 439:Drivers/STM32F3xx_HAL_Driver/Src/stm32f3xx_hal_rtc_ex.c ****   hrtc->State = HAL_RTC_STATE_READY;
 589              		.loc 1 439 0
 590 006e 0123     		movs	r3, #1
 591 0070 4377     		strb	r3, [r0, #29]
 440:Drivers/STM32F3xx_HAL_Driver/Src/stm32f3xx_hal_rtc_ex.c **** 
 441:Drivers/STM32F3xx_HAL_Driver/Src/stm32f3xx_hal_rtc_ex.c ****   /* Process Unlocked */
 442:Drivers/STM32F3xx_HAL_Driver/Src/stm32f3xx_hal_rtc_ex.c ****   __HAL_UNLOCK(hrtc);
 592              		.loc 1 442 0
 593 0072 0023     		movs	r3, #0
 594 0074 0377     		strb	r3, [r0, #28]
 443:Drivers/STM32F3xx_HAL_Driver/Src/stm32f3xx_hal_rtc_ex.c **** 
 444:Drivers/STM32F3xx_HAL_Driver/Src/stm32f3xx_hal_rtc_ex.c ****   return HAL_OK;
 595              		.loc 1 444 0
 596 0076 1846     		mov	r0, r3
 597              	.LVL53:
 445:Drivers/STM32F3xx_HAL_Driver/Src/stm32f3xx_hal_rtc_ex.c **** }
 598              		.loc 1 445 0
 599 0078 5DF8044B 		ldr	r4, [sp], #4
 600              	.LCFI8:
 601              		.cfi_restore 4
 602              		.cfi_def_cfa_offset 0
 603 007c 7047     		bx	lr
 604              	.LVL54:
 605              	.L35:
 411:Drivers/STM32F3xx_HAL_Driver/Src/stm32f3xx_hal_rtc_ex.c **** 
 606              		.loc 1 411 0
 607 007e 0220     		movs	r0, #2
 608              	.LVL55:
 609 0080 7047     		bx	lr
 610              	.L41:
 611 0082 00BF     		.align	2
 612              	.L40:
 613 0084 00040140 		.word	1073808384
 614              		.cfi_endproc
 615              	.LFE129:
 617              		.section	.text.HAL_RTCEx_DeactivateTamper,"ax",%progbits
 618              		.align	1
 619              		.global	HAL_RTCEx_DeactivateTamper
 620              		.syntax unified
 621              		.thumb
 622              		.thumb_func
 623              		.fpu fpv4-sp-d16
 625              	HAL_RTCEx_DeactivateTamper:
 626              	.LFB130:
 446:Drivers/STM32F3xx_HAL_Driver/Src/stm32f3xx_hal_rtc_ex.c **** 
 447:Drivers/STM32F3xx_HAL_Driver/Src/stm32f3xx_hal_rtc_ex.c **** /**
ARM GAS  /var/folders/p7/nwmyw04531jbkqkgv59cx10h0000gn/T//cchGdzVf.s 			page 20


 448:Drivers/STM32F3xx_HAL_Driver/Src/stm32f3xx_hal_rtc_ex.c ****   * @brief  Deactivate Tamper.
 449:Drivers/STM32F3xx_HAL_Driver/Src/stm32f3xx_hal_rtc_ex.c ****   * @param  hrtc: RTC handle
 450:Drivers/STM32F3xx_HAL_Driver/Src/stm32f3xx_hal_rtc_ex.c ****   * @param  Tamper: Selected tamper pin.
 451:Drivers/STM32F3xx_HAL_Driver/Src/stm32f3xx_hal_rtc_ex.c ****   *          This parameter can be any combination of RTC_TAMPER_1, RTC_TAMPER_2 and RTC_TAMPER_3 (
 452:Drivers/STM32F3xx_HAL_Driver/Src/stm32f3xx_hal_rtc_ex.c ****   * @note   (*) RTC_TAMPER_3 not present on all the devices
 453:Drivers/STM32F3xx_HAL_Driver/Src/stm32f3xx_hal_rtc_ex.c ****   * @retval HAL status
 454:Drivers/STM32F3xx_HAL_Driver/Src/stm32f3xx_hal_rtc_ex.c ****   */
 455:Drivers/STM32F3xx_HAL_Driver/Src/stm32f3xx_hal_rtc_ex.c **** HAL_StatusTypeDef HAL_RTCEx_DeactivateTamper(RTC_HandleTypeDef *hrtc, uint32_t Tamper)
 456:Drivers/STM32F3xx_HAL_Driver/Src/stm32f3xx_hal_rtc_ex.c **** {
 627              		.loc 1 456 0
 628              		.cfi_startproc
 629              		@ args = 0, pretend = 0, frame = 0
 630              		@ frame_needed = 0, uses_anonymous_args = 0
 631              		@ link register save eliminated.
 632              	.LVL56:
 457:Drivers/STM32F3xx_HAL_Driver/Src/stm32f3xx_hal_rtc_ex.c ****   assert_param(IS_RTC_TAMPER(Tamper));
 458:Drivers/STM32F3xx_HAL_Driver/Src/stm32f3xx_hal_rtc_ex.c **** 
 459:Drivers/STM32F3xx_HAL_Driver/Src/stm32f3xx_hal_rtc_ex.c ****   /* Process Locked */
 460:Drivers/STM32F3xx_HAL_Driver/Src/stm32f3xx_hal_rtc_ex.c ****   __HAL_LOCK(hrtc);
 633              		.loc 1 460 0
 634 0000 037F     		ldrb	r3, [r0, #28]	@ zero_extendqisi2
 635 0002 012B     		cmp	r3, #1
 636 0004 10D0     		beq	.L44
 456:Drivers/STM32F3xx_HAL_Driver/Src/stm32f3xx_hal_rtc_ex.c ****   assert_param(IS_RTC_TAMPER(Tamper));
 637              		.loc 1 456 0 discriminator 2
 638 0006 10B4     		push	{r4}
 639              	.LCFI9:
 640              		.cfi_def_cfa_offset 4
 641              		.cfi_offset 4, -4
 642              		.loc 1 460 0 discriminator 2
 643 0008 0122     		movs	r2, #1
 644 000a 0277     		strb	r2, [r0, #28]
 461:Drivers/STM32F3xx_HAL_Driver/Src/stm32f3xx_hal_rtc_ex.c **** 
 462:Drivers/STM32F3xx_HAL_Driver/Src/stm32f3xx_hal_rtc_ex.c ****   hrtc->State = HAL_RTC_STATE_BUSY;
 645              		.loc 1 462 0 discriminator 2
 646 000c 0223     		movs	r3, #2
 647 000e 4377     		strb	r3, [r0, #29]
 463:Drivers/STM32F3xx_HAL_Driver/Src/stm32f3xx_hal_rtc_ex.c **** 
 464:Drivers/STM32F3xx_HAL_Driver/Src/stm32f3xx_hal_rtc_ex.c ****   /* Disable the selected Tamper pin */
 465:Drivers/STM32F3xx_HAL_Driver/Src/stm32f3xx_hal_rtc_ex.c ****   hrtc->Instance->TAFCR &= (uint32_t)~Tamper;
 648              		.loc 1 465 0 discriminator 2
 649 0010 0468     		ldr	r4, [r0]
 650 0012 236C     		ldr	r3, [r4, #64]
 651 0014 23EA0101 		bic	r1, r3, r1
 652              	.LVL57:
 653 0018 2164     		str	r1, [r4, #64]
 466:Drivers/STM32F3xx_HAL_Driver/Src/stm32f3xx_hal_rtc_ex.c **** 
 467:Drivers/STM32F3xx_HAL_Driver/Src/stm32f3xx_hal_rtc_ex.c ****   hrtc->State = HAL_RTC_STATE_READY;
 654              		.loc 1 467 0 discriminator 2
 655 001a 4277     		strb	r2, [r0, #29]
 468:Drivers/STM32F3xx_HAL_Driver/Src/stm32f3xx_hal_rtc_ex.c **** 
 469:Drivers/STM32F3xx_HAL_Driver/Src/stm32f3xx_hal_rtc_ex.c ****   /* Process Unlocked */
 470:Drivers/STM32F3xx_HAL_Driver/Src/stm32f3xx_hal_rtc_ex.c ****   __HAL_UNLOCK(hrtc);
 656              		.loc 1 470 0 discriminator 2
 657 001c 0023     		movs	r3, #0
 658 001e 0377     		strb	r3, [r0, #28]
 471:Drivers/STM32F3xx_HAL_Driver/Src/stm32f3xx_hal_rtc_ex.c **** 
ARM GAS  /var/folders/p7/nwmyw04531jbkqkgv59cx10h0000gn/T//cchGdzVf.s 			page 21


 472:Drivers/STM32F3xx_HAL_Driver/Src/stm32f3xx_hal_rtc_ex.c ****   return HAL_OK;
 659              		.loc 1 472 0 discriminator 2
 660 0020 1846     		mov	r0, r3
 661              	.LVL58:
 473:Drivers/STM32F3xx_HAL_Driver/Src/stm32f3xx_hal_rtc_ex.c **** }
 662              		.loc 1 473 0 discriminator 2
 663 0022 5DF8044B 		ldr	r4, [sp], #4
 664              	.LCFI10:
 665              		.cfi_restore 4
 666              		.cfi_def_cfa_offset 0
 667 0026 7047     		bx	lr
 668              	.LVL59:
 669              	.L44:
 460:Drivers/STM32F3xx_HAL_Driver/Src/stm32f3xx_hal_rtc_ex.c **** 
 670              		.loc 1 460 0
 671 0028 0220     		movs	r0, #2
 672              	.LVL60:
 673 002a 7047     		bx	lr
 674              		.cfi_endproc
 675              	.LFE130:
 677              		.section	.text.HAL_RTCEx_TimeStampEventCallback,"ax",%progbits
 678              		.align	1
 679              		.weak	HAL_RTCEx_TimeStampEventCallback
 680              		.syntax unified
 681              		.thumb
 682              		.thumb_func
 683              		.fpu fpv4-sp-d16
 685              	HAL_RTCEx_TimeStampEventCallback:
 686              	.LFB132:
 474:Drivers/STM32F3xx_HAL_Driver/Src/stm32f3xx_hal_rtc_ex.c **** 
 475:Drivers/STM32F3xx_HAL_Driver/Src/stm32f3xx_hal_rtc_ex.c **** /**
 476:Drivers/STM32F3xx_HAL_Driver/Src/stm32f3xx_hal_rtc_ex.c ****   * @brief  Handle TimeStamp interrupt request.
 477:Drivers/STM32F3xx_HAL_Driver/Src/stm32f3xx_hal_rtc_ex.c ****   * @param  hrtc: RTC handle
 478:Drivers/STM32F3xx_HAL_Driver/Src/stm32f3xx_hal_rtc_ex.c ****   * @retval None
 479:Drivers/STM32F3xx_HAL_Driver/Src/stm32f3xx_hal_rtc_ex.c ****   */
 480:Drivers/STM32F3xx_HAL_Driver/Src/stm32f3xx_hal_rtc_ex.c **** void HAL_RTCEx_TamperTimeStampIRQHandler(RTC_HandleTypeDef *hrtc)
 481:Drivers/STM32F3xx_HAL_Driver/Src/stm32f3xx_hal_rtc_ex.c **** {  
 482:Drivers/STM32F3xx_HAL_Driver/Src/stm32f3xx_hal_rtc_ex.c ****   /* Get the TimeStamp interrupt source enable status */
 483:Drivers/STM32F3xx_HAL_Driver/Src/stm32f3xx_hal_rtc_ex.c ****   if(__HAL_RTC_TIMESTAMP_GET_IT_SOURCE(hrtc, RTC_IT_TS) != RESET)
 484:Drivers/STM32F3xx_HAL_Driver/Src/stm32f3xx_hal_rtc_ex.c ****   {
 485:Drivers/STM32F3xx_HAL_Driver/Src/stm32f3xx_hal_rtc_ex.c ****     /* Get the pending status of the TIMESTAMP Interrupt */
 486:Drivers/STM32F3xx_HAL_Driver/Src/stm32f3xx_hal_rtc_ex.c ****     if(__HAL_RTC_TIMESTAMP_GET_FLAG(hrtc, RTC_FLAG_TSF) != RESET)
 487:Drivers/STM32F3xx_HAL_Driver/Src/stm32f3xx_hal_rtc_ex.c ****     {
 488:Drivers/STM32F3xx_HAL_Driver/Src/stm32f3xx_hal_rtc_ex.c ****       /* TIMESTAMP callback */ 
 489:Drivers/STM32F3xx_HAL_Driver/Src/stm32f3xx_hal_rtc_ex.c ****       HAL_RTCEx_TimeStampEventCallback(hrtc);
 490:Drivers/STM32F3xx_HAL_Driver/Src/stm32f3xx_hal_rtc_ex.c ****   
 491:Drivers/STM32F3xx_HAL_Driver/Src/stm32f3xx_hal_rtc_ex.c ****       /* Clear the TIMESTAMP interrupt pending bit */
 492:Drivers/STM32F3xx_HAL_Driver/Src/stm32f3xx_hal_rtc_ex.c ****       __HAL_RTC_TIMESTAMP_CLEAR_FLAG(hrtc,RTC_FLAG_TSF);
 493:Drivers/STM32F3xx_HAL_Driver/Src/stm32f3xx_hal_rtc_ex.c ****     }
 494:Drivers/STM32F3xx_HAL_Driver/Src/stm32f3xx_hal_rtc_ex.c ****   }
 495:Drivers/STM32F3xx_HAL_Driver/Src/stm32f3xx_hal_rtc_ex.c **** 
 496:Drivers/STM32F3xx_HAL_Driver/Src/stm32f3xx_hal_rtc_ex.c ****   /* Get the Tamper interrupts source enable status */
 497:Drivers/STM32F3xx_HAL_Driver/Src/stm32f3xx_hal_rtc_ex.c ****   if(__HAL_RTC_TAMPER_GET_IT_SOURCE(hrtc, RTC_IT_TAMP))
 498:Drivers/STM32F3xx_HAL_Driver/Src/stm32f3xx_hal_rtc_ex.c ****   {
 499:Drivers/STM32F3xx_HAL_Driver/Src/stm32f3xx_hal_rtc_ex.c ****    /* Get the pending status of the Tamper1 Interrupt */
 500:Drivers/STM32F3xx_HAL_Driver/Src/stm32f3xx_hal_rtc_ex.c ****     if(__HAL_RTC_TAMPER_GET_FLAG(hrtc, RTC_FLAG_TAMP1F) != RESET)
 501:Drivers/STM32F3xx_HAL_Driver/Src/stm32f3xx_hal_rtc_ex.c ****     {
ARM GAS  /var/folders/p7/nwmyw04531jbkqkgv59cx10h0000gn/T//cchGdzVf.s 			page 22


 502:Drivers/STM32F3xx_HAL_Driver/Src/stm32f3xx_hal_rtc_ex.c ****       /* Tamper1 callback */ 
 503:Drivers/STM32F3xx_HAL_Driver/Src/stm32f3xx_hal_rtc_ex.c ****       HAL_RTCEx_Tamper1EventCallback(hrtc);
 504:Drivers/STM32F3xx_HAL_Driver/Src/stm32f3xx_hal_rtc_ex.c ****   
 505:Drivers/STM32F3xx_HAL_Driver/Src/stm32f3xx_hal_rtc_ex.c ****       /* Clear the Tamper1 interrupt pending bit */
 506:Drivers/STM32F3xx_HAL_Driver/Src/stm32f3xx_hal_rtc_ex.c ****       __HAL_RTC_TAMPER_CLEAR_FLAG(hrtc,RTC_FLAG_TAMP1F);
 507:Drivers/STM32F3xx_HAL_Driver/Src/stm32f3xx_hal_rtc_ex.c ****     }
 508:Drivers/STM32F3xx_HAL_Driver/Src/stm32f3xx_hal_rtc_ex.c ****   }
 509:Drivers/STM32F3xx_HAL_Driver/Src/stm32f3xx_hal_rtc_ex.c **** 
 510:Drivers/STM32F3xx_HAL_Driver/Src/stm32f3xx_hal_rtc_ex.c ****   /* Get the Tamper interrupts source enable status */
 511:Drivers/STM32F3xx_HAL_Driver/Src/stm32f3xx_hal_rtc_ex.c ****   if(__HAL_RTC_TAMPER_GET_IT_SOURCE(hrtc, RTC_IT_TAMP))
 512:Drivers/STM32F3xx_HAL_Driver/Src/stm32f3xx_hal_rtc_ex.c ****   {
 513:Drivers/STM32F3xx_HAL_Driver/Src/stm32f3xx_hal_rtc_ex.c ****    /* Get the pending status of the Tamper2 Interrupt */
 514:Drivers/STM32F3xx_HAL_Driver/Src/stm32f3xx_hal_rtc_ex.c ****     if(__HAL_RTC_TAMPER_GET_FLAG(hrtc, RTC_FLAG_TAMP2F) != RESET)
 515:Drivers/STM32F3xx_HAL_Driver/Src/stm32f3xx_hal_rtc_ex.c ****     {
 516:Drivers/STM32F3xx_HAL_Driver/Src/stm32f3xx_hal_rtc_ex.c ****       /* Tamper2 callback */ 
 517:Drivers/STM32F3xx_HAL_Driver/Src/stm32f3xx_hal_rtc_ex.c ****       HAL_RTCEx_Tamper2EventCallback(hrtc);
 518:Drivers/STM32F3xx_HAL_Driver/Src/stm32f3xx_hal_rtc_ex.c ****   
 519:Drivers/STM32F3xx_HAL_Driver/Src/stm32f3xx_hal_rtc_ex.c ****       /* Clear the Tamper2 interrupt pending bit */
 520:Drivers/STM32F3xx_HAL_Driver/Src/stm32f3xx_hal_rtc_ex.c ****       __HAL_RTC_TAMPER_CLEAR_FLAG(hrtc, RTC_FLAG_TAMP2F);
 521:Drivers/STM32F3xx_HAL_Driver/Src/stm32f3xx_hal_rtc_ex.c ****     }
 522:Drivers/STM32F3xx_HAL_Driver/Src/stm32f3xx_hal_rtc_ex.c ****   }
 523:Drivers/STM32F3xx_HAL_Driver/Src/stm32f3xx_hal_rtc_ex.c **** 
 524:Drivers/STM32F3xx_HAL_Driver/Src/stm32f3xx_hal_rtc_ex.c **** #if defined(RTC_TAMPER3_SUPPORT)
 525:Drivers/STM32F3xx_HAL_Driver/Src/stm32f3xx_hal_rtc_ex.c ****   /* Get the Tamper interrupts source enable status */
 526:Drivers/STM32F3xx_HAL_Driver/Src/stm32f3xx_hal_rtc_ex.c ****   if(__HAL_RTC_TAMPER_GET_IT_SOURCE(hrtc, RTC_IT_TAMP))
 527:Drivers/STM32F3xx_HAL_Driver/Src/stm32f3xx_hal_rtc_ex.c ****   {
 528:Drivers/STM32F3xx_HAL_Driver/Src/stm32f3xx_hal_rtc_ex.c ****    /* Get the pending status of the Tamper3 Interrupt */
 529:Drivers/STM32F3xx_HAL_Driver/Src/stm32f3xx_hal_rtc_ex.c ****     if(__HAL_RTC_TAMPER_GET_FLAG(hrtc, RTC_FLAG_TAMP3F) != RESET)
 530:Drivers/STM32F3xx_HAL_Driver/Src/stm32f3xx_hal_rtc_ex.c ****     {
 531:Drivers/STM32F3xx_HAL_Driver/Src/stm32f3xx_hal_rtc_ex.c ****       /* Tamper3 callback */
 532:Drivers/STM32F3xx_HAL_Driver/Src/stm32f3xx_hal_rtc_ex.c ****       HAL_RTCEx_Tamper3EventCallback(hrtc);
 533:Drivers/STM32F3xx_HAL_Driver/Src/stm32f3xx_hal_rtc_ex.c **** 
 534:Drivers/STM32F3xx_HAL_Driver/Src/stm32f3xx_hal_rtc_ex.c ****       /* Clear the Tamper3 interrupt pending bit */
 535:Drivers/STM32F3xx_HAL_Driver/Src/stm32f3xx_hal_rtc_ex.c ****       __HAL_RTC_TAMPER_CLEAR_FLAG(hrtc, RTC_FLAG_TAMP3F);
 536:Drivers/STM32F3xx_HAL_Driver/Src/stm32f3xx_hal_rtc_ex.c ****     }
 537:Drivers/STM32F3xx_HAL_Driver/Src/stm32f3xx_hal_rtc_ex.c ****   }
 538:Drivers/STM32F3xx_HAL_Driver/Src/stm32f3xx_hal_rtc_ex.c **** #endif /* RTC_TAMPER3_SUPPORT */
 539:Drivers/STM32F3xx_HAL_Driver/Src/stm32f3xx_hal_rtc_ex.c **** 
 540:Drivers/STM32F3xx_HAL_Driver/Src/stm32f3xx_hal_rtc_ex.c ****   /* Clear the EXTI's Flag for RTC TimeStamp and Tamper */
 541:Drivers/STM32F3xx_HAL_Driver/Src/stm32f3xx_hal_rtc_ex.c ****   __HAL_RTC_TAMPER_TIMESTAMP_EXTI_CLEAR_FLAG();
 542:Drivers/STM32F3xx_HAL_Driver/Src/stm32f3xx_hal_rtc_ex.c **** 
 543:Drivers/STM32F3xx_HAL_Driver/Src/stm32f3xx_hal_rtc_ex.c ****   /* Change RTC state */
 544:Drivers/STM32F3xx_HAL_Driver/Src/stm32f3xx_hal_rtc_ex.c ****   hrtc->State = HAL_RTC_STATE_READY;
 545:Drivers/STM32F3xx_HAL_Driver/Src/stm32f3xx_hal_rtc_ex.c **** }
 546:Drivers/STM32F3xx_HAL_Driver/Src/stm32f3xx_hal_rtc_ex.c **** 
 547:Drivers/STM32F3xx_HAL_Driver/Src/stm32f3xx_hal_rtc_ex.c **** /**
 548:Drivers/STM32F3xx_HAL_Driver/Src/stm32f3xx_hal_rtc_ex.c ****   * @brief  TimeStamp callback. 
 549:Drivers/STM32F3xx_HAL_Driver/Src/stm32f3xx_hal_rtc_ex.c ****   * @param  hrtc: RTC handle
 550:Drivers/STM32F3xx_HAL_Driver/Src/stm32f3xx_hal_rtc_ex.c ****   * @retval None
 551:Drivers/STM32F3xx_HAL_Driver/Src/stm32f3xx_hal_rtc_ex.c ****   */
 552:Drivers/STM32F3xx_HAL_Driver/Src/stm32f3xx_hal_rtc_ex.c **** __weak void HAL_RTCEx_TimeStampEventCallback(RTC_HandleTypeDef *hrtc)
 553:Drivers/STM32F3xx_HAL_Driver/Src/stm32f3xx_hal_rtc_ex.c **** {
 687              		.loc 1 553 0
 688              		.cfi_startproc
 689              		@ args = 0, pretend = 0, frame = 0
 690              		@ frame_needed = 0, uses_anonymous_args = 0
 691              		@ link register save eliminated.
ARM GAS  /var/folders/p7/nwmyw04531jbkqkgv59cx10h0000gn/T//cchGdzVf.s 			page 23


 692              	.LVL61:
 693 0000 7047     		bx	lr
 694              		.cfi_endproc
 695              	.LFE132:
 697              		.section	.text.HAL_RTCEx_Tamper1EventCallback,"ax",%progbits
 698              		.align	1
 699              		.weak	HAL_RTCEx_Tamper1EventCallback
 700              		.syntax unified
 701              		.thumb
 702              		.thumb_func
 703              		.fpu fpv4-sp-d16
 705              	HAL_RTCEx_Tamper1EventCallback:
 706              	.LFB133:
 554:Drivers/STM32F3xx_HAL_Driver/Src/stm32f3xx_hal_rtc_ex.c ****   /* Prevent unused argument(s) compilation warning */
 555:Drivers/STM32F3xx_HAL_Driver/Src/stm32f3xx_hal_rtc_ex.c ****   UNUSED(hrtc);
 556:Drivers/STM32F3xx_HAL_Driver/Src/stm32f3xx_hal_rtc_ex.c **** 
 557:Drivers/STM32F3xx_HAL_Driver/Src/stm32f3xx_hal_rtc_ex.c ****   /* NOTE : This function should not be modified, when the callback is needed,
 558:Drivers/STM32F3xx_HAL_Driver/Src/stm32f3xx_hal_rtc_ex.c ****             the HAL_RTCEx_TimeStampEventCallback could be implemented in the user file
 559:Drivers/STM32F3xx_HAL_Driver/Src/stm32f3xx_hal_rtc_ex.c ****   */
 560:Drivers/STM32F3xx_HAL_Driver/Src/stm32f3xx_hal_rtc_ex.c **** }
 561:Drivers/STM32F3xx_HAL_Driver/Src/stm32f3xx_hal_rtc_ex.c **** 
 562:Drivers/STM32F3xx_HAL_Driver/Src/stm32f3xx_hal_rtc_ex.c **** /**
 563:Drivers/STM32F3xx_HAL_Driver/Src/stm32f3xx_hal_rtc_ex.c ****   * @brief  Tamper 1 callback. 
 564:Drivers/STM32F3xx_HAL_Driver/Src/stm32f3xx_hal_rtc_ex.c ****   * @param  hrtc: RTC handle
 565:Drivers/STM32F3xx_HAL_Driver/Src/stm32f3xx_hal_rtc_ex.c ****   * @retval None
 566:Drivers/STM32F3xx_HAL_Driver/Src/stm32f3xx_hal_rtc_ex.c ****   */
 567:Drivers/STM32F3xx_HAL_Driver/Src/stm32f3xx_hal_rtc_ex.c **** __weak void HAL_RTCEx_Tamper1EventCallback(RTC_HandleTypeDef *hrtc)
 568:Drivers/STM32F3xx_HAL_Driver/Src/stm32f3xx_hal_rtc_ex.c **** {
 707              		.loc 1 568 0
 708              		.cfi_startproc
 709              		@ args = 0, pretend = 0, frame = 0
 710              		@ frame_needed = 0, uses_anonymous_args = 0
 711              		@ link register save eliminated.
 712              	.LVL62:
 713 0000 7047     		bx	lr
 714              		.cfi_endproc
 715              	.LFE133:
 717              		.section	.text.HAL_RTCEx_Tamper2EventCallback,"ax",%progbits
 718              		.align	1
 719              		.weak	HAL_RTCEx_Tamper2EventCallback
 720              		.syntax unified
 721              		.thumb
 722              		.thumb_func
 723              		.fpu fpv4-sp-d16
 725              	HAL_RTCEx_Tamper2EventCallback:
 726              	.LFB134:
 569:Drivers/STM32F3xx_HAL_Driver/Src/stm32f3xx_hal_rtc_ex.c ****   /* Prevent unused argument(s) compilation warning */
 570:Drivers/STM32F3xx_HAL_Driver/Src/stm32f3xx_hal_rtc_ex.c ****   UNUSED(hrtc);
 571:Drivers/STM32F3xx_HAL_Driver/Src/stm32f3xx_hal_rtc_ex.c **** 
 572:Drivers/STM32F3xx_HAL_Driver/Src/stm32f3xx_hal_rtc_ex.c ****   /* NOTE : This function should not be modified, when the callback is needed,
 573:Drivers/STM32F3xx_HAL_Driver/Src/stm32f3xx_hal_rtc_ex.c ****             the HAL_RTCEx_Tamper1EventCallback could be implemented in the user file
 574:Drivers/STM32F3xx_HAL_Driver/Src/stm32f3xx_hal_rtc_ex.c ****    */
 575:Drivers/STM32F3xx_HAL_Driver/Src/stm32f3xx_hal_rtc_ex.c **** }
 576:Drivers/STM32F3xx_HAL_Driver/Src/stm32f3xx_hal_rtc_ex.c **** 
 577:Drivers/STM32F3xx_HAL_Driver/Src/stm32f3xx_hal_rtc_ex.c **** /**
 578:Drivers/STM32F3xx_HAL_Driver/Src/stm32f3xx_hal_rtc_ex.c ****   * @brief  Tamper 2 callback. 
 579:Drivers/STM32F3xx_HAL_Driver/Src/stm32f3xx_hal_rtc_ex.c ****   * @param  hrtc: RTC handle
ARM GAS  /var/folders/p7/nwmyw04531jbkqkgv59cx10h0000gn/T//cchGdzVf.s 			page 24


 580:Drivers/STM32F3xx_HAL_Driver/Src/stm32f3xx_hal_rtc_ex.c ****   * @retval None
 581:Drivers/STM32F3xx_HAL_Driver/Src/stm32f3xx_hal_rtc_ex.c ****   */
 582:Drivers/STM32F3xx_HAL_Driver/Src/stm32f3xx_hal_rtc_ex.c **** __weak void HAL_RTCEx_Tamper2EventCallback(RTC_HandleTypeDef *hrtc)
 583:Drivers/STM32F3xx_HAL_Driver/Src/stm32f3xx_hal_rtc_ex.c **** {
 727              		.loc 1 583 0
 728              		.cfi_startproc
 729              		@ args = 0, pretend = 0, frame = 0
 730              		@ frame_needed = 0, uses_anonymous_args = 0
 731              		@ link register save eliminated.
 732              	.LVL63:
 733 0000 7047     		bx	lr
 734              		.cfi_endproc
 735              	.LFE134:
 737              		.section	.text.HAL_RTCEx_TamperTimeStampIRQHandler,"ax",%progbits
 738              		.align	1
 739              		.global	HAL_RTCEx_TamperTimeStampIRQHandler
 740              		.syntax unified
 741              		.thumb
 742              		.thumb_func
 743              		.fpu fpv4-sp-d16
 745              	HAL_RTCEx_TamperTimeStampIRQHandler:
 746              	.LFB131:
 481:Drivers/STM32F3xx_HAL_Driver/Src/stm32f3xx_hal_rtc_ex.c ****   /* Get the TimeStamp interrupt source enable status */
 747              		.loc 1 481 0
 748              		.cfi_startproc
 749              		@ args = 0, pretend = 0, frame = 0
 750              		@ frame_needed = 0, uses_anonymous_args = 0
 751              	.LVL64:
 481:Drivers/STM32F3xx_HAL_Driver/Src/stm32f3xx_hal_rtc_ex.c ****   /* Get the TimeStamp interrupt source enable status */
 752              		.loc 1 481 0
 753 0000 10B5     		push	{r4, lr}
 754              	.LCFI11:
 755              		.cfi_def_cfa_offset 8
 756              		.cfi_offset 4, -8
 757              		.cfi_offset 14, -4
 758 0002 0446     		mov	r4, r0
 483:Drivers/STM32F3xx_HAL_Driver/Src/stm32f3xx_hal_rtc_ex.c ****   {
 759              		.loc 1 483 0
 760 0004 0368     		ldr	r3, [r0]
 761 0006 9A68     		ldr	r2, [r3, #8]
 762 0008 12F4004F 		tst	r2, #32768
 763 000c 03D0     		beq	.L53
 486:Drivers/STM32F3xx_HAL_Driver/Src/stm32f3xx_hal_rtc_ex.c ****     {
 764              		.loc 1 486 0
 765 000e DB68     		ldr	r3, [r3, #12]
 766 0010 13F4006F 		tst	r3, #2048
 767 0014 18D1     		bne	.L57
 768              	.LVL65:
 769              	.L53:
 497:Drivers/STM32F3xx_HAL_Driver/Src/stm32f3xx_hal_rtc_ex.c ****   {
 770              		.loc 1 497 0
 771 0016 2368     		ldr	r3, [r4]
 772 0018 1A6C     		ldr	r2, [r3, #64]
 773 001a 12F0040F 		tst	r2, #4
 774 001e 03D0     		beq	.L54
 500:Drivers/STM32F3xx_HAL_Driver/Src/stm32f3xx_hal_rtc_ex.c ****     {
 775              		.loc 1 500 0
ARM GAS  /var/folders/p7/nwmyw04531jbkqkgv59cx10h0000gn/T//cchGdzVf.s 			page 25


 776 0020 DB68     		ldr	r3, [r3, #12]
 777 0022 13F4005F 		tst	r3, #8192
 778 0026 18D1     		bne	.L58
 779              	.L54:
 511:Drivers/STM32F3xx_HAL_Driver/Src/stm32f3xx_hal_rtc_ex.c ****   {
 780              		.loc 1 511 0
 781 0028 2368     		ldr	r3, [r4]
 782 002a 1A6C     		ldr	r2, [r3, #64]
 783 002c 12F0040F 		tst	r2, #4
 784 0030 03D0     		beq	.L55
 514:Drivers/STM32F3xx_HAL_Driver/Src/stm32f3xx_hal_rtc_ex.c ****     {
 785              		.loc 1 514 0
 786 0032 DB68     		ldr	r3, [r3, #12]
 787 0034 13F4804F 		tst	r3, #16384
 788 0038 19D1     		bne	.L59
 789              	.L55:
 541:Drivers/STM32F3xx_HAL_Driver/Src/stm32f3xx_hal_rtc_ex.c **** 
 790              		.loc 1 541 0
 791 003a 4FF40022 		mov	r2, #524288
 792 003e 114B     		ldr	r3, .L60
 793 0040 5A61     		str	r2, [r3, #20]
 544:Drivers/STM32F3xx_HAL_Driver/Src/stm32f3xx_hal_rtc_ex.c **** }
 794              		.loc 1 544 0
 795 0042 0123     		movs	r3, #1
 796 0044 6377     		strb	r3, [r4, #29]
 797 0046 10BD     		pop	{r4, pc}
 798              	.LVL66:
 799              	.L57:
 489:Drivers/STM32F3xx_HAL_Driver/Src/stm32f3xx_hal_rtc_ex.c ****   
 800              		.loc 1 489 0
 801 0048 FFF7FEFF 		bl	HAL_RTCEx_TimeStampEventCallback
 802              	.LVL67:
 492:Drivers/STM32F3xx_HAL_Driver/Src/stm32f3xx_hal_rtc_ex.c ****     }
 803              		.loc 1 492 0
 804 004c 2268     		ldr	r2, [r4]
 805 004e D368     		ldr	r3, [r2, #12]
 806 0050 DBB2     		uxtb	r3, r3
 807 0052 63F40863 		orn	r3, r3, #2176
 808 0056 D360     		str	r3, [r2, #12]
 809 0058 DDE7     		b	.L53
 810              	.L58:
 503:Drivers/STM32F3xx_HAL_Driver/Src/stm32f3xx_hal_rtc_ex.c ****   
 811              		.loc 1 503 0
 812 005a 2046     		mov	r0, r4
 813 005c FFF7FEFF 		bl	HAL_RTCEx_Tamper1EventCallback
 814              	.LVL68:
 506:Drivers/STM32F3xx_HAL_Driver/Src/stm32f3xx_hal_rtc_ex.c ****     }
 815              		.loc 1 506 0
 816 0060 2268     		ldr	r2, [r4]
 817 0062 D368     		ldr	r3, [r2, #12]
 818 0064 DBB2     		uxtb	r3, r3
 819 0066 63F40253 		orn	r3, r3, #8320
 820 006a D360     		str	r3, [r2, #12]
 821 006c DCE7     		b	.L54
 822              	.L59:
 517:Drivers/STM32F3xx_HAL_Driver/Src/stm32f3xx_hal_rtc_ex.c ****   
 823              		.loc 1 517 0
ARM GAS  /var/folders/p7/nwmyw04531jbkqkgv59cx10h0000gn/T//cchGdzVf.s 			page 26


 824 006e 2046     		mov	r0, r4
 825 0070 FFF7FEFF 		bl	HAL_RTCEx_Tamper2EventCallback
 826              	.LVL69:
 520:Drivers/STM32F3xx_HAL_Driver/Src/stm32f3xx_hal_rtc_ex.c ****     }
 827              		.loc 1 520 0
 828 0074 2268     		ldr	r2, [r4]
 829 0076 D368     		ldr	r3, [r2, #12]
 830 0078 DBB2     		uxtb	r3, r3
 831 007a 63F48143 		orn	r3, r3, #16512
 832 007e D360     		str	r3, [r2, #12]
 833 0080 DBE7     		b	.L55
 834              	.L61:
 835 0082 00BF     		.align	2
 836              	.L60:
 837 0084 00040140 		.word	1073808384
 838              		.cfi_endproc
 839              	.LFE131:
 841              		.section	.text.HAL_RTCEx_PollForTimeStampEvent,"ax",%progbits
 842              		.align	1
 843              		.global	HAL_RTCEx_PollForTimeStampEvent
 844              		.syntax unified
 845              		.thumb
 846              		.thumb_func
 847              		.fpu fpv4-sp-d16
 849              	HAL_RTCEx_PollForTimeStampEvent:
 850              	.LFB135:
 584:Drivers/STM32F3xx_HAL_Driver/Src/stm32f3xx_hal_rtc_ex.c ****   /* Prevent unused argument(s) compilation warning */
 585:Drivers/STM32F3xx_HAL_Driver/Src/stm32f3xx_hal_rtc_ex.c ****   UNUSED(hrtc);
 586:Drivers/STM32F3xx_HAL_Driver/Src/stm32f3xx_hal_rtc_ex.c **** 
 587:Drivers/STM32F3xx_HAL_Driver/Src/stm32f3xx_hal_rtc_ex.c ****   /* NOTE : This function should not be modified, when the callback is needed,
 588:Drivers/STM32F3xx_HAL_Driver/Src/stm32f3xx_hal_rtc_ex.c ****             the HAL_RTCEx_Tamper2EventCallback could be implemented in the user file
 589:Drivers/STM32F3xx_HAL_Driver/Src/stm32f3xx_hal_rtc_ex.c ****    */
 590:Drivers/STM32F3xx_HAL_Driver/Src/stm32f3xx_hal_rtc_ex.c **** }
 591:Drivers/STM32F3xx_HAL_Driver/Src/stm32f3xx_hal_rtc_ex.c **** 
 592:Drivers/STM32F3xx_HAL_Driver/Src/stm32f3xx_hal_rtc_ex.c **** #if defined(RTC_TAMPER3_SUPPORT)
 593:Drivers/STM32F3xx_HAL_Driver/Src/stm32f3xx_hal_rtc_ex.c **** /**
 594:Drivers/STM32F3xx_HAL_Driver/Src/stm32f3xx_hal_rtc_ex.c ****   * @brief  Tamper 3 callback. 
 595:Drivers/STM32F3xx_HAL_Driver/Src/stm32f3xx_hal_rtc_ex.c ****   * @param  hrtc: RTC handle
 596:Drivers/STM32F3xx_HAL_Driver/Src/stm32f3xx_hal_rtc_ex.c ****   * @retval None
 597:Drivers/STM32F3xx_HAL_Driver/Src/stm32f3xx_hal_rtc_ex.c ****   */
 598:Drivers/STM32F3xx_HAL_Driver/Src/stm32f3xx_hal_rtc_ex.c **** __weak void HAL_RTCEx_Tamper3EventCallback(RTC_HandleTypeDef *hrtc)
 599:Drivers/STM32F3xx_HAL_Driver/Src/stm32f3xx_hal_rtc_ex.c **** {
 600:Drivers/STM32F3xx_HAL_Driver/Src/stm32f3xx_hal_rtc_ex.c ****   /* Prevent unused argument(s) compilation warning */
 601:Drivers/STM32F3xx_HAL_Driver/Src/stm32f3xx_hal_rtc_ex.c ****   UNUSED(hrtc);
 602:Drivers/STM32F3xx_HAL_Driver/Src/stm32f3xx_hal_rtc_ex.c **** 
 603:Drivers/STM32F3xx_HAL_Driver/Src/stm32f3xx_hal_rtc_ex.c ****   /* NOTE : This function should not be modified, when the callback is needed,
 604:Drivers/STM32F3xx_HAL_Driver/Src/stm32f3xx_hal_rtc_ex.c ****             the HAL_RTCEx_Tamper3EventCallback could be implemented in the user file
 605:Drivers/STM32F3xx_HAL_Driver/Src/stm32f3xx_hal_rtc_ex.c ****    */
 606:Drivers/STM32F3xx_HAL_Driver/Src/stm32f3xx_hal_rtc_ex.c **** }
 607:Drivers/STM32F3xx_HAL_Driver/Src/stm32f3xx_hal_rtc_ex.c **** #endif /* RTC_TAMPER3_SUPPORT */
 608:Drivers/STM32F3xx_HAL_Driver/Src/stm32f3xx_hal_rtc_ex.c **** 
 609:Drivers/STM32F3xx_HAL_Driver/Src/stm32f3xx_hal_rtc_ex.c **** /**
 610:Drivers/STM32F3xx_HAL_Driver/Src/stm32f3xx_hal_rtc_ex.c ****   * @brief  Handle TimeStamp polling request.
 611:Drivers/STM32F3xx_HAL_Driver/Src/stm32f3xx_hal_rtc_ex.c ****   * @param  hrtc: RTC handle
 612:Drivers/STM32F3xx_HAL_Driver/Src/stm32f3xx_hal_rtc_ex.c ****   * @param  Timeout: Timeout duration
 613:Drivers/STM32F3xx_HAL_Driver/Src/stm32f3xx_hal_rtc_ex.c ****   * @retval HAL status
 614:Drivers/STM32F3xx_HAL_Driver/Src/stm32f3xx_hal_rtc_ex.c ****   */
ARM GAS  /var/folders/p7/nwmyw04531jbkqkgv59cx10h0000gn/T//cchGdzVf.s 			page 27


 615:Drivers/STM32F3xx_HAL_Driver/Src/stm32f3xx_hal_rtc_ex.c **** HAL_StatusTypeDef HAL_RTCEx_PollForTimeStampEvent(RTC_HandleTypeDef *hrtc, uint32_t Timeout)
 616:Drivers/STM32F3xx_HAL_Driver/Src/stm32f3xx_hal_rtc_ex.c **** {
 851              		.loc 1 616 0
 852              		.cfi_startproc
 853              		@ args = 0, pretend = 0, frame = 0
 854              		@ frame_needed = 0, uses_anonymous_args = 0
 855              	.LVL70:
 856 0000 70B5     		push	{r4, r5, r6, lr}
 857              	.LCFI12:
 858              		.cfi_def_cfa_offset 16
 859              		.cfi_offset 4, -16
 860              		.cfi_offset 5, -12
 861              		.cfi_offset 6, -8
 862              		.cfi_offset 14, -4
 863 0002 0446     		mov	r4, r0
 864 0004 0D46     		mov	r5, r1
 617:Drivers/STM32F3xx_HAL_Driver/Src/stm32f3xx_hal_rtc_ex.c ****   uint32_t tickstart = HAL_GetTick();
 865              		.loc 1 617 0
 866 0006 FFF7FEFF 		bl	HAL_GetTick
 867              	.LVL71:
 868 000a 0646     		mov	r6, r0
 869              	.LVL72:
 870              	.L66:
 618:Drivers/STM32F3xx_HAL_Driver/Src/stm32f3xx_hal_rtc_ex.c **** 
 619:Drivers/STM32F3xx_HAL_Driver/Src/stm32f3xx_hal_rtc_ex.c ****   while(__HAL_RTC_TIMESTAMP_GET_FLAG(hrtc, RTC_FLAG_TSF) == RESET)
 871              		.loc 1 619 0
 872 000c 2368     		ldr	r3, [r4]
 873 000e DA68     		ldr	r2, [r3, #12]
 874 0010 12F4006F 		tst	r2, #2048
 875 0014 18D1     		bne	.L70
 620:Drivers/STM32F3xx_HAL_Driver/Src/stm32f3xx_hal_rtc_ex.c ****   {
 621:Drivers/STM32F3xx_HAL_Driver/Src/stm32f3xx_hal_rtc_ex.c ****     if(__HAL_RTC_TIMESTAMP_GET_FLAG(hrtc, RTC_FLAG_TSOVF) != RESET)
 876              		.loc 1 621 0
 877 0016 DA68     		ldr	r2, [r3, #12]
 878 0018 12F4805F 		tst	r2, #4096
 879 001c 0BD1     		bne	.L71
 622:Drivers/STM32F3xx_HAL_Driver/Src/stm32f3xx_hal_rtc_ex.c ****     {
 623:Drivers/STM32F3xx_HAL_Driver/Src/stm32f3xx_hal_rtc_ex.c ****       /* Clear the TIMESTAMP OverRun Flag */
 624:Drivers/STM32F3xx_HAL_Driver/Src/stm32f3xx_hal_rtc_ex.c ****       __HAL_RTC_TIMESTAMP_CLEAR_FLAG(hrtc, RTC_FLAG_TSOVF);
 625:Drivers/STM32F3xx_HAL_Driver/Src/stm32f3xx_hal_rtc_ex.c **** 
 626:Drivers/STM32F3xx_HAL_Driver/Src/stm32f3xx_hal_rtc_ex.c ****       /* Change TIMESTAMP state */
 627:Drivers/STM32F3xx_HAL_Driver/Src/stm32f3xx_hal_rtc_ex.c ****       hrtc->State = HAL_RTC_STATE_ERROR;
 628:Drivers/STM32F3xx_HAL_Driver/Src/stm32f3xx_hal_rtc_ex.c **** 
 629:Drivers/STM32F3xx_HAL_Driver/Src/stm32f3xx_hal_rtc_ex.c ****       return HAL_ERROR;
 630:Drivers/STM32F3xx_HAL_Driver/Src/stm32f3xx_hal_rtc_ex.c ****     }
 631:Drivers/STM32F3xx_HAL_Driver/Src/stm32f3xx_hal_rtc_ex.c **** 
 632:Drivers/STM32F3xx_HAL_Driver/Src/stm32f3xx_hal_rtc_ex.c ****     if(Timeout != HAL_MAX_DELAY)
 880              		.loc 1 632 0
 881 001e B5F1FF3F 		cmp	r5, #-1
 882 0022 F3D0     		beq	.L66
 633:Drivers/STM32F3xx_HAL_Driver/Src/stm32f3xx_hal_rtc_ex.c ****     {
 634:Drivers/STM32F3xx_HAL_Driver/Src/stm32f3xx_hal_rtc_ex.c ****       if((Timeout == 0U) || ((HAL_GetTick()-tickstart) > Timeout))
 883              		.loc 1 634 0
 884 0024 25B1     		cbz	r5, .L67
 885              		.loc 1 634 0 is_stmt 0 discriminator 1
 886 0026 FFF7FEFF 		bl	HAL_GetTick
 887              	.LVL73:
ARM GAS  /var/folders/p7/nwmyw04531jbkqkgv59cx10h0000gn/T//cchGdzVf.s 			page 28


 888 002a 801B     		subs	r0, r0, r6
 889 002c 8542     		cmp	r5, r0
 890 002e EDD2     		bcs	.L66
 891              	.L67:
 635:Drivers/STM32F3xx_HAL_Driver/Src/stm32f3xx_hal_rtc_ex.c ****       {
 636:Drivers/STM32F3xx_HAL_Driver/Src/stm32f3xx_hal_rtc_ex.c ****         hrtc->State = HAL_RTC_STATE_TIMEOUT;
 892              		.loc 1 636 0 is_stmt 1
 893 0030 0320     		movs	r0, #3
 894 0032 6077     		strb	r0, [r4, #29]
 637:Drivers/STM32F3xx_HAL_Driver/Src/stm32f3xx_hal_rtc_ex.c ****         return HAL_TIMEOUT;
 895              		.loc 1 637 0
 896 0034 70BD     		pop	{r4, r5, r6, pc}
 897              	.LVL74:
 898              	.L71:
 624:Drivers/STM32F3xx_HAL_Driver/Src/stm32f3xx_hal_rtc_ex.c **** 
 899              		.loc 1 624 0
 900 0036 DA68     		ldr	r2, [r3, #12]
 901 0038 D2B2     		uxtb	r2, r2
 902 003a 62F48452 		orn	r2, r2, #4224
 903 003e DA60     		str	r2, [r3, #12]
 627:Drivers/STM32F3xx_HAL_Driver/Src/stm32f3xx_hal_rtc_ex.c **** 
 904              		.loc 1 627 0
 905 0040 0423     		movs	r3, #4
 906 0042 6377     		strb	r3, [r4, #29]
 629:Drivers/STM32F3xx_HAL_Driver/Src/stm32f3xx_hal_rtc_ex.c ****     }
 907              		.loc 1 629 0
 908 0044 0120     		movs	r0, #1
 909 0046 70BD     		pop	{r4, r5, r6, pc}
 910              	.LVL75:
 911              	.L70:
 638:Drivers/STM32F3xx_HAL_Driver/Src/stm32f3xx_hal_rtc_ex.c ****       }
 639:Drivers/STM32F3xx_HAL_Driver/Src/stm32f3xx_hal_rtc_ex.c ****     }
 640:Drivers/STM32F3xx_HAL_Driver/Src/stm32f3xx_hal_rtc_ex.c ****   }
 641:Drivers/STM32F3xx_HAL_Driver/Src/stm32f3xx_hal_rtc_ex.c **** 
 642:Drivers/STM32F3xx_HAL_Driver/Src/stm32f3xx_hal_rtc_ex.c ****   /* Change RTC state */
 643:Drivers/STM32F3xx_HAL_Driver/Src/stm32f3xx_hal_rtc_ex.c ****   hrtc->State = HAL_RTC_STATE_READY;
 912              		.loc 1 643 0
 913 0048 0123     		movs	r3, #1
 914 004a 6377     		strb	r3, [r4, #29]
 644:Drivers/STM32F3xx_HAL_Driver/Src/stm32f3xx_hal_rtc_ex.c **** 
 645:Drivers/STM32F3xx_HAL_Driver/Src/stm32f3xx_hal_rtc_ex.c ****   return HAL_OK;
 915              		.loc 1 645 0
 916 004c 0020     		movs	r0, #0
 646:Drivers/STM32F3xx_HAL_Driver/Src/stm32f3xx_hal_rtc_ex.c **** }
 917              		.loc 1 646 0
 918 004e 70BD     		pop	{r4, r5, r6, pc}
 919              		.cfi_endproc
 920              	.LFE135:
 922              		.section	.text.HAL_RTCEx_PollForTamper1Event,"ax",%progbits
 923              		.align	1
 924              		.global	HAL_RTCEx_PollForTamper1Event
 925              		.syntax unified
 926              		.thumb
 927              		.thumb_func
 928              		.fpu fpv4-sp-d16
 930              	HAL_RTCEx_PollForTamper1Event:
 931              	.LFB136:
ARM GAS  /var/folders/p7/nwmyw04531jbkqkgv59cx10h0000gn/T//cchGdzVf.s 			page 29


 647:Drivers/STM32F3xx_HAL_Driver/Src/stm32f3xx_hal_rtc_ex.c **** 
 648:Drivers/STM32F3xx_HAL_Driver/Src/stm32f3xx_hal_rtc_ex.c **** /**
 649:Drivers/STM32F3xx_HAL_Driver/Src/stm32f3xx_hal_rtc_ex.c ****   * @brief  Handle Tamper 1 Polling.
 650:Drivers/STM32F3xx_HAL_Driver/Src/stm32f3xx_hal_rtc_ex.c ****   * @param  hrtc: RTC handle
 651:Drivers/STM32F3xx_HAL_Driver/Src/stm32f3xx_hal_rtc_ex.c ****   * @param  Timeout: Timeout duration
 652:Drivers/STM32F3xx_HAL_Driver/Src/stm32f3xx_hal_rtc_ex.c ****   * @retval HAL status
 653:Drivers/STM32F3xx_HAL_Driver/Src/stm32f3xx_hal_rtc_ex.c ****   */
 654:Drivers/STM32F3xx_HAL_Driver/Src/stm32f3xx_hal_rtc_ex.c **** HAL_StatusTypeDef HAL_RTCEx_PollForTamper1Event(RTC_HandleTypeDef *hrtc, uint32_t Timeout)
 655:Drivers/STM32F3xx_HAL_Driver/Src/stm32f3xx_hal_rtc_ex.c **** {  
 932              		.loc 1 655 0
 933              		.cfi_startproc
 934              		@ args = 0, pretend = 0, frame = 0
 935              		@ frame_needed = 0, uses_anonymous_args = 0
 936              	.LVL76:
 937 0000 70B5     		push	{r4, r5, r6, lr}
 938              	.LCFI13:
 939              		.cfi_def_cfa_offset 16
 940              		.cfi_offset 4, -16
 941              		.cfi_offset 5, -12
 942              		.cfi_offset 6, -8
 943              		.cfi_offset 14, -4
 944 0002 0446     		mov	r4, r0
 945 0004 0D46     		mov	r5, r1
 656:Drivers/STM32F3xx_HAL_Driver/Src/stm32f3xx_hal_rtc_ex.c ****   uint32_t tickstart = HAL_GetTick();
 946              		.loc 1 656 0
 947 0006 FFF7FEFF 		bl	HAL_GetTick
 948              	.LVL77:
 949 000a 0646     		mov	r6, r0
 950              	.LVL78:
 951              	.L74:
 657:Drivers/STM32F3xx_HAL_Driver/Src/stm32f3xx_hal_rtc_ex.c **** 
 658:Drivers/STM32F3xx_HAL_Driver/Src/stm32f3xx_hal_rtc_ex.c ****   /* Get the status of the Interrupt */
 659:Drivers/STM32F3xx_HAL_Driver/Src/stm32f3xx_hal_rtc_ex.c ****   while(__HAL_RTC_TAMPER_GET_FLAG(hrtc,RTC_FLAG_TAMP1F)== RESET)
 952              		.loc 1 659 0
 953 000c 2368     		ldr	r3, [r4]
 954 000e DA68     		ldr	r2, [r3, #12]
 955 0010 12F4005F 		tst	r2, #8192
 956 0014 0BD1     		bne	.L79
 660:Drivers/STM32F3xx_HAL_Driver/Src/stm32f3xx_hal_rtc_ex.c ****   {
 661:Drivers/STM32F3xx_HAL_Driver/Src/stm32f3xx_hal_rtc_ex.c ****     if(Timeout != HAL_MAX_DELAY)
 957              		.loc 1 661 0
 958 0016 B5F1FF3F 		cmp	r5, #-1
 959 001a F7D0     		beq	.L74
 662:Drivers/STM32F3xx_HAL_Driver/Src/stm32f3xx_hal_rtc_ex.c ****     {
 663:Drivers/STM32F3xx_HAL_Driver/Src/stm32f3xx_hal_rtc_ex.c ****       if((Timeout == 0U) || ((HAL_GetTick()-tickstart) > Timeout))
 960              		.loc 1 663 0
 961 001c 25B1     		cbz	r5, .L75
 962              		.loc 1 663 0 is_stmt 0 discriminator 1
 963 001e FFF7FEFF 		bl	HAL_GetTick
 964              	.LVL79:
 965 0022 801B     		subs	r0, r0, r6
 966 0024 8542     		cmp	r5, r0
 967 0026 F1D2     		bcs	.L74
 968              	.L75:
 664:Drivers/STM32F3xx_HAL_Driver/Src/stm32f3xx_hal_rtc_ex.c ****       {
 665:Drivers/STM32F3xx_HAL_Driver/Src/stm32f3xx_hal_rtc_ex.c ****         hrtc->State = HAL_RTC_STATE_TIMEOUT;
 969              		.loc 1 665 0 is_stmt 1
ARM GAS  /var/folders/p7/nwmyw04531jbkqkgv59cx10h0000gn/T//cchGdzVf.s 			page 30


 970 0028 0320     		movs	r0, #3
 971 002a 6077     		strb	r0, [r4, #29]
 666:Drivers/STM32F3xx_HAL_Driver/Src/stm32f3xx_hal_rtc_ex.c ****         return HAL_TIMEOUT;
 972              		.loc 1 666 0
 973 002c 70BD     		pop	{r4, r5, r6, pc}
 974              	.LVL80:
 975              	.L79:
 667:Drivers/STM32F3xx_HAL_Driver/Src/stm32f3xx_hal_rtc_ex.c ****       }
 668:Drivers/STM32F3xx_HAL_Driver/Src/stm32f3xx_hal_rtc_ex.c ****     }
 669:Drivers/STM32F3xx_HAL_Driver/Src/stm32f3xx_hal_rtc_ex.c ****   }
 670:Drivers/STM32F3xx_HAL_Driver/Src/stm32f3xx_hal_rtc_ex.c **** 
 671:Drivers/STM32F3xx_HAL_Driver/Src/stm32f3xx_hal_rtc_ex.c ****   /* Clear the Tamper Flag */
 672:Drivers/STM32F3xx_HAL_Driver/Src/stm32f3xx_hal_rtc_ex.c ****   __HAL_RTC_TAMPER_CLEAR_FLAG(hrtc,RTC_FLAG_TAMP1F);
 976              		.loc 1 672 0
 977 002e DA68     		ldr	r2, [r3, #12]
 978 0030 D2B2     		uxtb	r2, r2
 979 0032 62F40252 		orn	r2, r2, #8320
 980 0036 DA60     		str	r2, [r3, #12]
 673:Drivers/STM32F3xx_HAL_Driver/Src/stm32f3xx_hal_rtc_ex.c **** 
 674:Drivers/STM32F3xx_HAL_Driver/Src/stm32f3xx_hal_rtc_ex.c ****   /* Change RTC state */
 675:Drivers/STM32F3xx_HAL_Driver/Src/stm32f3xx_hal_rtc_ex.c ****   hrtc->State = HAL_RTC_STATE_READY;
 981              		.loc 1 675 0
 982 0038 0123     		movs	r3, #1
 983 003a 6377     		strb	r3, [r4, #29]
 676:Drivers/STM32F3xx_HAL_Driver/Src/stm32f3xx_hal_rtc_ex.c **** 
 677:Drivers/STM32F3xx_HAL_Driver/Src/stm32f3xx_hal_rtc_ex.c ****   return HAL_OK;
 984              		.loc 1 677 0
 985 003c 0020     		movs	r0, #0
 678:Drivers/STM32F3xx_HAL_Driver/Src/stm32f3xx_hal_rtc_ex.c **** }
 986              		.loc 1 678 0
 987 003e 70BD     		pop	{r4, r5, r6, pc}
 988              		.cfi_endproc
 989              	.LFE136:
 991              		.section	.text.HAL_RTCEx_PollForTamper2Event,"ax",%progbits
 992              		.align	1
 993              		.global	HAL_RTCEx_PollForTamper2Event
 994              		.syntax unified
 995              		.thumb
 996              		.thumb_func
 997              		.fpu fpv4-sp-d16
 999              	HAL_RTCEx_PollForTamper2Event:
 1000              	.LFB137:
 679:Drivers/STM32F3xx_HAL_Driver/Src/stm32f3xx_hal_rtc_ex.c **** 
 680:Drivers/STM32F3xx_HAL_Driver/Src/stm32f3xx_hal_rtc_ex.c **** /**
 681:Drivers/STM32F3xx_HAL_Driver/Src/stm32f3xx_hal_rtc_ex.c ****   * @brief  Handle Tamper 2 Polling.
 682:Drivers/STM32F3xx_HAL_Driver/Src/stm32f3xx_hal_rtc_ex.c ****   * @param  hrtc: RTC handle
 683:Drivers/STM32F3xx_HAL_Driver/Src/stm32f3xx_hal_rtc_ex.c ****   * @param  Timeout: Timeout duration
 684:Drivers/STM32F3xx_HAL_Driver/Src/stm32f3xx_hal_rtc_ex.c ****   * @retval HAL status
 685:Drivers/STM32F3xx_HAL_Driver/Src/stm32f3xx_hal_rtc_ex.c ****   */
 686:Drivers/STM32F3xx_HAL_Driver/Src/stm32f3xx_hal_rtc_ex.c **** HAL_StatusTypeDef HAL_RTCEx_PollForTamper2Event(RTC_HandleTypeDef *hrtc, uint32_t Timeout)
 687:Drivers/STM32F3xx_HAL_Driver/Src/stm32f3xx_hal_rtc_ex.c **** {  
 1001              		.loc 1 687 0
 1002              		.cfi_startproc
 1003              		@ args = 0, pretend = 0, frame = 0
 1004              		@ frame_needed = 0, uses_anonymous_args = 0
 1005              	.LVL81:
 1006 0000 70B5     		push	{r4, r5, r6, lr}
ARM GAS  /var/folders/p7/nwmyw04531jbkqkgv59cx10h0000gn/T//cchGdzVf.s 			page 31


 1007              	.LCFI14:
 1008              		.cfi_def_cfa_offset 16
 1009              		.cfi_offset 4, -16
 1010              		.cfi_offset 5, -12
 1011              		.cfi_offset 6, -8
 1012              		.cfi_offset 14, -4
 1013 0002 0446     		mov	r4, r0
 1014 0004 0D46     		mov	r5, r1
 688:Drivers/STM32F3xx_HAL_Driver/Src/stm32f3xx_hal_rtc_ex.c ****   uint32_t tickstart = HAL_GetTick();
 1015              		.loc 1 688 0
 1016 0006 FFF7FEFF 		bl	HAL_GetTick
 1017              	.LVL82:
 1018 000a 0646     		mov	r6, r0
 1019              	.LVL83:
 1020              	.L82:
 689:Drivers/STM32F3xx_HAL_Driver/Src/stm32f3xx_hal_rtc_ex.c **** 
 690:Drivers/STM32F3xx_HAL_Driver/Src/stm32f3xx_hal_rtc_ex.c ****   /* Get the status of the Interrupt */
 691:Drivers/STM32F3xx_HAL_Driver/Src/stm32f3xx_hal_rtc_ex.c ****   while(__HAL_RTC_TAMPER_GET_FLAG(hrtc,RTC_FLAG_TAMP2F) == RESET)
 1021              		.loc 1 691 0
 1022 000c 2368     		ldr	r3, [r4]
 1023 000e DA68     		ldr	r2, [r3, #12]
 1024 0010 12F4804F 		tst	r2, #16384
 1025 0014 0BD1     		bne	.L87
 692:Drivers/STM32F3xx_HAL_Driver/Src/stm32f3xx_hal_rtc_ex.c ****   {
 693:Drivers/STM32F3xx_HAL_Driver/Src/stm32f3xx_hal_rtc_ex.c ****     if(Timeout != HAL_MAX_DELAY)
 1026              		.loc 1 693 0
 1027 0016 B5F1FF3F 		cmp	r5, #-1
 1028 001a F7D0     		beq	.L82
 694:Drivers/STM32F3xx_HAL_Driver/Src/stm32f3xx_hal_rtc_ex.c ****     {
 695:Drivers/STM32F3xx_HAL_Driver/Src/stm32f3xx_hal_rtc_ex.c ****       if((Timeout == 0U) || ((HAL_GetTick()-tickstart) > Timeout))
 1029              		.loc 1 695 0
 1030 001c 25B1     		cbz	r5, .L83
 1031              		.loc 1 695 0 is_stmt 0 discriminator 1
 1032 001e FFF7FEFF 		bl	HAL_GetTick
 1033              	.LVL84:
 1034 0022 801B     		subs	r0, r0, r6
 1035 0024 8542     		cmp	r5, r0
 1036 0026 F1D2     		bcs	.L82
 1037              	.L83:
 696:Drivers/STM32F3xx_HAL_Driver/Src/stm32f3xx_hal_rtc_ex.c ****       {
 697:Drivers/STM32F3xx_HAL_Driver/Src/stm32f3xx_hal_rtc_ex.c ****         hrtc->State = HAL_RTC_STATE_TIMEOUT;
 1038              		.loc 1 697 0 is_stmt 1
 1039 0028 0320     		movs	r0, #3
 1040 002a 6077     		strb	r0, [r4, #29]
 698:Drivers/STM32F3xx_HAL_Driver/Src/stm32f3xx_hal_rtc_ex.c ****         return HAL_TIMEOUT;
 1041              		.loc 1 698 0
 1042 002c 70BD     		pop	{r4, r5, r6, pc}
 1043              	.LVL85:
 1044              	.L87:
 699:Drivers/STM32F3xx_HAL_Driver/Src/stm32f3xx_hal_rtc_ex.c ****       }
 700:Drivers/STM32F3xx_HAL_Driver/Src/stm32f3xx_hal_rtc_ex.c ****     }
 701:Drivers/STM32F3xx_HAL_Driver/Src/stm32f3xx_hal_rtc_ex.c ****   }
 702:Drivers/STM32F3xx_HAL_Driver/Src/stm32f3xx_hal_rtc_ex.c **** 
 703:Drivers/STM32F3xx_HAL_Driver/Src/stm32f3xx_hal_rtc_ex.c ****   /* Clear the Tamper Flag */
 704:Drivers/STM32F3xx_HAL_Driver/Src/stm32f3xx_hal_rtc_ex.c ****   __HAL_RTC_TAMPER_CLEAR_FLAG(hrtc,RTC_FLAG_TAMP2F);
 1045              		.loc 1 704 0
 1046 002e DA68     		ldr	r2, [r3, #12]
ARM GAS  /var/folders/p7/nwmyw04531jbkqkgv59cx10h0000gn/T//cchGdzVf.s 			page 32


 1047 0030 D2B2     		uxtb	r2, r2
 1048 0032 62F48142 		orn	r2, r2, #16512
 1049 0036 DA60     		str	r2, [r3, #12]
 705:Drivers/STM32F3xx_HAL_Driver/Src/stm32f3xx_hal_rtc_ex.c **** 
 706:Drivers/STM32F3xx_HAL_Driver/Src/stm32f3xx_hal_rtc_ex.c ****   /* Change RTC state */
 707:Drivers/STM32F3xx_HAL_Driver/Src/stm32f3xx_hal_rtc_ex.c ****   hrtc->State = HAL_RTC_STATE_READY;
 1050              		.loc 1 707 0
 1051 0038 0123     		movs	r3, #1
 1052 003a 6377     		strb	r3, [r4, #29]
 708:Drivers/STM32F3xx_HAL_Driver/Src/stm32f3xx_hal_rtc_ex.c **** 
 709:Drivers/STM32F3xx_HAL_Driver/Src/stm32f3xx_hal_rtc_ex.c ****   return HAL_OK;
 1053              		.loc 1 709 0
 1054 003c 0020     		movs	r0, #0
 710:Drivers/STM32F3xx_HAL_Driver/Src/stm32f3xx_hal_rtc_ex.c **** }
 1055              		.loc 1 710 0
 1056 003e 70BD     		pop	{r4, r5, r6, pc}
 1057              		.cfi_endproc
 1058              	.LFE137:
 1060              		.section	.text.HAL_RTCEx_SetWakeUpTimer,"ax",%progbits
 1061              		.align	1
 1062              		.global	HAL_RTCEx_SetWakeUpTimer
 1063              		.syntax unified
 1064              		.thumb
 1065              		.thumb_func
 1066              		.fpu fpv4-sp-d16
 1068              	HAL_RTCEx_SetWakeUpTimer:
 1069              	.LFB138:
 711:Drivers/STM32F3xx_HAL_Driver/Src/stm32f3xx_hal_rtc_ex.c **** 
 712:Drivers/STM32F3xx_HAL_Driver/Src/stm32f3xx_hal_rtc_ex.c **** #if defined(RTC_TAMPER3_SUPPORT)
 713:Drivers/STM32F3xx_HAL_Driver/Src/stm32f3xx_hal_rtc_ex.c **** /**
 714:Drivers/STM32F3xx_HAL_Driver/Src/stm32f3xx_hal_rtc_ex.c ****   * @brief  Handle Tamper 3 Polling.
 715:Drivers/STM32F3xx_HAL_Driver/Src/stm32f3xx_hal_rtc_ex.c ****   * @param  hrtc: RTC handle
 716:Drivers/STM32F3xx_HAL_Driver/Src/stm32f3xx_hal_rtc_ex.c ****   * @param  Timeout: Timeout duration
 717:Drivers/STM32F3xx_HAL_Driver/Src/stm32f3xx_hal_rtc_ex.c ****   * @retval HAL status
 718:Drivers/STM32F3xx_HAL_Driver/Src/stm32f3xx_hal_rtc_ex.c ****   */
 719:Drivers/STM32F3xx_HAL_Driver/Src/stm32f3xx_hal_rtc_ex.c **** HAL_StatusTypeDef HAL_RTCEx_PollForTamper3Event(RTC_HandleTypeDef *hrtc, uint32_t Timeout)
 720:Drivers/STM32F3xx_HAL_Driver/Src/stm32f3xx_hal_rtc_ex.c **** {  
 721:Drivers/STM32F3xx_HAL_Driver/Src/stm32f3xx_hal_rtc_ex.c ****   uint32_t tickstart = HAL_GetTick();
 722:Drivers/STM32F3xx_HAL_Driver/Src/stm32f3xx_hal_rtc_ex.c **** 
 723:Drivers/STM32F3xx_HAL_Driver/Src/stm32f3xx_hal_rtc_ex.c ****   /* Get the status of the Interrupt */
 724:Drivers/STM32F3xx_HAL_Driver/Src/stm32f3xx_hal_rtc_ex.c ****   while(__HAL_RTC_TAMPER_GET_FLAG(hrtc,RTC_FLAG_TAMP3F) == RESET)
 725:Drivers/STM32F3xx_HAL_Driver/Src/stm32f3xx_hal_rtc_ex.c ****   {
 726:Drivers/STM32F3xx_HAL_Driver/Src/stm32f3xx_hal_rtc_ex.c ****     if(Timeout != HAL_MAX_DELAY)
 727:Drivers/STM32F3xx_HAL_Driver/Src/stm32f3xx_hal_rtc_ex.c ****     {
 728:Drivers/STM32F3xx_HAL_Driver/Src/stm32f3xx_hal_rtc_ex.c ****       if((Timeout == 0U) || ((HAL_GetTick()-tickstart) > Timeout))
 729:Drivers/STM32F3xx_HAL_Driver/Src/stm32f3xx_hal_rtc_ex.c ****       {
 730:Drivers/STM32F3xx_HAL_Driver/Src/stm32f3xx_hal_rtc_ex.c ****         hrtc->State = HAL_RTC_STATE_TIMEOUT;
 731:Drivers/STM32F3xx_HAL_Driver/Src/stm32f3xx_hal_rtc_ex.c ****         return HAL_TIMEOUT;
 732:Drivers/STM32F3xx_HAL_Driver/Src/stm32f3xx_hal_rtc_ex.c ****       }
 733:Drivers/STM32F3xx_HAL_Driver/Src/stm32f3xx_hal_rtc_ex.c ****     }
 734:Drivers/STM32F3xx_HAL_Driver/Src/stm32f3xx_hal_rtc_ex.c ****   }
 735:Drivers/STM32F3xx_HAL_Driver/Src/stm32f3xx_hal_rtc_ex.c **** 
 736:Drivers/STM32F3xx_HAL_Driver/Src/stm32f3xx_hal_rtc_ex.c ****   /* Clear the Tamper Flag */
 737:Drivers/STM32F3xx_HAL_Driver/Src/stm32f3xx_hal_rtc_ex.c ****   __HAL_RTC_TAMPER_CLEAR_FLAG(hrtc,RTC_FLAG_TAMP3F);
 738:Drivers/STM32F3xx_HAL_Driver/Src/stm32f3xx_hal_rtc_ex.c **** 
 739:Drivers/STM32F3xx_HAL_Driver/Src/stm32f3xx_hal_rtc_ex.c ****   /* Change RTC state */
 740:Drivers/STM32F3xx_HAL_Driver/Src/stm32f3xx_hal_rtc_ex.c ****   hrtc->State = HAL_RTC_STATE_READY;
ARM GAS  /var/folders/p7/nwmyw04531jbkqkgv59cx10h0000gn/T//cchGdzVf.s 			page 33


 741:Drivers/STM32F3xx_HAL_Driver/Src/stm32f3xx_hal_rtc_ex.c **** 
 742:Drivers/STM32F3xx_HAL_Driver/Src/stm32f3xx_hal_rtc_ex.c ****   return HAL_OK;
 743:Drivers/STM32F3xx_HAL_Driver/Src/stm32f3xx_hal_rtc_ex.c **** }
 744:Drivers/STM32F3xx_HAL_Driver/Src/stm32f3xx_hal_rtc_ex.c **** #endif /* RTC_TAMPER3_SUPPORT */
 745:Drivers/STM32F3xx_HAL_Driver/Src/stm32f3xx_hal_rtc_ex.c **** 
 746:Drivers/STM32F3xx_HAL_Driver/Src/stm32f3xx_hal_rtc_ex.c **** /**
 747:Drivers/STM32F3xx_HAL_Driver/Src/stm32f3xx_hal_rtc_ex.c ****   * @}
 748:Drivers/STM32F3xx_HAL_Driver/Src/stm32f3xx_hal_rtc_ex.c ****   */
 749:Drivers/STM32F3xx_HAL_Driver/Src/stm32f3xx_hal_rtc_ex.c ****   
 750:Drivers/STM32F3xx_HAL_Driver/Src/stm32f3xx_hal_rtc_ex.c **** /** @addtogroup RTCEx_Exported_Functions_Group2
 751:Drivers/STM32F3xx_HAL_Driver/Src/stm32f3xx_hal_rtc_ex.c ****   * @brief    RTC Wake-up functions
 752:Drivers/STM32F3xx_HAL_Driver/Src/stm32f3xx_hal_rtc_ex.c ****   *
 753:Drivers/STM32F3xx_HAL_Driver/Src/stm32f3xx_hal_rtc_ex.c **** @verbatim   
 754:Drivers/STM32F3xx_HAL_Driver/Src/stm32f3xx_hal_rtc_ex.c ****  ===============================================================================
 755:Drivers/STM32F3xx_HAL_Driver/Src/stm32f3xx_hal_rtc_ex.c ****                         ##### RTC Wake-up functions #####
 756:Drivers/STM32F3xx_HAL_Driver/Src/stm32f3xx_hal_rtc_ex.c ****  ===============================================================================  
 757:Drivers/STM32F3xx_HAL_Driver/Src/stm32f3xx_hal_rtc_ex.c ****  
 758:Drivers/STM32F3xx_HAL_Driver/Src/stm32f3xx_hal_rtc_ex.c ****  [..] This section provides functions allowing to configure Wake-up feature
 759:Drivers/STM32F3xx_HAL_Driver/Src/stm32f3xx_hal_rtc_ex.c **** 
 760:Drivers/STM32F3xx_HAL_Driver/Src/stm32f3xx_hal_rtc_ex.c **** @endverbatim
 761:Drivers/STM32F3xx_HAL_Driver/Src/stm32f3xx_hal_rtc_ex.c ****   * @{
 762:Drivers/STM32F3xx_HAL_Driver/Src/stm32f3xx_hal_rtc_ex.c ****   */
 763:Drivers/STM32F3xx_HAL_Driver/Src/stm32f3xx_hal_rtc_ex.c **** 
 764:Drivers/STM32F3xx_HAL_Driver/Src/stm32f3xx_hal_rtc_ex.c **** /**
 765:Drivers/STM32F3xx_HAL_Driver/Src/stm32f3xx_hal_rtc_ex.c ****   * @brief  Set wake up timer.
 766:Drivers/STM32F3xx_HAL_Driver/Src/stm32f3xx_hal_rtc_ex.c ****   * @param  hrtc: RTC handle
 767:Drivers/STM32F3xx_HAL_Driver/Src/stm32f3xx_hal_rtc_ex.c ****   * @param  WakeUpCounter: Wake up counter
 768:Drivers/STM32F3xx_HAL_Driver/Src/stm32f3xx_hal_rtc_ex.c ****   * @param  WakeUpClock: Wake up clock  
 769:Drivers/STM32F3xx_HAL_Driver/Src/stm32f3xx_hal_rtc_ex.c ****   * @retval HAL status
 770:Drivers/STM32F3xx_HAL_Driver/Src/stm32f3xx_hal_rtc_ex.c ****   */
 771:Drivers/STM32F3xx_HAL_Driver/Src/stm32f3xx_hal_rtc_ex.c **** HAL_StatusTypeDef HAL_RTCEx_SetWakeUpTimer(RTC_HandleTypeDef *hrtc, uint32_t WakeUpCounter, uint32_
 772:Drivers/STM32F3xx_HAL_Driver/Src/stm32f3xx_hal_rtc_ex.c **** {
 1070              		.loc 1 772 0
 1071              		.cfi_startproc
 1072              		@ args = 0, pretend = 0, frame = 0
 1073              		@ frame_needed = 0, uses_anonymous_args = 0
 1074              	.LVL86:
 1075 0000 F8B5     		push	{r3, r4, r5, r6, r7, lr}
 1076              	.LCFI15:
 1077              		.cfi_def_cfa_offset 24
 1078              		.cfi_offset 3, -24
 1079              		.cfi_offset 4, -20
 1080              		.cfi_offset 5, -16
 1081              		.cfi_offset 6, -12
 1082              		.cfi_offset 7, -8
 1083              		.cfi_offset 14, -4
 1084              	.LVL87:
 773:Drivers/STM32F3xx_HAL_Driver/Src/stm32f3xx_hal_rtc_ex.c ****   uint32_t tickstart = 0U;
 774:Drivers/STM32F3xx_HAL_Driver/Src/stm32f3xx_hal_rtc_ex.c **** 
 775:Drivers/STM32F3xx_HAL_Driver/Src/stm32f3xx_hal_rtc_ex.c ****   /* Check the parameters */
 776:Drivers/STM32F3xx_HAL_Driver/Src/stm32f3xx_hal_rtc_ex.c ****   assert_param(IS_RTC_WAKEUP_CLOCK(WakeUpClock));
 777:Drivers/STM32F3xx_HAL_Driver/Src/stm32f3xx_hal_rtc_ex.c ****   assert_param(IS_RTC_WAKEUP_COUNTER(WakeUpCounter));
 778:Drivers/STM32F3xx_HAL_Driver/Src/stm32f3xx_hal_rtc_ex.c **** 
 779:Drivers/STM32F3xx_HAL_Driver/Src/stm32f3xx_hal_rtc_ex.c ****   /* Process Locked */
 780:Drivers/STM32F3xx_HAL_Driver/Src/stm32f3xx_hal_rtc_ex.c ****   __HAL_LOCK(hrtc);
 1085              		.loc 1 780 0
 1086 0002 037F     		ldrb	r3, [r0, #28]	@ zero_extendqisi2
ARM GAS  /var/folders/p7/nwmyw04531jbkqkgv59cx10h0000gn/T//cchGdzVf.s 			page 34


 1087 0004 012B     		cmp	r3, #1
 1088 0006 59D0     		beq	.L95
 1089 0008 1646     		mov	r6, r2
 1090 000a 0D46     		mov	r5, r1
 1091 000c 0446     		mov	r4, r0
 1092              		.loc 1 780 0 is_stmt 0 discriminator 2
 1093 000e 0123     		movs	r3, #1
 1094 0010 0377     		strb	r3, [r0, #28]
 781:Drivers/STM32F3xx_HAL_Driver/Src/stm32f3xx_hal_rtc_ex.c **** 
 782:Drivers/STM32F3xx_HAL_Driver/Src/stm32f3xx_hal_rtc_ex.c ****   hrtc->State = HAL_RTC_STATE_BUSY;
 1095              		.loc 1 782 0 is_stmt 1 discriminator 2
 1096 0012 0223     		movs	r3, #2
 1097 0014 4377     		strb	r3, [r0, #29]
 783:Drivers/STM32F3xx_HAL_Driver/Src/stm32f3xx_hal_rtc_ex.c **** 
 784:Drivers/STM32F3xx_HAL_Driver/Src/stm32f3xx_hal_rtc_ex.c ****   /* Disable the write protection for RTC registers */
 785:Drivers/STM32F3xx_HAL_Driver/Src/stm32f3xx_hal_rtc_ex.c ****   __HAL_RTC_WRITEPROTECTION_DISABLE(hrtc);
 1098              		.loc 1 785 0 discriminator 2
 1099 0016 0368     		ldr	r3, [r0]
 1100 0018 CA22     		movs	r2, #202
 1101              	.LVL88:
 1102 001a 5A62     		str	r2, [r3, #36]
 1103 001c 0368     		ldr	r3, [r0]
 1104 001e 5322     		movs	r2, #83
 1105 0020 5A62     		str	r2, [r3, #36]
 786:Drivers/STM32F3xx_HAL_Driver/Src/stm32f3xx_hal_rtc_ex.c ****  
 787:Drivers/STM32F3xx_HAL_Driver/Src/stm32f3xx_hal_rtc_ex.c ****   /*Check RTC WUTWF flag is reset only when wake up timer enabled*/
 788:Drivers/STM32F3xx_HAL_Driver/Src/stm32f3xx_hal_rtc_ex.c ****   if((hrtc->Instance->CR & RTC_CR_WUTE) != RESET){
 1106              		.loc 1 788 0 discriminator 2
 1107 0022 0368     		ldr	r3, [r0]
 1108 0024 9B68     		ldr	r3, [r3, #8]
 1109 0026 13F4806F 		tst	r3, #1024
 1110 002a 15D0     		beq	.L90
 789:Drivers/STM32F3xx_HAL_Driver/Src/stm32f3xx_hal_rtc_ex.c ****     tickstart = HAL_GetTick();
 1111              		.loc 1 789 0
 1112 002c FFF7FEFF 		bl	HAL_GetTick
 1113              	.LVL89:
 1114 0030 0746     		mov	r7, r0
 1115              	.LVL90:
 1116              	.L91:
 790:Drivers/STM32F3xx_HAL_Driver/Src/stm32f3xx_hal_rtc_ex.c **** 
 791:Drivers/STM32F3xx_HAL_Driver/Src/stm32f3xx_hal_rtc_ex.c ****    /* Wait till RTC WUTWF flag is reset and if Time out is reached exit */
 792:Drivers/STM32F3xx_HAL_Driver/Src/stm32f3xx_hal_rtc_ex.c ****    while(__HAL_RTC_WAKEUPTIMER_GET_FLAG(hrtc, RTC_FLAG_WUTWF) == SET)
 1117              		.loc 1 792 0
 1118 0032 2368     		ldr	r3, [r4]
 1119 0034 DB68     		ldr	r3, [r3, #12]
 1120 0036 13F0040F 		tst	r3, #4
 1121 003a 0DD0     		beq	.L90
 793:Drivers/STM32F3xx_HAL_Driver/Src/stm32f3xx_hal_rtc_ex.c ****    {
 794:Drivers/STM32F3xx_HAL_Driver/Src/stm32f3xx_hal_rtc_ex.c ****     if((HAL_GetTick() - tickstart ) > RTC_TIMEOUT_VALUE)
 1122              		.loc 1 794 0
 1123 003c FFF7FEFF 		bl	HAL_GetTick
 1124              	.LVL91:
 1125 0040 C01B     		subs	r0, r0, r7
 1126 0042 B0F57A7F 		cmp	r0, #1000
 1127 0046 F4D9     		bls	.L91
 795:Drivers/STM32F3xx_HAL_Driver/Src/stm32f3xx_hal_rtc_ex.c ****       {
 796:Drivers/STM32F3xx_HAL_Driver/Src/stm32f3xx_hal_rtc_ex.c ****        /* Enable the write protection for RTC registers */
ARM GAS  /var/folders/p7/nwmyw04531jbkqkgv59cx10h0000gn/T//cchGdzVf.s 			page 35


 797:Drivers/STM32F3xx_HAL_Driver/Src/stm32f3xx_hal_rtc_ex.c ****        __HAL_RTC_WRITEPROTECTION_ENABLE(hrtc);
 1128              		.loc 1 797 0
 1129 0048 2368     		ldr	r3, [r4]
 1130 004a FF22     		movs	r2, #255
 1131 004c 5A62     		str	r2, [r3, #36]
 798:Drivers/STM32F3xx_HAL_Driver/Src/stm32f3xx_hal_rtc_ex.c **** 
 799:Drivers/STM32F3xx_HAL_Driver/Src/stm32f3xx_hal_rtc_ex.c ****        hrtc->State = HAL_RTC_STATE_TIMEOUT;
 1132              		.loc 1 799 0
 1133 004e 0320     		movs	r0, #3
 1134 0050 6077     		strb	r0, [r4, #29]
 800:Drivers/STM32F3xx_HAL_Driver/Src/stm32f3xx_hal_rtc_ex.c **** 
 801:Drivers/STM32F3xx_HAL_Driver/Src/stm32f3xx_hal_rtc_ex.c ****        /* Process Unlocked */ 
 802:Drivers/STM32F3xx_HAL_Driver/Src/stm32f3xx_hal_rtc_ex.c ****        __HAL_UNLOCK(hrtc);
 1135              		.loc 1 802 0
 1136 0052 0023     		movs	r3, #0
 1137 0054 2377     		strb	r3, [r4, #28]
 803:Drivers/STM32F3xx_HAL_Driver/Src/stm32f3xx_hal_rtc_ex.c **** 
 804:Drivers/STM32F3xx_HAL_Driver/Src/stm32f3xx_hal_rtc_ex.c ****        return HAL_TIMEOUT;
 1138              		.loc 1 804 0
 1139 0056 F8BD     		pop	{r3, r4, r5, r6, r7, pc}
 1140              	.LVL92:
 1141              	.L90:
 805:Drivers/STM32F3xx_HAL_Driver/Src/stm32f3xx_hal_rtc_ex.c ****       }
 806:Drivers/STM32F3xx_HAL_Driver/Src/stm32f3xx_hal_rtc_ex.c ****     }
 807:Drivers/STM32F3xx_HAL_Driver/Src/stm32f3xx_hal_rtc_ex.c ****   }
 808:Drivers/STM32F3xx_HAL_Driver/Src/stm32f3xx_hal_rtc_ex.c **** 
 809:Drivers/STM32F3xx_HAL_Driver/Src/stm32f3xx_hal_rtc_ex.c ****   __HAL_RTC_WAKEUPTIMER_DISABLE(hrtc);
 1142              		.loc 1 809 0
 1143 0058 2268     		ldr	r2, [r4]
 1144 005a 9368     		ldr	r3, [r2, #8]
 1145 005c 23F48063 		bic	r3, r3, #1024
 1146 0060 9360     		str	r3, [r2, #8]
 810:Drivers/STM32F3xx_HAL_Driver/Src/stm32f3xx_hal_rtc_ex.c ****      
 811:Drivers/STM32F3xx_HAL_Driver/Src/stm32f3xx_hal_rtc_ex.c ****   tickstart = HAL_GetTick();
 1147              		.loc 1 811 0
 1148 0062 FFF7FEFF 		bl	HAL_GetTick
 1149              	.LVL93:
 1150 0066 0746     		mov	r7, r0
 1151              	.LVL94:
 1152              	.L93:
 812:Drivers/STM32F3xx_HAL_Driver/Src/stm32f3xx_hal_rtc_ex.c **** 
 813:Drivers/STM32F3xx_HAL_Driver/Src/stm32f3xx_hal_rtc_ex.c ****   /* Wait till RTC WUTWF flag is set and if Time out is reached exit */
 814:Drivers/STM32F3xx_HAL_Driver/Src/stm32f3xx_hal_rtc_ex.c ****   while(__HAL_RTC_WAKEUPTIMER_GET_FLAG(hrtc, RTC_FLAG_WUTWF) == RESET)
 1153              		.loc 1 814 0
 1154 0068 2368     		ldr	r3, [r4]
 1155 006a D868     		ldr	r0, [r3, #12]
 1156 006c 10F0040F 		tst	r0, #4
 1157 0070 0DD1     		bne	.L97
 815:Drivers/STM32F3xx_HAL_Driver/Src/stm32f3xx_hal_rtc_ex.c ****   {
 816:Drivers/STM32F3xx_HAL_Driver/Src/stm32f3xx_hal_rtc_ex.c ****     if((HAL_GetTick()-tickstart) > RTC_TIMEOUT_VALUE)
 1158              		.loc 1 816 0
 1159 0072 FFF7FEFF 		bl	HAL_GetTick
 1160              	.LVL95:
 1161 0076 C01B     		subs	r0, r0, r7
 1162 0078 B0F57A7F 		cmp	r0, #1000
 1163 007c F4D9     		bls	.L93
 817:Drivers/STM32F3xx_HAL_Driver/Src/stm32f3xx_hal_rtc_ex.c ****     {
ARM GAS  /var/folders/p7/nwmyw04531jbkqkgv59cx10h0000gn/T//cchGdzVf.s 			page 36


 818:Drivers/STM32F3xx_HAL_Driver/Src/stm32f3xx_hal_rtc_ex.c ****       /* Enable the write protection for RTC registers */
 819:Drivers/STM32F3xx_HAL_Driver/Src/stm32f3xx_hal_rtc_ex.c ****       __HAL_RTC_WRITEPROTECTION_ENABLE(hrtc);
 1164              		.loc 1 819 0
 1165 007e 2368     		ldr	r3, [r4]
 1166 0080 FF22     		movs	r2, #255
 1167 0082 5A62     		str	r2, [r3, #36]
 820:Drivers/STM32F3xx_HAL_Driver/Src/stm32f3xx_hal_rtc_ex.c **** 
 821:Drivers/STM32F3xx_HAL_Driver/Src/stm32f3xx_hal_rtc_ex.c ****       hrtc->State = HAL_RTC_STATE_TIMEOUT;
 1168              		.loc 1 821 0
 1169 0084 0320     		movs	r0, #3
 1170 0086 6077     		strb	r0, [r4, #29]
 822:Drivers/STM32F3xx_HAL_Driver/Src/stm32f3xx_hal_rtc_ex.c **** 
 823:Drivers/STM32F3xx_HAL_Driver/Src/stm32f3xx_hal_rtc_ex.c ****       /* Process Unlocked */
 824:Drivers/STM32F3xx_HAL_Driver/Src/stm32f3xx_hal_rtc_ex.c ****       __HAL_UNLOCK(hrtc);
 1171              		.loc 1 824 0
 1172 0088 0023     		movs	r3, #0
 1173 008a 2377     		strb	r3, [r4, #28]
 825:Drivers/STM32F3xx_HAL_Driver/Src/stm32f3xx_hal_rtc_ex.c **** 
 826:Drivers/STM32F3xx_HAL_Driver/Src/stm32f3xx_hal_rtc_ex.c ****       return HAL_TIMEOUT;
 1174              		.loc 1 826 0
 1175 008c F8BD     		pop	{r3, r4, r5, r6, r7, pc}
 1176              	.LVL96:
 1177              	.L97:
 827:Drivers/STM32F3xx_HAL_Driver/Src/stm32f3xx_hal_rtc_ex.c ****     }
 828:Drivers/STM32F3xx_HAL_Driver/Src/stm32f3xx_hal_rtc_ex.c ****   }
 829:Drivers/STM32F3xx_HAL_Driver/Src/stm32f3xx_hal_rtc_ex.c **** 
 830:Drivers/STM32F3xx_HAL_Driver/Src/stm32f3xx_hal_rtc_ex.c ****   /* Clear the Wakeup Timer clock source bits in CR register */
 831:Drivers/STM32F3xx_HAL_Driver/Src/stm32f3xx_hal_rtc_ex.c ****   hrtc->Instance->CR &= (uint32_t)~RTC_CR_WUCKSEL;
 1178              		.loc 1 831 0
 1179 008e 9A68     		ldr	r2, [r3, #8]
 1180 0090 22F00702 		bic	r2, r2, #7
 1181 0094 9A60     		str	r2, [r3, #8]
 832:Drivers/STM32F3xx_HAL_Driver/Src/stm32f3xx_hal_rtc_ex.c **** 
 833:Drivers/STM32F3xx_HAL_Driver/Src/stm32f3xx_hal_rtc_ex.c ****   /* Configure the clock source */
 834:Drivers/STM32F3xx_HAL_Driver/Src/stm32f3xx_hal_rtc_ex.c ****   hrtc->Instance->CR |= (uint32_t)WakeUpClock;
 1182              		.loc 1 834 0
 1183 0096 2268     		ldr	r2, [r4]
 1184 0098 9368     		ldr	r3, [r2, #8]
 1185 009a 1E43     		orrs	r6, r6, r3
 1186              	.LVL97:
 1187 009c 9660     		str	r6, [r2, #8]
 835:Drivers/STM32F3xx_HAL_Driver/Src/stm32f3xx_hal_rtc_ex.c **** 
 836:Drivers/STM32F3xx_HAL_Driver/Src/stm32f3xx_hal_rtc_ex.c ****   /* Configure the Wakeup Timer counter */
 837:Drivers/STM32F3xx_HAL_Driver/Src/stm32f3xx_hal_rtc_ex.c ****   hrtc->Instance->WUTR = (uint32_t)WakeUpCounter;
 1188              		.loc 1 837 0
 1189 009e 2368     		ldr	r3, [r4]
 1190 00a0 5D61     		str	r5, [r3, #20]
 838:Drivers/STM32F3xx_HAL_Driver/Src/stm32f3xx_hal_rtc_ex.c **** 
 839:Drivers/STM32F3xx_HAL_Driver/Src/stm32f3xx_hal_rtc_ex.c ****    /* Enable the Wakeup Timer */
 840:Drivers/STM32F3xx_HAL_Driver/Src/stm32f3xx_hal_rtc_ex.c ****   __HAL_RTC_WAKEUPTIMER_ENABLE(hrtc);
 1191              		.loc 1 840 0
 1192 00a2 2268     		ldr	r2, [r4]
 1193 00a4 9368     		ldr	r3, [r2, #8]
 1194 00a6 43F48063 		orr	r3, r3, #1024
 1195 00aa 9360     		str	r3, [r2, #8]
 841:Drivers/STM32F3xx_HAL_Driver/Src/stm32f3xx_hal_rtc_ex.c **** 
 842:Drivers/STM32F3xx_HAL_Driver/Src/stm32f3xx_hal_rtc_ex.c ****   /* Enable the write protection for RTC registers */
ARM GAS  /var/folders/p7/nwmyw04531jbkqkgv59cx10h0000gn/T//cchGdzVf.s 			page 37


 843:Drivers/STM32F3xx_HAL_Driver/Src/stm32f3xx_hal_rtc_ex.c ****   __HAL_RTC_WRITEPROTECTION_ENABLE(hrtc);
 1196              		.loc 1 843 0
 1197 00ac 2368     		ldr	r3, [r4]
 1198 00ae FF22     		movs	r2, #255
 1199 00b0 5A62     		str	r2, [r3, #36]
 844:Drivers/STM32F3xx_HAL_Driver/Src/stm32f3xx_hal_rtc_ex.c **** 
 845:Drivers/STM32F3xx_HAL_Driver/Src/stm32f3xx_hal_rtc_ex.c ****   hrtc->State = HAL_RTC_STATE_READY;
 1200              		.loc 1 845 0
 1201 00b2 0123     		movs	r3, #1
 1202 00b4 6377     		strb	r3, [r4, #29]
 846:Drivers/STM32F3xx_HAL_Driver/Src/stm32f3xx_hal_rtc_ex.c **** 
 847:Drivers/STM32F3xx_HAL_Driver/Src/stm32f3xx_hal_rtc_ex.c ****   /* Process Unlocked */
 848:Drivers/STM32F3xx_HAL_Driver/Src/stm32f3xx_hal_rtc_ex.c ****   __HAL_UNLOCK(hrtc);
 1203              		.loc 1 848 0
 1204 00b6 0020     		movs	r0, #0
 1205 00b8 2077     		strb	r0, [r4, #28]
 849:Drivers/STM32F3xx_HAL_Driver/Src/stm32f3xx_hal_rtc_ex.c **** 
 850:Drivers/STM32F3xx_HAL_Driver/Src/stm32f3xx_hal_rtc_ex.c ****   return HAL_OK;
 1206              		.loc 1 850 0
 1207 00ba F8BD     		pop	{r3, r4, r5, r6, r7, pc}
 1208              	.LVL98:
 1209              	.L95:
 780:Drivers/STM32F3xx_HAL_Driver/Src/stm32f3xx_hal_rtc_ex.c **** 
 1210              		.loc 1 780 0
 1211 00bc 0220     		movs	r0, #2
 1212              	.LVL99:
 851:Drivers/STM32F3xx_HAL_Driver/Src/stm32f3xx_hal_rtc_ex.c **** }
 1213              		.loc 1 851 0
 1214 00be F8BD     		pop	{r3, r4, r5, r6, r7, pc}
 1215              		.cfi_endproc
 1216              	.LFE138:
 1218              		.section	.text.HAL_RTCEx_SetWakeUpTimer_IT,"ax",%progbits
 1219              		.align	1
 1220              		.global	HAL_RTCEx_SetWakeUpTimer_IT
 1221              		.syntax unified
 1222              		.thumb
 1223              		.thumb_func
 1224              		.fpu fpv4-sp-d16
 1226              	HAL_RTCEx_SetWakeUpTimer_IT:
 1227              	.LFB139:
 852:Drivers/STM32F3xx_HAL_Driver/Src/stm32f3xx_hal_rtc_ex.c **** 
 853:Drivers/STM32F3xx_HAL_Driver/Src/stm32f3xx_hal_rtc_ex.c **** /**
 854:Drivers/STM32F3xx_HAL_Driver/Src/stm32f3xx_hal_rtc_ex.c ****   * @brief  Set wake up timer with interrupt.
 855:Drivers/STM32F3xx_HAL_Driver/Src/stm32f3xx_hal_rtc_ex.c ****   * @param  hrtc: RTC handle
 856:Drivers/STM32F3xx_HAL_Driver/Src/stm32f3xx_hal_rtc_ex.c ****   * @param  WakeUpCounter: Wake up counter
 857:Drivers/STM32F3xx_HAL_Driver/Src/stm32f3xx_hal_rtc_ex.c ****   * @param  WakeUpClock: Wake up clock  
 858:Drivers/STM32F3xx_HAL_Driver/Src/stm32f3xx_hal_rtc_ex.c ****   * @retval HAL status
 859:Drivers/STM32F3xx_HAL_Driver/Src/stm32f3xx_hal_rtc_ex.c ****   */
 860:Drivers/STM32F3xx_HAL_Driver/Src/stm32f3xx_hal_rtc_ex.c **** HAL_StatusTypeDef HAL_RTCEx_SetWakeUpTimer_IT(RTC_HandleTypeDef *hrtc, uint32_t WakeUpCounter, uint
 861:Drivers/STM32F3xx_HAL_Driver/Src/stm32f3xx_hal_rtc_ex.c **** {
 1228              		.loc 1 861 0
 1229              		.cfi_startproc
 1230              		@ args = 0, pretend = 0, frame = 0
 1231              		@ frame_needed = 0, uses_anonymous_args = 0
 1232              	.LVL100:
 1233 0000 F8B5     		push	{r3, r4, r5, r6, r7, lr}
 1234              	.LCFI16:
ARM GAS  /var/folders/p7/nwmyw04531jbkqkgv59cx10h0000gn/T//cchGdzVf.s 			page 38


 1235              		.cfi_def_cfa_offset 24
 1236              		.cfi_offset 3, -24
 1237              		.cfi_offset 4, -20
 1238              		.cfi_offset 5, -16
 1239              		.cfi_offset 6, -12
 1240              		.cfi_offset 7, -8
 1241              		.cfi_offset 14, -4
 1242              	.LVL101:
 862:Drivers/STM32F3xx_HAL_Driver/Src/stm32f3xx_hal_rtc_ex.c ****   uint32_t tickstart = 0U;
 863:Drivers/STM32F3xx_HAL_Driver/Src/stm32f3xx_hal_rtc_ex.c **** 
 864:Drivers/STM32F3xx_HAL_Driver/Src/stm32f3xx_hal_rtc_ex.c ****   /* Check the parameters */
 865:Drivers/STM32F3xx_HAL_Driver/Src/stm32f3xx_hal_rtc_ex.c ****   assert_param(IS_RTC_WAKEUP_CLOCK(WakeUpClock));
 866:Drivers/STM32F3xx_HAL_Driver/Src/stm32f3xx_hal_rtc_ex.c ****   assert_param(IS_RTC_WAKEUP_COUNTER(WakeUpCounter));
 867:Drivers/STM32F3xx_HAL_Driver/Src/stm32f3xx_hal_rtc_ex.c **** 
 868:Drivers/STM32F3xx_HAL_Driver/Src/stm32f3xx_hal_rtc_ex.c ****   /* Process Locked */
 869:Drivers/STM32F3xx_HAL_Driver/Src/stm32f3xx_hal_rtc_ex.c ****   __HAL_LOCK(hrtc);
 1243              		.loc 1 869 0
 1244 0002 037F     		ldrb	r3, [r0, #28]	@ zero_extendqisi2
 1245 0004 012B     		cmp	r3, #1
 1246 0006 6DD0     		beq	.L105
 1247 0008 1546     		mov	r5, r2
 1248 000a 0E46     		mov	r6, r1
 1249 000c 0446     		mov	r4, r0
 1250              		.loc 1 869 0 is_stmt 0 discriminator 2
 1251 000e 0123     		movs	r3, #1
 1252 0010 0377     		strb	r3, [r0, #28]
 870:Drivers/STM32F3xx_HAL_Driver/Src/stm32f3xx_hal_rtc_ex.c **** 
 871:Drivers/STM32F3xx_HAL_Driver/Src/stm32f3xx_hal_rtc_ex.c ****   hrtc->State = HAL_RTC_STATE_BUSY;
 1253              		.loc 1 871 0 is_stmt 1 discriminator 2
 1254 0012 0223     		movs	r3, #2
 1255 0014 4377     		strb	r3, [r0, #29]
 872:Drivers/STM32F3xx_HAL_Driver/Src/stm32f3xx_hal_rtc_ex.c **** 
 873:Drivers/STM32F3xx_HAL_Driver/Src/stm32f3xx_hal_rtc_ex.c ****   /* Disable the write protection for RTC registers */
 874:Drivers/STM32F3xx_HAL_Driver/Src/stm32f3xx_hal_rtc_ex.c ****   __HAL_RTC_WRITEPROTECTION_DISABLE(hrtc);
 1256              		.loc 1 874 0 discriminator 2
 1257 0016 0368     		ldr	r3, [r0]
 1258 0018 CA22     		movs	r2, #202
 1259              	.LVL102:
 1260 001a 5A62     		str	r2, [r3, #36]
 1261 001c 0368     		ldr	r3, [r0]
 1262 001e 5322     		movs	r2, #83
 1263 0020 5A62     		str	r2, [r3, #36]
 875:Drivers/STM32F3xx_HAL_Driver/Src/stm32f3xx_hal_rtc_ex.c **** 
 876:Drivers/STM32F3xx_HAL_Driver/Src/stm32f3xx_hal_rtc_ex.c ****   /*Check RTC WUTWF flag is reset only when wake up timer enabled*/
 877:Drivers/STM32F3xx_HAL_Driver/Src/stm32f3xx_hal_rtc_ex.c ****   if((hrtc->Instance->CR & RTC_CR_WUTE) != RESET){
 1264              		.loc 1 877 0 discriminator 2
 1265 0022 0368     		ldr	r3, [r0]
 1266 0024 9B68     		ldr	r3, [r3, #8]
 1267 0026 13F4806F 		tst	r3, #1024
 1268 002a 15D0     		beq	.L100
 878:Drivers/STM32F3xx_HAL_Driver/Src/stm32f3xx_hal_rtc_ex.c ****     tickstart = HAL_GetTick();
 1269              		.loc 1 878 0
 1270 002c FFF7FEFF 		bl	HAL_GetTick
 1271              	.LVL103:
 1272 0030 0746     		mov	r7, r0
 1273              	.LVL104:
 1274              	.L101:
ARM GAS  /var/folders/p7/nwmyw04531jbkqkgv59cx10h0000gn/T//cchGdzVf.s 			page 39


 879:Drivers/STM32F3xx_HAL_Driver/Src/stm32f3xx_hal_rtc_ex.c ****  
 880:Drivers/STM32F3xx_HAL_Driver/Src/stm32f3xx_hal_rtc_ex.c ****    /* Wait till RTC WUTWF flag is reset and if Time out is reached exit */
 881:Drivers/STM32F3xx_HAL_Driver/Src/stm32f3xx_hal_rtc_ex.c ****    while(__HAL_RTC_WAKEUPTIMER_GET_FLAG(hrtc, RTC_FLAG_WUTWF) == SET)
 1275              		.loc 1 881 0
 1276 0032 2368     		ldr	r3, [r4]
 1277 0034 DB68     		ldr	r3, [r3, #12]
 1278 0036 13F0040F 		tst	r3, #4
 1279 003a 0DD0     		beq	.L100
 882:Drivers/STM32F3xx_HAL_Driver/Src/stm32f3xx_hal_rtc_ex.c ****    {
 883:Drivers/STM32F3xx_HAL_Driver/Src/stm32f3xx_hal_rtc_ex.c ****     if((HAL_GetTick() - tickstart ) > RTC_TIMEOUT_VALUE)
 1280              		.loc 1 883 0
 1281 003c FFF7FEFF 		bl	HAL_GetTick
 1282              	.LVL105:
 1283 0040 C01B     		subs	r0, r0, r7
 1284 0042 B0F57A7F 		cmp	r0, #1000
 1285 0046 F4D9     		bls	.L101
 884:Drivers/STM32F3xx_HAL_Driver/Src/stm32f3xx_hal_rtc_ex.c ****       {
 885:Drivers/STM32F3xx_HAL_Driver/Src/stm32f3xx_hal_rtc_ex.c ****        /* Enable the write protection for RTC registers */
 886:Drivers/STM32F3xx_HAL_Driver/Src/stm32f3xx_hal_rtc_ex.c ****        __HAL_RTC_WRITEPROTECTION_ENABLE(hrtc);
 1286              		.loc 1 886 0
 1287 0048 2368     		ldr	r3, [r4]
 1288 004a FF22     		movs	r2, #255
 1289 004c 5A62     		str	r2, [r3, #36]
 887:Drivers/STM32F3xx_HAL_Driver/Src/stm32f3xx_hal_rtc_ex.c **** 
 888:Drivers/STM32F3xx_HAL_Driver/Src/stm32f3xx_hal_rtc_ex.c ****        hrtc->State = HAL_RTC_STATE_TIMEOUT;
 1290              		.loc 1 888 0
 1291 004e 0320     		movs	r0, #3
 1292 0050 6077     		strb	r0, [r4, #29]
 889:Drivers/STM32F3xx_HAL_Driver/Src/stm32f3xx_hal_rtc_ex.c **** 
 890:Drivers/STM32F3xx_HAL_Driver/Src/stm32f3xx_hal_rtc_ex.c ****        /* Process Unlocked */ 
 891:Drivers/STM32F3xx_HAL_Driver/Src/stm32f3xx_hal_rtc_ex.c ****        __HAL_UNLOCK(hrtc);
 1293              		.loc 1 891 0
 1294 0052 0023     		movs	r3, #0
 1295 0054 2377     		strb	r3, [r4, #28]
 892:Drivers/STM32F3xx_HAL_Driver/Src/stm32f3xx_hal_rtc_ex.c **** 
 893:Drivers/STM32F3xx_HAL_Driver/Src/stm32f3xx_hal_rtc_ex.c ****        return HAL_TIMEOUT;
 1296              		.loc 1 893 0
 1297 0056 F8BD     		pop	{r3, r4, r5, r6, r7, pc}
 1298              	.LVL106:
 1299              	.L100:
 894:Drivers/STM32F3xx_HAL_Driver/Src/stm32f3xx_hal_rtc_ex.c ****       }
 895:Drivers/STM32F3xx_HAL_Driver/Src/stm32f3xx_hal_rtc_ex.c ****     }
 896:Drivers/STM32F3xx_HAL_Driver/Src/stm32f3xx_hal_rtc_ex.c ****   }
 897:Drivers/STM32F3xx_HAL_Driver/Src/stm32f3xx_hal_rtc_ex.c **** 
 898:Drivers/STM32F3xx_HAL_Driver/Src/stm32f3xx_hal_rtc_ex.c ****   /* Disable the Wake-Up timer */
 899:Drivers/STM32F3xx_HAL_Driver/Src/stm32f3xx_hal_rtc_ex.c ****   __HAL_RTC_WAKEUPTIMER_DISABLE(hrtc);
 1300              		.loc 1 899 0
 1301 0058 2268     		ldr	r2, [r4]
 1302 005a 9368     		ldr	r3, [r2, #8]
 1303 005c 23F48063 		bic	r3, r3, #1024
 1304 0060 9360     		str	r3, [r2, #8]
 900:Drivers/STM32F3xx_HAL_Driver/Src/stm32f3xx_hal_rtc_ex.c **** 
 901:Drivers/STM32F3xx_HAL_Driver/Src/stm32f3xx_hal_rtc_ex.c ****   /* Clear flag Wake-Up */
 902:Drivers/STM32F3xx_HAL_Driver/Src/stm32f3xx_hal_rtc_ex.c ****   __HAL_RTC_WAKEUPTIMER_CLEAR_FLAG(hrtc, RTC_FLAG_WUTF);
 1305              		.loc 1 902 0
 1306 0062 2268     		ldr	r2, [r4]
 1307 0064 D368     		ldr	r3, [r2, #12]
ARM GAS  /var/folders/p7/nwmyw04531jbkqkgv59cx10h0000gn/T//cchGdzVf.s 			page 40


 1308 0066 DBB2     		uxtb	r3, r3
 1309 0068 63F49063 		orn	r3, r3, #1152
 1310 006c D360     		str	r3, [r2, #12]
 903:Drivers/STM32F3xx_HAL_Driver/Src/stm32f3xx_hal_rtc_ex.c **** 
 904:Drivers/STM32F3xx_HAL_Driver/Src/stm32f3xx_hal_rtc_ex.c ****   tickstart = HAL_GetTick();
 1311              		.loc 1 904 0
 1312 006e FFF7FEFF 		bl	HAL_GetTick
 1313              	.LVL107:
 1314 0072 0746     		mov	r7, r0
 1315              	.LVL108:
 1316              	.L103:
 905:Drivers/STM32F3xx_HAL_Driver/Src/stm32f3xx_hal_rtc_ex.c **** 
 906:Drivers/STM32F3xx_HAL_Driver/Src/stm32f3xx_hal_rtc_ex.c ****   /* Wait till RTC WUTWF flag is set and if Time out is reached exit */
 907:Drivers/STM32F3xx_HAL_Driver/Src/stm32f3xx_hal_rtc_ex.c ****   while(__HAL_RTC_WAKEUPTIMER_GET_FLAG(hrtc, RTC_FLAG_WUTWF) == RESET)
 1317              		.loc 1 907 0
 1318 0074 2368     		ldr	r3, [r4]
 1319 0076 D868     		ldr	r0, [r3, #12]
 1320 0078 10F0040F 		tst	r0, #4
 1321 007c 0DD1     		bne	.L107
 908:Drivers/STM32F3xx_HAL_Driver/Src/stm32f3xx_hal_rtc_ex.c ****   {
 909:Drivers/STM32F3xx_HAL_Driver/Src/stm32f3xx_hal_rtc_ex.c ****     if((HAL_GetTick()-tickstart) > RTC_TIMEOUT_VALUE)
 1322              		.loc 1 909 0
 1323 007e FFF7FEFF 		bl	HAL_GetTick
 1324              	.LVL109:
 1325 0082 C01B     		subs	r0, r0, r7
 1326 0084 B0F57A7F 		cmp	r0, #1000
 1327 0088 F4D9     		bls	.L103
 910:Drivers/STM32F3xx_HAL_Driver/Src/stm32f3xx_hal_rtc_ex.c ****     {
 911:Drivers/STM32F3xx_HAL_Driver/Src/stm32f3xx_hal_rtc_ex.c ****       /* Enable the write protection for RTC registers */
 912:Drivers/STM32F3xx_HAL_Driver/Src/stm32f3xx_hal_rtc_ex.c ****       __HAL_RTC_WRITEPROTECTION_ENABLE(hrtc);
 1328              		.loc 1 912 0
 1329 008a 2368     		ldr	r3, [r4]
 1330 008c FF22     		movs	r2, #255
 1331 008e 5A62     		str	r2, [r3, #36]
 913:Drivers/STM32F3xx_HAL_Driver/Src/stm32f3xx_hal_rtc_ex.c **** 
 914:Drivers/STM32F3xx_HAL_Driver/Src/stm32f3xx_hal_rtc_ex.c ****       hrtc->State = HAL_RTC_STATE_TIMEOUT;
 1332              		.loc 1 914 0
 1333 0090 0320     		movs	r0, #3
 1334 0092 6077     		strb	r0, [r4, #29]
 915:Drivers/STM32F3xx_HAL_Driver/Src/stm32f3xx_hal_rtc_ex.c **** 
 916:Drivers/STM32F3xx_HAL_Driver/Src/stm32f3xx_hal_rtc_ex.c ****       /* Process Unlocked */
 917:Drivers/STM32F3xx_HAL_Driver/Src/stm32f3xx_hal_rtc_ex.c ****       __HAL_UNLOCK(hrtc);
 1335              		.loc 1 917 0
 1336 0094 0023     		movs	r3, #0
 1337 0096 2377     		strb	r3, [r4, #28]
 918:Drivers/STM32F3xx_HAL_Driver/Src/stm32f3xx_hal_rtc_ex.c **** 
 919:Drivers/STM32F3xx_HAL_Driver/Src/stm32f3xx_hal_rtc_ex.c ****       return HAL_TIMEOUT;
 1338              		.loc 1 919 0
 1339 0098 F8BD     		pop	{r3, r4, r5, r6, r7, pc}
 1340              	.LVL110:
 1341              	.L107:
 920:Drivers/STM32F3xx_HAL_Driver/Src/stm32f3xx_hal_rtc_ex.c ****     }
 921:Drivers/STM32F3xx_HAL_Driver/Src/stm32f3xx_hal_rtc_ex.c ****   }
 922:Drivers/STM32F3xx_HAL_Driver/Src/stm32f3xx_hal_rtc_ex.c **** 
 923:Drivers/STM32F3xx_HAL_Driver/Src/stm32f3xx_hal_rtc_ex.c ****   /* Configure the Wakeup Timer counter */
 924:Drivers/STM32F3xx_HAL_Driver/Src/stm32f3xx_hal_rtc_ex.c ****   hrtc->Instance->WUTR = (uint32_t)WakeUpCounter;
 1342              		.loc 1 924 0
ARM GAS  /var/folders/p7/nwmyw04531jbkqkgv59cx10h0000gn/T//cchGdzVf.s 			page 41


 1343 009a 5E61     		str	r6, [r3, #20]
 925:Drivers/STM32F3xx_HAL_Driver/Src/stm32f3xx_hal_rtc_ex.c **** 
 926:Drivers/STM32F3xx_HAL_Driver/Src/stm32f3xx_hal_rtc_ex.c ****   /* Clear the Wakeup Timer clock source bits in CR register */
 927:Drivers/STM32F3xx_HAL_Driver/Src/stm32f3xx_hal_rtc_ex.c ****   hrtc->Instance->CR &= (uint32_t)~RTC_CR_WUCKSEL;
 1344              		.loc 1 927 0
 1345 009c 2268     		ldr	r2, [r4]
 1346 009e 9368     		ldr	r3, [r2, #8]
 1347 00a0 23F00703 		bic	r3, r3, #7
 1348 00a4 9360     		str	r3, [r2, #8]
 928:Drivers/STM32F3xx_HAL_Driver/Src/stm32f3xx_hal_rtc_ex.c **** 
 929:Drivers/STM32F3xx_HAL_Driver/Src/stm32f3xx_hal_rtc_ex.c ****   /* Configure the clock source */
 930:Drivers/STM32F3xx_HAL_Driver/Src/stm32f3xx_hal_rtc_ex.c ****   hrtc->Instance->CR |= (uint32_t)WakeUpClock;
 1349              		.loc 1 930 0
 1350 00a6 2268     		ldr	r2, [r4]
 1351 00a8 9368     		ldr	r3, [r2, #8]
 1352 00aa 1D43     		orrs	r5, r5, r3
 1353              	.LVL111:
 1354 00ac 9560     		str	r5, [r2, #8]
 931:Drivers/STM32F3xx_HAL_Driver/Src/stm32f3xx_hal_rtc_ex.c **** 
 932:Drivers/STM32F3xx_HAL_Driver/Src/stm32f3xx_hal_rtc_ex.c ****   /* RTC WakeUpTimer Interrupt Configuration: EXTI configuration */
 933:Drivers/STM32F3xx_HAL_Driver/Src/stm32f3xx_hal_rtc_ex.c ****   __HAL_RTC_WAKEUPTIMER_EXTI_ENABLE_IT();
 1355              		.loc 1 933 0
 1356 00ae 0E4B     		ldr	r3, .L108
 1357 00b0 1A68     		ldr	r2, [r3]
 1358 00b2 42F48012 		orr	r2, r2, #1048576
 1359 00b6 1A60     		str	r2, [r3]
 934:Drivers/STM32F3xx_HAL_Driver/Src/stm32f3xx_hal_rtc_ex.c **** 
 935:Drivers/STM32F3xx_HAL_Driver/Src/stm32f3xx_hal_rtc_ex.c ****   __HAL_RTC_WAKEUPTIMER_EXTI_ENABLE_RISING_EDGE();
 1360              		.loc 1 935 0
 1361 00b8 9A68     		ldr	r2, [r3, #8]
 1362 00ba 42F48012 		orr	r2, r2, #1048576
 1363 00be 9A60     		str	r2, [r3, #8]
 936:Drivers/STM32F3xx_HAL_Driver/Src/stm32f3xx_hal_rtc_ex.c **** 
 937:Drivers/STM32F3xx_HAL_Driver/Src/stm32f3xx_hal_rtc_ex.c ****   /* Configure the Interrupt in the RTC_CR register */
 938:Drivers/STM32F3xx_HAL_Driver/Src/stm32f3xx_hal_rtc_ex.c ****   __HAL_RTC_WAKEUPTIMER_ENABLE_IT(hrtc,RTC_IT_WUT);
 1364              		.loc 1 938 0
 1365 00c0 2268     		ldr	r2, [r4]
 1366 00c2 9368     		ldr	r3, [r2, #8]
 1367 00c4 43F48043 		orr	r3, r3, #16384
 1368 00c8 9360     		str	r3, [r2, #8]
 939:Drivers/STM32F3xx_HAL_Driver/Src/stm32f3xx_hal_rtc_ex.c **** 
 940:Drivers/STM32F3xx_HAL_Driver/Src/stm32f3xx_hal_rtc_ex.c ****   /* Enable the Wakeup Timer */
 941:Drivers/STM32F3xx_HAL_Driver/Src/stm32f3xx_hal_rtc_ex.c ****   __HAL_RTC_WAKEUPTIMER_ENABLE(hrtc);
 1369              		.loc 1 941 0
 1370 00ca 2268     		ldr	r2, [r4]
 1371 00cc 9368     		ldr	r3, [r2, #8]
 1372 00ce 43F48063 		orr	r3, r3, #1024
 1373 00d2 9360     		str	r3, [r2, #8]
 942:Drivers/STM32F3xx_HAL_Driver/Src/stm32f3xx_hal_rtc_ex.c **** 
 943:Drivers/STM32F3xx_HAL_Driver/Src/stm32f3xx_hal_rtc_ex.c ****   /* Enable the write protection for RTC registers */
 944:Drivers/STM32F3xx_HAL_Driver/Src/stm32f3xx_hal_rtc_ex.c ****   __HAL_RTC_WRITEPROTECTION_ENABLE(hrtc);
 1374              		.loc 1 944 0
 1375 00d4 2368     		ldr	r3, [r4]
 1376 00d6 FF22     		movs	r2, #255
 1377 00d8 5A62     		str	r2, [r3, #36]
 945:Drivers/STM32F3xx_HAL_Driver/Src/stm32f3xx_hal_rtc_ex.c **** 
 946:Drivers/STM32F3xx_HAL_Driver/Src/stm32f3xx_hal_rtc_ex.c ****   hrtc->State = HAL_RTC_STATE_READY;
ARM GAS  /var/folders/p7/nwmyw04531jbkqkgv59cx10h0000gn/T//cchGdzVf.s 			page 42


 1378              		.loc 1 946 0
 1379 00da 0123     		movs	r3, #1
 1380 00dc 6377     		strb	r3, [r4, #29]
 947:Drivers/STM32F3xx_HAL_Driver/Src/stm32f3xx_hal_rtc_ex.c **** 
 948:Drivers/STM32F3xx_HAL_Driver/Src/stm32f3xx_hal_rtc_ex.c ****   /* Process Unlocked */
 949:Drivers/STM32F3xx_HAL_Driver/Src/stm32f3xx_hal_rtc_ex.c ****   __HAL_UNLOCK(hrtc);
 1381              		.loc 1 949 0
 1382 00de 0020     		movs	r0, #0
 1383 00e0 2077     		strb	r0, [r4, #28]
 950:Drivers/STM32F3xx_HAL_Driver/Src/stm32f3xx_hal_rtc_ex.c **** 
 951:Drivers/STM32F3xx_HAL_Driver/Src/stm32f3xx_hal_rtc_ex.c ****   return HAL_OK;
 1384              		.loc 1 951 0
 1385 00e2 F8BD     		pop	{r3, r4, r5, r6, r7, pc}
 1386              	.LVL112:
 1387              	.L105:
 869:Drivers/STM32F3xx_HAL_Driver/Src/stm32f3xx_hal_rtc_ex.c **** 
 1388              		.loc 1 869 0
 1389 00e4 0220     		movs	r0, #2
 1390              	.LVL113:
 952:Drivers/STM32F3xx_HAL_Driver/Src/stm32f3xx_hal_rtc_ex.c **** }
 1391              		.loc 1 952 0
 1392 00e6 F8BD     		pop	{r3, r4, r5, r6, r7, pc}
 1393              	.L109:
 1394              		.align	2
 1395              	.L108:
 1396 00e8 00040140 		.word	1073808384
 1397              		.cfi_endproc
 1398              	.LFE139:
 1400              		.section	.text.HAL_RTCEx_DeactivateWakeUpTimer,"ax",%progbits
 1401              		.align	1
 1402              		.global	HAL_RTCEx_DeactivateWakeUpTimer
 1403              		.syntax unified
 1404              		.thumb
 1405              		.thumb_func
 1406              		.fpu fpv4-sp-d16
 1408              	HAL_RTCEx_DeactivateWakeUpTimer:
 1409              	.LFB140:
 953:Drivers/STM32F3xx_HAL_Driver/Src/stm32f3xx_hal_rtc_ex.c **** 
 954:Drivers/STM32F3xx_HAL_Driver/Src/stm32f3xx_hal_rtc_ex.c **** /**
 955:Drivers/STM32F3xx_HAL_Driver/Src/stm32f3xx_hal_rtc_ex.c ****   * @brief  Deactivate wake up timer counter.
 956:Drivers/STM32F3xx_HAL_Driver/Src/stm32f3xx_hal_rtc_ex.c ****   * @param  hrtc: RTC handle 
 957:Drivers/STM32F3xx_HAL_Driver/Src/stm32f3xx_hal_rtc_ex.c ****   * @retval HAL status
 958:Drivers/STM32F3xx_HAL_Driver/Src/stm32f3xx_hal_rtc_ex.c ****   */
 959:Drivers/STM32F3xx_HAL_Driver/Src/stm32f3xx_hal_rtc_ex.c **** uint32_t HAL_RTCEx_DeactivateWakeUpTimer(RTC_HandleTypeDef *hrtc)
 960:Drivers/STM32F3xx_HAL_Driver/Src/stm32f3xx_hal_rtc_ex.c **** {
 1410              		.loc 1 960 0
 1411              		.cfi_startproc
 1412              		@ args = 0, pretend = 0, frame = 0
 1413              		@ frame_needed = 0, uses_anonymous_args = 0
 1414              	.LVL114:
 1415 0000 38B5     		push	{r3, r4, r5, lr}
 1416              	.LCFI17:
 1417              		.cfi_def_cfa_offset 16
 1418              		.cfi_offset 3, -16
 1419              		.cfi_offset 4, -12
 1420              		.cfi_offset 5, -8
 1421              		.cfi_offset 14, -4
ARM GAS  /var/folders/p7/nwmyw04531jbkqkgv59cx10h0000gn/T//cchGdzVf.s 			page 43


 1422              	.LVL115:
 961:Drivers/STM32F3xx_HAL_Driver/Src/stm32f3xx_hal_rtc_ex.c ****   uint32_t tickstart = 0U;
 962:Drivers/STM32F3xx_HAL_Driver/Src/stm32f3xx_hal_rtc_ex.c **** 
 963:Drivers/STM32F3xx_HAL_Driver/Src/stm32f3xx_hal_rtc_ex.c ****   /* Process Locked */
 964:Drivers/STM32F3xx_HAL_Driver/Src/stm32f3xx_hal_rtc_ex.c ****   __HAL_LOCK(hrtc);
 1423              		.loc 1 964 0
 1424 0002 037F     		ldrb	r3, [r0, #28]	@ zero_extendqisi2
 1425 0004 012B     		cmp	r3, #1
 1426 0006 01D1     		bne	.L116
 1427 0008 0220     		movs	r0, #2
 1428              	.LVL116:
 965:Drivers/STM32F3xx_HAL_Driver/Src/stm32f3xx_hal_rtc_ex.c **** 
 966:Drivers/STM32F3xx_HAL_Driver/Src/stm32f3xx_hal_rtc_ex.c ****   hrtc->State = HAL_RTC_STATE_BUSY;
 967:Drivers/STM32F3xx_HAL_Driver/Src/stm32f3xx_hal_rtc_ex.c **** 
 968:Drivers/STM32F3xx_HAL_Driver/Src/stm32f3xx_hal_rtc_ex.c ****   /* Disable the write protection for RTC registers */
 969:Drivers/STM32F3xx_HAL_Driver/Src/stm32f3xx_hal_rtc_ex.c ****   __HAL_RTC_WRITEPROTECTION_DISABLE(hrtc);
 970:Drivers/STM32F3xx_HAL_Driver/Src/stm32f3xx_hal_rtc_ex.c **** 
 971:Drivers/STM32F3xx_HAL_Driver/Src/stm32f3xx_hal_rtc_ex.c ****   /* Disable the Wakeup Timer */
 972:Drivers/STM32F3xx_HAL_Driver/Src/stm32f3xx_hal_rtc_ex.c ****   __HAL_RTC_WAKEUPTIMER_DISABLE(hrtc);
 973:Drivers/STM32F3xx_HAL_Driver/Src/stm32f3xx_hal_rtc_ex.c **** 
 974:Drivers/STM32F3xx_HAL_Driver/Src/stm32f3xx_hal_rtc_ex.c ****   /* In case of interrupt mode is used, the interrupt source must disabled */
 975:Drivers/STM32F3xx_HAL_Driver/Src/stm32f3xx_hal_rtc_ex.c ****   __HAL_RTC_WAKEUPTIMER_DISABLE_IT(hrtc,RTC_IT_WUT);
 976:Drivers/STM32F3xx_HAL_Driver/Src/stm32f3xx_hal_rtc_ex.c **** 
 977:Drivers/STM32F3xx_HAL_Driver/Src/stm32f3xx_hal_rtc_ex.c ****   tickstart = HAL_GetTick();
 978:Drivers/STM32F3xx_HAL_Driver/Src/stm32f3xx_hal_rtc_ex.c ****   /* Wait till RTC WUTWF flag is set and if Time out is reached exit */
 979:Drivers/STM32F3xx_HAL_Driver/Src/stm32f3xx_hal_rtc_ex.c ****   while(__HAL_RTC_WAKEUPTIMER_GET_FLAG(hrtc, RTC_FLAG_WUTWF) == RESET)
 980:Drivers/STM32F3xx_HAL_Driver/Src/stm32f3xx_hal_rtc_ex.c ****   {
 981:Drivers/STM32F3xx_HAL_Driver/Src/stm32f3xx_hal_rtc_ex.c ****     if((HAL_GetTick()-tickstart) > RTC_TIMEOUT_VALUE)
 982:Drivers/STM32F3xx_HAL_Driver/Src/stm32f3xx_hal_rtc_ex.c ****     {
 983:Drivers/STM32F3xx_HAL_Driver/Src/stm32f3xx_hal_rtc_ex.c ****       /* Enable the write protection for RTC registers */
 984:Drivers/STM32F3xx_HAL_Driver/Src/stm32f3xx_hal_rtc_ex.c ****       __HAL_RTC_WRITEPROTECTION_ENABLE(hrtc);
 985:Drivers/STM32F3xx_HAL_Driver/Src/stm32f3xx_hal_rtc_ex.c **** 
 986:Drivers/STM32F3xx_HAL_Driver/Src/stm32f3xx_hal_rtc_ex.c ****       hrtc->State = HAL_RTC_STATE_TIMEOUT;
 987:Drivers/STM32F3xx_HAL_Driver/Src/stm32f3xx_hal_rtc_ex.c **** 
 988:Drivers/STM32F3xx_HAL_Driver/Src/stm32f3xx_hal_rtc_ex.c ****       /* Process Unlocked */
 989:Drivers/STM32F3xx_HAL_Driver/Src/stm32f3xx_hal_rtc_ex.c ****       __HAL_UNLOCK(hrtc);
 990:Drivers/STM32F3xx_HAL_Driver/Src/stm32f3xx_hal_rtc_ex.c **** 
 991:Drivers/STM32F3xx_HAL_Driver/Src/stm32f3xx_hal_rtc_ex.c ****       return HAL_TIMEOUT;
 992:Drivers/STM32F3xx_HAL_Driver/Src/stm32f3xx_hal_rtc_ex.c ****     }
 993:Drivers/STM32F3xx_HAL_Driver/Src/stm32f3xx_hal_rtc_ex.c ****   }
 994:Drivers/STM32F3xx_HAL_Driver/Src/stm32f3xx_hal_rtc_ex.c **** 
 995:Drivers/STM32F3xx_HAL_Driver/Src/stm32f3xx_hal_rtc_ex.c ****   /* Enable the write protection for RTC registers */
 996:Drivers/STM32F3xx_HAL_Driver/Src/stm32f3xx_hal_rtc_ex.c ****   __HAL_RTC_WRITEPROTECTION_ENABLE(hrtc);
 997:Drivers/STM32F3xx_HAL_Driver/Src/stm32f3xx_hal_rtc_ex.c **** 
 998:Drivers/STM32F3xx_HAL_Driver/Src/stm32f3xx_hal_rtc_ex.c ****   hrtc->State = HAL_RTC_STATE_READY;
 999:Drivers/STM32F3xx_HAL_Driver/Src/stm32f3xx_hal_rtc_ex.c **** 
1000:Drivers/STM32F3xx_HAL_Driver/Src/stm32f3xx_hal_rtc_ex.c ****   /* Process Unlocked */
1001:Drivers/STM32F3xx_HAL_Driver/Src/stm32f3xx_hal_rtc_ex.c ****   __HAL_UNLOCK(hrtc);
1002:Drivers/STM32F3xx_HAL_Driver/Src/stm32f3xx_hal_rtc_ex.c **** 
1003:Drivers/STM32F3xx_HAL_Driver/Src/stm32f3xx_hal_rtc_ex.c ****   return HAL_OK;
1004:Drivers/STM32F3xx_HAL_Driver/Src/stm32f3xx_hal_rtc_ex.c **** }
 1429              		.loc 1 1004 0
 1430 000a 38BD     		pop	{r3, r4, r5, pc}
 1431              	.LVL117:
 1432              	.L116:
 1433 000c 0446     		mov	r4, r0
 964:Drivers/STM32F3xx_HAL_Driver/Src/stm32f3xx_hal_rtc_ex.c **** 
ARM GAS  /var/folders/p7/nwmyw04531jbkqkgv59cx10h0000gn/T//cchGdzVf.s 			page 44


 1434              		.loc 1 964 0 discriminator 2
 1435 000e 0123     		movs	r3, #1
 1436 0010 0377     		strb	r3, [r0, #28]
 966:Drivers/STM32F3xx_HAL_Driver/Src/stm32f3xx_hal_rtc_ex.c **** 
 1437              		.loc 1 966 0 discriminator 2
 1438 0012 0223     		movs	r3, #2
 1439 0014 4377     		strb	r3, [r0, #29]
 969:Drivers/STM32F3xx_HAL_Driver/Src/stm32f3xx_hal_rtc_ex.c **** 
 1440              		.loc 1 969 0 discriminator 2
 1441 0016 0368     		ldr	r3, [r0]
 1442 0018 CA22     		movs	r2, #202
 1443 001a 5A62     		str	r2, [r3, #36]
 1444 001c 0368     		ldr	r3, [r0]
 1445 001e 5322     		movs	r2, #83
 1446 0020 5A62     		str	r2, [r3, #36]
 972:Drivers/STM32F3xx_HAL_Driver/Src/stm32f3xx_hal_rtc_ex.c **** 
 1447              		.loc 1 972 0 discriminator 2
 1448 0022 0268     		ldr	r2, [r0]
 1449 0024 9368     		ldr	r3, [r2, #8]
 1450 0026 23F48063 		bic	r3, r3, #1024
 1451 002a 9360     		str	r3, [r2, #8]
 975:Drivers/STM32F3xx_HAL_Driver/Src/stm32f3xx_hal_rtc_ex.c **** 
 1452              		.loc 1 975 0 discriminator 2
 1453 002c 0268     		ldr	r2, [r0]
 1454 002e 9368     		ldr	r3, [r2, #8]
 1455 0030 23F48043 		bic	r3, r3, #16384
 1456 0034 9360     		str	r3, [r2, #8]
 977:Drivers/STM32F3xx_HAL_Driver/Src/stm32f3xx_hal_rtc_ex.c ****   /* Wait till RTC WUTWF flag is set and if Time out is reached exit */
 1457              		.loc 1 977 0 discriminator 2
 1458 0036 FFF7FEFF 		bl	HAL_GetTick
 1459              	.LVL118:
 1460 003a 0546     		mov	r5, r0
 1461              	.LVL119:
 1462              	.L112:
 979:Drivers/STM32F3xx_HAL_Driver/Src/stm32f3xx_hal_rtc_ex.c ****   {
 1463              		.loc 1 979 0
 1464 003c 2368     		ldr	r3, [r4]
 1465 003e DA68     		ldr	r2, [r3, #12]
 1466 0040 12F0040F 		tst	r2, #4
 1467 0044 0DD1     		bne	.L117
 981:Drivers/STM32F3xx_HAL_Driver/Src/stm32f3xx_hal_rtc_ex.c ****     {
 1468              		.loc 1 981 0
 1469 0046 FFF7FEFF 		bl	HAL_GetTick
 1470              	.LVL120:
 1471 004a 401B     		subs	r0, r0, r5
 1472 004c B0F57A7F 		cmp	r0, #1000
 1473 0050 F4D9     		bls	.L112
 984:Drivers/STM32F3xx_HAL_Driver/Src/stm32f3xx_hal_rtc_ex.c **** 
 1474              		.loc 1 984 0
 1475 0052 2368     		ldr	r3, [r4]
 1476 0054 FF22     		movs	r2, #255
 1477 0056 5A62     		str	r2, [r3, #36]
 986:Drivers/STM32F3xx_HAL_Driver/Src/stm32f3xx_hal_rtc_ex.c **** 
 1478              		.loc 1 986 0
 1479 0058 0320     		movs	r0, #3
 1480 005a 6077     		strb	r0, [r4, #29]
 989:Drivers/STM32F3xx_HAL_Driver/Src/stm32f3xx_hal_rtc_ex.c **** 
ARM GAS  /var/folders/p7/nwmyw04531jbkqkgv59cx10h0000gn/T//cchGdzVf.s 			page 45


 1481              		.loc 1 989 0
 1482 005c 0023     		movs	r3, #0
 1483 005e 2377     		strb	r3, [r4, #28]
 991:Drivers/STM32F3xx_HAL_Driver/Src/stm32f3xx_hal_rtc_ex.c ****     }
 1484              		.loc 1 991 0
 1485 0060 38BD     		pop	{r3, r4, r5, pc}
 1486              	.LVL121:
 1487              	.L117:
 996:Drivers/STM32F3xx_HAL_Driver/Src/stm32f3xx_hal_rtc_ex.c **** 
 1488              		.loc 1 996 0
 1489 0062 FF22     		movs	r2, #255
 1490 0064 5A62     		str	r2, [r3, #36]
 998:Drivers/STM32F3xx_HAL_Driver/Src/stm32f3xx_hal_rtc_ex.c **** 
 1491              		.loc 1 998 0
 1492 0066 0123     		movs	r3, #1
 1493 0068 6377     		strb	r3, [r4, #29]
1001:Drivers/STM32F3xx_HAL_Driver/Src/stm32f3xx_hal_rtc_ex.c **** 
 1494              		.loc 1 1001 0
 1495 006a 0020     		movs	r0, #0
 1496 006c 2077     		strb	r0, [r4, #28]
1003:Drivers/STM32F3xx_HAL_Driver/Src/stm32f3xx_hal_rtc_ex.c **** }
 1497              		.loc 1 1003 0
 1498 006e 38BD     		pop	{r3, r4, r5, pc}
 1499              		.cfi_endproc
 1500              	.LFE140:
 1502              		.section	.text.HAL_RTCEx_GetWakeUpTimer,"ax",%progbits
 1503              		.align	1
 1504              		.global	HAL_RTCEx_GetWakeUpTimer
 1505              		.syntax unified
 1506              		.thumb
 1507              		.thumb_func
 1508              		.fpu fpv4-sp-d16
 1510              	HAL_RTCEx_GetWakeUpTimer:
 1511              	.LFB141:
1005:Drivers/STM32F3xx_HAL_Driver/Src/stm32f3xx_hal_rtc_ex.c **** 
1006:Drivers/STM32F3xx_HAL_Driver/Src/stm32f3xx_hal_rtc_ex.c **** /**
1007:Drivers/STM32F3xx_HAL_Driver/Src/stm32f3xx_hal_rtc_ex.c ****   * @brief  Get wake up timer counter.
1008:Drivers/STM32F3xx_HAL_Driver/Src/stm32f3xx_hal_rtc_ex.c ****   * @param  hrtc: RTC handle 
1009:Drivers/STM32F3xx_HAL_Driver/Src/stm32f3xx_hal_rtc_ex.c ****   * @retval Counter value
1010:Drivers/STM32F3xx_HAL_Driver/Src/stm32f3xx_hal_rtc_ex.c ****   */
1011:Drivers/STM32F3xx_HAL_Driver/Src/stm32f3xx_hal_rtc_ex.c **** uint32_t HAL_RTCEx_GetWakeUpTimer(RTC_HandleTypeDef *hrtc)
1012:Drivers/STM32F3xx_HAL_Driver/Src/stm32f3xx_hal_rtc_ex.c **** {
 1512              		.loc 1 1012 0
 1513              		.cfi_startproc
 1514              		@ args = 0, pretend = 0, frame = 0
 1515              		@ frame_needed = 0, uses_anonymous_args = 0
 1516              		@ link register save eliminated.
 1517              	.LVL122:
1013:Drivers/STM32F3xx_HAL_Driver/Src/stm32f3xx_hal_rtc_ex.c ****   /* Get the counter value */
1014:Drivers/STM32F3xx_HAL_Driver/Src/stm32f3xx_hal_rtc_ex.c ****   return ((uint32_t)(hrtc->Instance->WUTR & RTC_WUTR_WUT));
 1518              		.loc 1 1014 0
 1519 0000 0368     		ldr	r3, [r0]
 1520 0002 5869     		ldr	r0, [r3, #20]
 1521              	.LVL123:
1015:Drivers/STM32F3xx_HAL_Driver/Src/stm32f3xx_hal_rtc_ex.c **** }
 1522              		.loc 1 1015 0
 1523 0004 80B2     		uxth	r0, r0
ARM GAS  /var/folders/p7/nwmyw04531jbkqkgv59cx10h0000gn/T//cchGdzVf.s 			page 46


 1524 0006 7047     		bx	lr
 1525              		.cfi_endproc
 1526              	.LFE141:
 1528              		.section	.text.HAL_RTCEx_WakeUpTimerEventCallback,"ax",%progbits
 1529              		.align	1
 1530              		.weak	HAL_RTCEx_WakeUpTimerEventCallback
 1531              		.syntax unified
 1532              		.thumb
 1533              		.thumb_func
 1534              		.fpu fpv4-sp-d16
 1536              	HAL_RTCEx_WakeUpTimerEventCallback:
 1537              	.LFB143:
1016:Drivers/STM32F3xx_HAL_Driver/Src/stm32f3xx_hal_rtc_ex.c **** 
1017:Drivers/STM32F3xx_HAL_Driver/Src/stm32f3xx_hal_rtc_ex.c **** /**
1018:Drivers/STM32F3xx_HAL_Driver/Src/stm32f3xx_hal_rtc_ex.c ****   * @brief  Handle Wake Up Timer interrupt request.
1019:Drivers/STM32F3xx_HAL_Driver/Src/stm32f3xx_hal_rtc_ex.c ****   * @param  hrtc: RTC handle
1020:Drivers/STM32F3xx_HAL_Driver/Src/stm32f3xx_hal_rtc_ex.c ****   * @retval None
1021:Drivers/STM32F3xx_HAL_Driver/Src/stm32f3xx_hal_rtc_ex.c ****   */
1022:Drivers/STM32F3xx_HAL_Driver/Src/stm32f3xx_hal_rtc_ex.c **** void HAL_RTCEx_WakeUpTimerIRQHandler(RTC_HandleTypeDef *hrtc)
1023:Drivers/STM32F3xx_HAL_Driver/Src/stm32f3xx_hal_rtc_ex.c **** {
1024:Drivers/STM32F3xx_HAL_Driver/Src/stm32f3xx_hal_rtc_ex.c ****   /* Get the pending status of the WAKEUPTIMER Interrupt */
1025:Drivers/STM32F3xx_HAL_Driver/Src/stm32f3xx_hal_rtc_ex.c ****   if(__HAL_RTC_WAKEUPTIMER_GET_FLAG(hrtc, RTC_FLAG_WUTF) != RESET)
1026:Drivers/STM32F3xx_HAL_Driver/Src/stm32f3xx_hal_rtc_ex.c ****   {
1027:Drivers/STM32F3xx_HAL_Driver/Src/stm32f3xx_hal_rtc_ex.c ****     /* WAKEUPTIMER callback */
1028:Drivers/STM32F3xx_HAL_Driver/Src/stm32f3xx_hal_rtc_ex.c ****     HAL_RTCEx_WakeUpTimerEventCallback(hrtc);
1029:Drivers/STM32F3xx_HAL_Driver/Src/stm32f3xx_hal_rtc_ex.c ****     
1030:Drivers/STM32F3xx_HAL_Driver/Src/stm32f3xx_hal_rtc_ex.c ****     /* Clear the WAKEUPTIMER interrupt pending bit */
1031:Drivers/STM32F3xx_HAL_Driver/Src/stm32f3xx_hal_rtc_ex.c ****     __HAL_RTC_WAKEUPTIMER_CLEAR_FLAG(hrtc, RTC_FLAG_WUTF);
1032:Drivers/STM32F3xx_HAL_Driver/Src/stm32f3xx_hal_rtc_ex.c ****   }
1033:Drivers/STM32F3xx_HAL_Driver/Src/stm32f3xx_hal_rtc_ex.c **** 
1034:Drivers/STM32F3xx_HAL_Driver/Src/stm32f3xx_hal_rtc_ex.c ****   /* Clear the EXTI's line Flag for RTC WakeUpTimer */
1035:Drivers/STM32F3xx_HAL_Driver/Src/stm32f3xx_hal_rtc_ex.c ****   __HAL_RTC_WAKEUPTIMER_EXTI_CLEAR_FLAG();
1036:Drivers/STM32F3xx_HAL_Driver/Src/stm32f3xx_hal_rtc_ex.c ****   
1037:Drivers/STM32F3xx_HAL_Driver/Src/stm32f3xx_hal_rtc_ex.c ****   /* Change RTC state */
1038:Drivers/STM32F3xx_HAL_Driver/Src/stm32f3xx_hal_rtc_ex.c ****   hrtc->State = HAL_RTC_STATE_READY;
1039:Drivers/STM32F3xx_HAL_Driver/Src/stm32f3xx_hal_rtc_ex.c **** }
1040:Drivers/STM32F3xx_HAL_Driver/Src/stm32f3xx_hal_rtc_ex.c **** 
1041:Drivers/STM32F3xx_HAL_Driver/Src/stm32f3xx_hal_rtc_ex.c **** /**
1042:Drivers/STM32F3xx_HAL_Driver/Src/stm32f3xx_hal_rtc_ex.c ****   * @brief  Wake Up Timer callback.
1043:Drivers/STM32F3xx_HAL_Driver/Src/stm32f3xx_hal_rtc_ex.c ****   * @param  hrtc: RTC handle
1044:Drivers/STM32F3xx_HAL_Driver/Src/stm32f3xx_hal_rtc_ex.c ****   * @retval None
1045:Drivers/STM32F3xx_HAL_Driver/Src/stm32f3xx_hal_rtc_ex.c ****   */
1046:Drivers/STM32F3xx_HAL_Driver/Src/stm32f3xx_hal_rtc_ex.c **** __weak void HAL_RTCEx_WakeUpTimerEventCallback(RTC_HandleTypeDef *hrtc)
1047:Drivers/STM32F3xx_HAL_Driver/Src/stm32f3xx_hal_rtc_ex.c **** {
 1538              		.loc 1 1047 0
 1539              		.cfi_startproc
 1540              		@ args = 0, pretend = 0, frame = 0
 1541              		@ frame_needed = 0, uses_anonymous_args = 0
 1542              		@ link register save eliminated.
 1543              	.LVL124:
 1544 0000 7047     		bx	lr
 1545              		.cfi_endproc
 1546              	.LFE143:
 1548              		.section	.text.HAL_RTCEx_WakeUpTimerIRQHandler,"ax",%progbits
 1549              		.align	1
 1550              		.global	HAL_RTCEx_WakeUpTimerIRQHandler
 1551              		.syntax unified
ARM GAS  /var/folders/p7/nwmyw04531jbkqkgv59cx10h0000gn/T//cchGdzVf.s 			page 47


 1552              		.thumb
 1553              		.thumb_func
 1554              		.fpu fpv4-sp-d16
 1556              	HAL_RTCEx_WakeUpTimerIRQHandler:
 1557              	.LFB142:
1023:Drivers/STM32F3xx_HAL_Driver/Src/stm32f3xx_hal_rtc_ex.c ****   /* Get the pending status of the WAKEUPTIMER Interrupt */
 1558              		.loc 1 1023 0
 1559              		.cfi_startproc
 1560              		@ args = 0, pretend = 0, frame = 0
 1561              		@ frame_needed = 0, uses_anonymous_args = 0
 1562              	.LVL125:
1023:Drivers/STM32F3xx_HAL_Driver/Src/stm32f3xx_hal_rtc_ex.c ****   /* Get the pending status of the WAKEUPTIMER Interrupt */
 1563              		.loc 1 1023 0
 1564 0000 10B5     		push	{r4, lr}
 1565              	.LCFI18:
 1566              		.cfi_def_cfa_offset 8
 1567              		.cfi_offset 4, -8
 1568              		.cfi_offset 14, -4
 1569 0002 0446     		mov	r4, r0
1025:Drivers/STM32F3xx_HAL_Driver/Src/stm32f3xx_hal_rtc_ex.c ****   {
 1570              		.loc 1 1025 0
 1571 0004 0368     		ldr	r3, [r0]
 1572 0006 DB68     		ldr	r3, [r3, #12]
 1573 0008 13F4806F 		tst	r3, #1024
 1574 000c 06D1     		bne	.L123
 1575              	.LVL126:
 1576              	.L121:
1035:Drivers/STM32F3xx_HAL_Driver/Src/stm32f3xx_hal_rtc_ex.c ****   
 1577              		.loc 1 1035 0
 1578 000e 4FF48012 		mov	r2, #1048576
 1579 0012 074B     		ldr	r3, .L124
 1580 0014 5A61     		str	r2, [r3, #20]
1038:Drivers/STM32F3xx_HAL_Driver/Src/stm32f3xx_hal_rtc_ex.c **** }
 1581              		.loc 1 1038 0
 1582 0016 0123     		movs	r3, #1
 1583 0018 6377     		strb	r3, [r4, #29]
 1584 001a 10BD     		pop	{r4, pc}
 1585              	.LVL127:
 1586              	.L123:
1028:Drivers/STM32F3xx_HAL_Driver/Src/stm32f3xx_hal_rtc_ex.c ****     
 1587              		.loc 1 1028 0
 1588 001c FFF7FEFF 		bl	HAL_RTCEx_WakeUpTimerEventCallback
 1589              	.LVL128:
1031:Drivers/STM32F3xx_HAL_Driver/Src/stm32f3xx_hal_rtc_ex.c ****   }
 1590              		.loc 1 1031 0
 1591 0020 2268     		ldr	r2, [r4]
 1592 0022 D368     		ldr	r3, [r2, #12]
 1593 0024 DBB2     		uxtb	r3, r3
 1594 0026 63F49063 		orn	r3, r3, #1152
 1595 002a D360     		str	r3, [r2, #12]
 1596 002c EFE7     		b	.L121
 1597              	.L125:
 1598 002e 00BF     		.align	2
 1599              	.L124:
 1600 0030 00040140 		.word	1073808384
 1601              		.cfi_endproc
 1602              	.LFE142:
ARM GAS  /var/folders/p7/nwmyw04531jbkqkgv59cx10h0000gn/T//cchGdzVf.s 			page 48


 1604              		.section	.text.HAL_RTCEx_PollForWakeUpTimerEvent,"ax",%progbits
 1605              		.align	1
 1606              		.global	HAL_RTCEx_PollForWakeUpTimerEvent
 1607              		.syntax unified
 1608              		.thumb
 1609              		.thumb_func
 1610              		.fpu fpv4-sp-d16
 1612              	HAL_RTCEx_PollForWakeUpTimerEvent:
 1613              	.LFB144:
1048:Drivers/STM32F3xx_HAL_Driver/Src/stm32f3xx_hal_rtc_ex.c ****   /* Prevent unused argument(s) compilation warning */
1049:Drivers/STM32F3xx_HAL_Driver/Src/stm32f3xx_hal_rtc_ex.c ****   UNUSED(hrtc);
1050:Drivers/STM32F3xx_HAL_Driver/Src/stm32f3xx_hal_rtc_ex.c **** 
1051:Drivers/STM32F3xx_HAL_Driver/Src/stm32f3xx_hal_rtc_ex.c ****   /* NOTE : This function should not be modified, when the callback is needed,
1052:Drivers/STM32F3xx_HAL_Driver/Src/stm32f3xx_hal_rtc_ex.c ****             the HAL_RTCEx_WakeUpTimerEventCallback could be implemented in the user file
1053:Drivers/STM32F3xx_HAL_Driver/Src/stm32f3xx_hal_rtc_ex.c ****    */
1054:Drivers/STM32F3xx_HAL_Driver/Src/stm32f3xx_hal_rtc_ex.c **** }
1055:Drivers/STM32F3xx_HAL_Driver/Src/stm32f3xx_hal_rtc_ex.c **** 
1056:Drivers/STM32F3xx_HAL_Driver/Src/stm32f3xx_hal_rtc_ex.c **** /**
1057:Drivers/STM32F3xx_HAL_Driver/Src/stm32f3xx_hal_rtc_ex.c ****  * @brief  Handle Wake Up Timer Polling.
1058:Drivers/STM32F3xx_HAL_Driver/Src/stm32f3xx_hal_rtc_ex.c ****   * @param  hrtc: RTC handle
1059:Drivers/STM32F3xx_HAL_Driver/Src/stm32f3xx_hal_rtc_ex.c ****   * @param  Timeout: Timeout duration
1060:Drivers/STM32F3xx_HAL_Driver/Src/stm32f3xx_hal_rtc_ex.c ****   * @retval HAL status
1061:Drivers/STM32F3xx_HAL_Driver/Src/stm32f3xx_hal_rtc_ex.c ****   */
1062:Drivers/STM32F3xx_HAL_Driver/Src/stm32f3xx_hal_rtc_ex.c **** HAL_StatusTypeDef HAL_RTCEx_PollForWakeUpTimerEvent(RTC_HandleTypeDef *hrtc, uint32_t Timeout)
1063:Drivers/STM32F3xx_HAL_Driver/Src/stm32f3xx_hal_rtc_ex.c **** {
 1614              		.loc 1 1063 0
 1615              		.cfi_startproc
 1616              		@ args = 0, pretend = 0, frame = 0
 1617              		@ frame_needed = 0, uses_anonymous_args = 0
 1618              	.LVL129:
 1619 0000 70B5     		push	{r4, r5, r6, lr}
 1620              	.LCFI19:
 1621              		.cfi_def_cfa_offset 16
 1622              		.cfi_offset 4, -16
 1623              		.cfi_offset 5, -12
 1624              		.cfi_offset 6, -8
 1625              		.cfi_offset 14, -4
 1626 0002 0446     		mov	r4, r0
 1627 0004 0D46     		mov	r5, r1
1064:Drivers/STM32F3xx_HAL_Driver/Src/stm32f3xx_hal_rtc_ex.c ****   uint32_t tickstart = HAL_GetTick();
 1628              		.loc 1 1064 0
 1629 0006 FFF7FEFF 		bl	HAL_GetTick
 1630              	.LVL130:
 1631 000a 0646     		mov	r6, r0
 1632              	.LVL131:
 1633              	.L128:
1065:Drivers/STM32F3xx_HAL_Driver/Src/stm32f3xx_hal_rtc_ex.c **** 
1066:Drivers/STM32F3xx_HAL_Driver/Src/stm32f3xx_hal_rtc_ex.c ****   while(__HAL_RTC_WAKEUPTIMER_GET_FLAG(hrtc, RTC_FLAG_WUTF) == RESET)
 1634              		.loc 1 1066 0
 1635 000c 2368     		ldr	r3, [r4]
 1636 000e DA68     		ldr	r2, [r3, #12]
 1637 0010 12F4806F 		tst	r2, #1024
 1638 0014 0BD1     		bne	.L133
1067:Drivers/STM32F3xx_HAL_Driver/Src/stm32f3xx_hal_rtc_ex.c ****   {
1068:Drivers/STM32F3xx_HAL_Driver/Src/stm32f3xx_hal_rtc_ex.c ****     if(Timeout != HAL_MAX_DELAY)
 1639              		.loc 1 1068 0
 1640 0016 B5F1FF3F 		cmp	r5, #-1
ARM GAS  /var/folders/p7/nwmyw04531jbkqkgv59cx10h0000gn/T//cchGdzVf.s 			page 49


 1641 001a F7D0     		beq	.L128
1069:Drivers/STM32F3xx_HAL_Driver/Src/stm32f3xx_hal_rtc_ex.c ****     {
1070:Drivers/STM32F3xx_HAL_Driver/Src/stm32f3xx_hal_rtc_ex.c ****       if((Timeout == 0U) || ((HAL_GetTick()-tickstart) > Timeout))
 1642              		.loc 1 1070 0
 1643 001c 25B1     		cbz	r5, .L129
 1644              		.loc 1 1070 0 is_stmt 0 discriminator 1
 1645 001e FFF7FEFF 		bl	HAL_GetTick
 1646              	.LVL132:
 1647 0022 801B     		subs	r0, r0, r6
 1648 0024 8542     		cmp	r5, r0
 1649 0026 F1D2     		bcs	.L128
 1650              	.L129:
1071:Drivers/STM32F3xx_HAL_Driver/Src/stm32f3xx_hal_rtc_ex.c ****       {
1072:Drivers/STM32F3xx_HAL_Driver/Src/stm32f3xx_hal_rtc_ex.c ****         hrtc->State = HAL_RTC_STATE_TIMEOUT;
 1651              		.loc 1 1072 0 is_stmt 1
 1652 0028 0320     		movs	r0, #3
 1653 002a 6077     		strb	r0, [r4, #29]
1073:Drivers/STM32F3xx_HAL_Driver/Src/stm32f3xx_hal_rtc_ex.c ****       
1074:Drivers/STM32F3xx_HAL_Driver/Src/stm32f3xx_hal_rtc_ex.c ****         return HAL_TIMEOUT;
 1654              		.loc 1 1074 0
 1655 002c 70BD     		pop	{r4, r5, r6, pc}
 1656              	.LVL133:
 1657              	.L133:
1075:Drivers/STM32F3xx_HAL_Driver/Src/stm32f3xx_hal_rtc_ex.c ****       }
1076:Drivers/STM32F3xx_HAL_Driver/Src/stm32f3xx_hal_rtc_ex.c ****     }
1077:Drivers/STM32F3xx_HAL_Driver/Src/stm32f3xx_hal_rtc_ex.c ****   }
1078:Drivers/STM32F3xx_HAL_Driver/Src/stm32f3xx_hal_rtc_ex.c **** 
1079:Drivers/STM32F3xx_HAL_Driver/Src/stm32f3xx_hal_rtc_ex.c ****   /* Clear the WAKEUPTIMER Flag */
1080:Drivers/STM32F3xx_HAL_Driver/Src/stm32f3xx_hal_rtc_ex.c ****   __HAL_RTC_WAKEUPTIMER_CLEAR_FLAG(hrtc, RTC_FLAG_WUTF);
 1658              		.loc 1 1080 0
 1659 002e DA68     		ldr	r2, [r3, #12]
 1660 0030 D2B2     		uxtb	r2, r2
 1661 0032 62F49062 		orn	r2, r2, #1152
 1662 0036 DA60     		str	r2, [r3, #12]
1081:Drivers/STM32F3xx_HAL_Driver/Src/stm32f3xx_hal_rtc_ex.c **** 
1082:Drivers/STM32F3xx_HAL_Driver/Src/stm32f3xx_hal_rtc_ex.c ****   /* Change RTC state */
1083:Drivers/STM32F3xx_HAL_Driver/Src/stm32f3xx_hal_rtc_ex.c ****   hrtc->State = HAL_RTC_STATE_READY;
 1663              		.loc 1 1083 0
 1664 0038 0123     		movs	r3, #1
 1665 003a 6377     		strb	r3, [r4, #29]
1084:Drivers/STM32F3xx_HAL_Driver/Src/stm32f3xx_hal_rtc_ex.c **** 
1085:Drivers/STM32F3xx_HAL_Driver/Src/stm32f3xx_hal_rtc_ex.c ****   return HAL_OK;
 1666              		.loc 1 1085 0
 1667 003c 0020     		movs	r0, #0
1086:Drivers/STM32F3xx_HAL_Driver/Src/stm32f3xx_hal_rtc_ex.c **** }
 1668              		.loc 1 1086 0
 1669 003e 70BD     		pop	{r4, r5, r6, pc}
 1670              		.cfi_endproc
 1671              	.LFE144:
 1673              		.section	.text.HAL_RTCEx_BKUPWrite,"ax",%progbits
 1674              		.align	1
 1675              		.global	HAL_RTCEx_BKUPWrite
 1676              		.syntax unified
 1677              		.thumb
 1678              		.thumb_func
 1679              		.fpu fpv4-sp-d16
 1681              	HAL_RTCEx_BKUPWrite:
ARM GAS  /var/folders/p7/nwmyw04531jbkqkgv59cx10h0000gn/T//cchGdzVf.s 			page 50


 1682              	.LFB145:
1087:Drivers/STM32F3xx_HAL_Driver/Src/stm32f3xx_hal_rtc_ex.c **** 
1088:Drivers/STM32F3xx_HAL_Driver/Src/stm32f3xx_hal_rtc_ex.c **** /**
1089:Drivers/STM32F3xx_HAL_Driver/Src/stm32f3xx_hal_rtc_ex.c ****   * @}
1090:Drivers/STM32F3xx_HAL_Driver/Src/stm32f3xx_hal_rtc_ex.c ****   */
1091:Drivers/STM32F3xx_HAL_Driver/Src/stm32f3xx_hal_rtc_ex.c **** 
1092:Drivers/STM32F3xx_HAL_Driver/Src/stm32f3xx_hal_rtc_ex.c **** 
1093:Drivers/STM32F3xx_HAL_Driver/Src/stm32f3xx_hal_rtc_ex.c **** /** @addtogroup RTCEx_Exported_Functions_Group3
1094:Drivers/STM32F3xx_HAL_Driver/Src/stm32f3xx_hal_rtc_ex.c ****   * @brief    Extended Peripheral Control functions
1095:Drivers/STM32F3xx_HAL_Driver/Src/stm32f3xx_hal_rtc_ex.c ****   *
1096:Drivers/STM32F3xx_HAL_Driver/Src/stm32f3xx_hal_rtc_ex.c **** @verbatim   
1097:Drivers/STM32F3xx_HAL_Driver/Src/stm32f3xx_hal_rtc_ex.c ****  ===============================================================================
1098:Drivers/STM32F3xx_HAL_Driver/Src/stm32f3xx_hal_rtc_ex.c ****               ##### Extended Peripheral Control functions #####
1099:Drivers/STM32F3xx_HAL_Driver/Src/stm32f3xx_hal_rtc_ex.c ****  ===============================================================================  
1100:Drivers/STM32F3xx_HAL_Driver/Src/stm32f3xx_hal_rtc_ex.c ****     [..]
1101:Drivers/STM32F3xx_HAL_Driver/Src/stm32f3xx_hal_rtc_ex.c ****     This subsection provides functions allowing to
1102:Drivers/STM32F3xx_HAL_Driver/Src/stm32f3xx_hal_rtc_ex.c ****       (+) Write a data in a specified RTC Backup data register
1103:Drivers/STM32F3xx_HAL_Driver/Src/stm32f3xx_hal_rtc_ex.c ****       (+) Read a data in a specified RTC Backup data register
1104:Drivers/STM32F3xx_HAL_Driver/Src/stm32f3xx_hal_rtc_ex.c ****       (+) Set the Coarse calibration parameters.
1105:Drivers/STM32F3xx_HAL_Driver/Src/stm32f3xx_hal_rtc_ex.c ****       (+) Deactivate the Coarse calibration parameters
1106:Drivers/STM32F3xx_HAL_Driver/Src/stm32f3xx_hal_rtc_ex.c ****       (+) Set the Smooth calibration parameters.
1107:Drivers/STM32F3xx_HAL_Driver/Src/stm32f3xx_hal_rtc_ex.c ****       (+) Configure the Synchronization Shift Control Settings.
1108:Drivers/STM32F3xx_HAL_Driver/Src/stm32f3xx_hal_rtc_ex.c ****       (+) Configure the Calibration Pinout (RTC_CALIB) Selection (1Hz or 512Hz).
1109:Drivers/STM32F3xx_HAL_Driver/Src/stm32f3xx_hal_rtc_ex.c ****       (+) Deactivate the Calibration Pinout (RTC_CALIB) Selection (1Hz or 512Hz).
1110:Drivers/STM32F3xx_HAL_Driver/Src/stm32f3xx_hal_rtc_ex.c ****       (+) Enable the RTC reference clock detection.
1111:Drivers/STM32F3xx_HAL_Driver/Src/stm32f3xx_hal_rtc_ex.c ****       (+) Disable the RTC reference clock detection.
1112:Drivers/STM32F3xx_HAL_Driver/Src/stm32f3xx_hal_rtc_ex.c ****       (+) Enable the Bypass Shadow feature.
1113:Drivers/STM32F3xx_HAL_Driver/Src/stm32f3xx_hal_rtc_ex.c ****       (+) Disable the Bypass Shadow feature.
1114:Drivers/STM32F3xx_HAL_Driver/Src/stm32f3xx_hal_rtc_ex.c **** 
1115:Drivers/STM32F3xx_HAL_Driver/Src/stm32f3xx_hal_rtc_ex.c **** @endverbatim
1116:Drivers/STM32F3xx_HAL_Driver/Src/stm32f3xx_hal_rtc_ex.c ****   * @{
1117:Drivers/STM32F3xx_HAL_Driver/Src/stm32f3xx_hal_rtc_ex.c ****   */
1118:Drivers/STM32F3xx_HAL_Driver/Src/stm32f3xx_hal_rtc_ex.c **** 
1119:Drivers/STM32F3xx_HAL_Driver/Src/stm32f3xx_hal_rtc_ex.c **** /**
1120:Drivers/STM32F3xx_HAL_Driver/Src/stm32f3xx_hal_rtc_ex.c ****   * @brief  Write a data in a specified RTC Backup data register.
1121:Drivers/STM32F3xx_HAL_Driver/Src/stm32f3xx_hal_rtc_ex.c ****   * @param  hrtc: RTC handle 
1122:Drivers/STM32F3xx_HAL_Driver/Src/stm32f3xx_hal_rtc_ex.c ****   * @param  BackupRegister: RTC Backup data Register number.
1123:Drivers/STM32F3xx_HAL_Driver/Src/stm32f3xx_hal_rtc_ex.c ****   *          This parameter can be: RTC_BKP_DRx where x can be from 0 to 19 to 
1124:Drivers/STM32F3xx_HAL_Driver/Src/stm32f3xx_hal_rtc_ex.c ****   *                                 specify the register.
1125:Drivers/STM32F3xx_HAL_Driver/Src/stm32f3xx_hal_rtc_ex.c ****   * @param  Data: Data to be written in the specified RTC Backup data register.                    
1126:Drivers/STM32F3xx_HAL_Driver/Src/stm32f3xx_hal_rtc_ex.c ****   * @retval None
1127:Drivers/STM32F3xx_HAL_Driver/Src/stm32f3xx_hal_rtc_ex.c ****   */
1128:Drivers/STM32F3xx_HAL_Driver/Src/stm32f3xx_hal_rtc_ex.c **** void HAL_RTCEx_BKUPWrite(RTC_HandleTypeDef *hrtc, uint32_t BackupRegister, uint32_t Data)
1129:Drivers/STM32F3xx_HAL_Driver/Src/stm32f3xx_hal_rtc_ex.c **** {
 1683              		.loc 1 1129 0
 1684              		.cfi_startproc
 1685              		@ args = 0, pretend = 0, frame = 0
 1686              		@ frame_needed = 0, uses_anonymous_args = 0
 1687              		@ link register save eliminated.
 1688              	.LVL134:
1130:Drivers/STM32F3xx_HAL_Driver/Src/stm32f3xx_hal_rtc_ex.c ****   uint32_t tmp = 0U;
1131:Drivers/STM32F3xx_HAL_Driver/Src/stm32f3xx_hal_rtc_ex.c **** 
1132:Drivers/STM32F3xx_HAL_Driver/Src/stm32f3xx_hal_rtc_ex.c ****   /* Check the parameters */
1133:Drivers/STM32F3xx_HAL_Driver/Src/stm32f3xx_hal_rtc_ex.c ****   assert_param(IS_RTC_BKP(BackupRegister));
1134:Drivers/STM32F3xx_HAL_Driver/Src/stm32f3xx_hal_rtc_ex.c ****   
1135:Drivers/STM32F3xx_HAL_Driver/Src/stm32f3xx_hal_rtc_ex.c ****   tmp = (uint32_t)&(hrtc->Instance->BKP0R);
 1689              		.loc 1 1135 0
ARM GAS  /var/folders/p7/nwmyw04531jbkqkgv59cx10h0000gn/T//cchGdzVf.s 			page 51


 1690 0000 0368     		ldr	r3, [r0]
 1691 0002 5033     		adds	r3, r3, #80
 1692              	.LVL135:
1136:Drivers/STM32F3xx_HAL_Driver/Src/stm32f3xx_hal_rtc_ex.c ****   tmp += (BackupRegister * 4U);
1137:Drivers/STM32F3xx_HAL_Driver/Src/stm32f3xx_hal_rtc_ex.c **** 
1138:Drivers/STM32F3xx_HAL_Driver/Src/stm32f3xx_hal_rtc_ex.c ****   /* Write the specified register */
1139:Drivers/STM32F3xx_HAL_Driver/Src/stm32f3xx_hal_rtc_ex.c ****   *(__IO uint32_t *)tmp = (uint32_t)Data;
 1693              		.loc 1 1139 0
 1694 0004 43F82120 		str	r2, [r3, r1, lsl #2]
 1695 0008 7047     		bx	lr
 1696              		.cfi_endproc
 1697              	.LFE145:
 1699              		.section	.text.HAL_RTCEx_BKUPRead,"ax",%progbits
 1700              		.align	1
 1701              		.global	HAL_RTCEx_BKUPRead
 1702              		.syntax unified
 1703              		.thumb
 1704              		.thumb_func
 1705              		.fpu fpv4-sp-d16
 1707              	HAL_RTCEx_BKUPRead:
 1708              	.LFB146:
1140:Drivers/STM32F3xx_HAL_Driver/Src/stm32f3xx_hal_rtc_ex.c **** }
1141:Drivers/STM32F3xx_HAL_Driver/Src/stm32f3xx_hal_rtc_ex.c **** 
1142:Drivers/STM32F3xx_HAL_Driver/Src/stm32f3xx_hal_rtc_ex.c **** /**
1143:Drivers/STM32F3xx_HAL_Driver/Src/stm32f3xx_hal_rtc_ex.c ****   * @brief  Reads data from the specified RTC Backup data Register.
1144:Drivers/STM32F3xx_HAL_Driver/Src/stm32f3xx_hal_rtc_ex.c ****   * @param  hrtc: RTC handle 
1145:Drivers/STM32F3xx_HAL_Driver/Src/stm32f3xx_hal_rtc_ex.c ****   * @param  BackupRegister: RTC Backup data Register number.
1146:Drivers/STM32F3xx_HAL_Driver/Src/stm32f3xx_hal_rtc_ex.c ****   *          This parameter can be: RTC_BKP_DRx where x can be from 0 to 19 to 
1147:Drivers/STM32F3xx_HAL_Driver/Src/stm32f3xx_hal_rtc_ex.c ****   *                                 specify the register.                   
1148:Drivers/STM32F3xx_HAL_Driver/Src/stm32f3xx_hal_rtc_ex.c ****   * @retval Read value
1149:Drivers/STM32F3xx_HAL_Driver/Src/stm32f3xx_hal_rtc_ex.c ****   */
1150:Drivers/STM32F3xx_HAL_Driver/Src/stm32f3xx_hal_rtc_ex.c **** uint32_t HAL_RTCEx_BKUPRead(RTC_HandleTypeDef *hrtc, uint32_t BackupRegister)
1151:Drivers/STM32F3xx_HAL_Driver/Src/stm32f3xx_hal_rtc_ex.c **** {
 1709              		.loc 1 1151 0
 1710              		.cfi_startproc
 1711              		@ args = 0, pretend = 0, frame = 0
 1712              		@ frame_needed = 0, uses_anonymous_args = 0
 1713              		@ link register save eliminated.
 1714              	.LVL136:
1152:Drivers/STM32F3xx_HAL_Driver/Src/stm32f3xx_hal_rtc_ex.c ****   uint32_t tmp = 0U;
1153:Drivers/STM32F3xx_HAL_Driver/Src/stm32f3xx_hal_rtc_ex.c **** 
1154:Drivers/STM32F3xx_HAL_Driver/Src/stm32f3xx_hal_rtc_ex.c ****   /* Check the parameters */
1155:Drivers/STM32F3xx_HAL_Driver/Src/stm32f3xx_hal_rtc_ex.c ****   assert_param(IS_RTC_BKP(BackupRegister));
1156:Drivers/STM32F3xx_HAL_Driver/Src/stm32f3xx_hal_rtc_ex.c **** 
1157:Drivers/STM32F3xx_HAL_Driver/Src/stm32f3xx_hal_rtc_ex.c ****   tmp = (uint32_t)&(hrtc->Instance->BKP0R);
 1715              		.loc 1 1157 0
 1716 0000 0368     		ldr	r3, [r0]
 1717 0002 5033     		adds	r3, r3, #80
 1718              	.LVL137:
1158:Drivers/STM32F3xx_HAL_Driver/Src/stm32f3xx_hal_rtc_ex.c ****   tmp += (BackupRegister * 4U);
1159:Drivers/STM32F3xx_HAL_Driver/Src/stm32f3xx_hal_rtc_ex.c **** 
1160:Drivers/STM32F3xx_HAL_Driver/Src/stm32f3xx_hal_rtc_ex.c ****   /* Read the specified register */
1161:Drivers/STM32F3xx_HAL_Driver/Src/stm32f3xx_hal_rtc_ex.c ****   return (*(__IO uint32_t *)tmp);
 1719              		.loc 1 1161 0
 1720 0004 53F82100 		ldr	r0, [r3, r1, lsl #2]
 1721              	.LVL138:
1162:Drivers/STM32F3xx_HAL_Driver/Src/stm32f3xx_hal_rtc_ex.c **** }
ARM GAS  /var/folders/p7/nwmyw04531jbkqkgv59cx10h0000gn/T//cchGdzVf.s 			page 52


 1722              		.loc 1 1162 0
 1723 0008 7047     		bx	lr
 1724              		.cfi_endproc
 1725              	.LFE146:
 1727              		.section	.text.HAL_RTCEx_SetSmoothCalib,"ax",%progbits
 1728              		.align	1
 1729              		.global	HAL_RTCEx_SetSmoothCalib
 1730              		.syntax unified
 1731              		.thumb
 1732              		.thumb_func
 1733              		.fpu fpv4-sp-d16
 1735              	HAL_RTCEx_SetSmoothCalib:
 1736              	.LFB147:
1163:Drivers/STM32F3xx_HAL_Driver/Src/stm32f3xx_hal_rtc_ex.c **** 
1164:Drivers/STM32F3xx_HAL_Driver/Src/stm32f3xx_hal_rtc_ex.c **** /**
1165:Drivers/STM32F3xx_HAL_Driver/Src/stm32f3xx_hal_rtc_ex.c ****   * @brief  Set the Smooth calibration parameters.
1166:Drivers/STM32F3xx_HAL_Driver/Src/stm32f3xx_hal_rtc_ex.c ****   * @param  hrtc: RTC handle  
1167:Drivers/STM32F3xx_HAL_Driver/Src/stm32f3xx_hal_rtc_ex.c ****   * @param  SmoothCalibPeriod: Select the Smooth Calibration Period.
1168:Drivers/STM32F3xx_HAL_Driver/Src/stm32f3xx_hal_rtc_ex.c ****   *          This parameter can be can be one of the following values :
1169:Drivers/STM32F3xx_HAL_Driver/Src/stm32f3xx_hal_rtc_ex.c ****   *             @arg RTC_SMOOTHCALIB_PERIOD_32SEC: The smooth calibration period is 32s.
1170:Drivers/STM32F3xx_HAL_Driver/Src/stm32f3xx_hal_rtc_ex.c ****   *             @arg RTC_SMOOTHCALIB_PERIOD_16SEC: The smooth calibration period is 16s.
1171:Drivers/STM32F3xx_HAL_Driver/Src/stm32f3xx_hal_rtc_ex.c ****   *             @arg RTC_SMOOTHCALIB_PERIOD_8SEC: The smooth calibration period is 8s.
1172:Drivers/STM32F3xx_HAL_Driver/Src/stm32f3xx_hal_rtc_ex.c ****   * @param  SmoothCalibPlusPulses: Select to Set or reset the CALP bit.
1173:Drivers/STM32F3xx_HAL_Driver/Src/stm32f3xx_hal_rtc_ex.c ****   *          This parameter can be one of the following values:
1174:Drivers/STM32F3xx_HAL_Driver/Src/stm32f3xx_hal_rtc_ex.c ****   *             @arg RTC_SMOOTHCALIB_PLUSPULSES_SET: Add one RTCCLK pulse every 2*11 pulses.
1175:Drivers/STM32F3xx_HAL_Driver/Src/stm32f3xx_hal_rtc_ex.c ****   *             @arg RTC_SMOOTHCALIB_PLUSPULSES_RESET: No RTCCLK pulses are added.
1176:Drivers/STM32F3xx_HAL_Driver/Src/stm32f3xx_hal_rtc_ex.c ****   * @param  SmoothCalibMinusPulsesValue: Select the value of CALM[8:0] bits.
1177:Drivers/STM32F3xx_HAL_Driver/Src/stm32f3xx_hal_rtc_ex.c ****   *          This parameter can be one any value from 0 to 0x000001FF.
1178:Drivers/STM32F3xx_HAL_Driver/Src/stm32f3xx_hal_rtc_ex.c ****   * @note   To deactivate the smooth calibration, the field SmoothCalibPlusPulses 
1179:Drivers/STM32F3xx_HAL_Driver/Src/stm32f3xx_hal_rtc_ex.c ****   *         must be equal to SMOOTHCALIB_PLUSPULSES_RESET and the field 
1180:Drivers/STM32F3xx_HAL_Driver/Src/stm32f3xx_hal_rtc_ex.c ****   *         SmoothCalibMinusPulsesValue mut be equal to 0.
1181:Drivers/STM32F3xx_HAL_Driver/Src/stm32f3xx_hal_rtc_ex.c ****   * @retval HAL status
1182:Drivers/STM32F3xx_HAL_Driver/Src/stm32f3xx_hal_rtc_ex.c ****   */
1183:Drivers/STM32F3xx_HAL_Driver/Src/stm32f3xx_hal_rtc_ex.c **** HAL_StatusTypeDef HAL_RTCEx_SetSmoothCalib(RTC_HandleTypeDef* hrtc, uint32_t SmoothCalibPeriod, uin
1184:Drivers/STM32F3xx_HAL_Driver/Src/stm32f3xx_hal_rtc_ex.c **** {
 1737              		.loc 1 1184 0
 1738              		.cfi_startproc
 1739              		@ args = 0, pretend = 0, frame = 0
 1740              		@ frame_needed = 0, uses_anonymous_args = 0
 1741              	.LVL139:
 1742 0000 2DE9F041 		push	{r4, r5, r6, r7, r8, lr}
 1743              	.LCFI20:
 1744              		.cfi_def_cfa_offset 24
 1745              		.cfi_offset 4, -24
 1746              		.cfi_offset 5, -20
 1747              		.cfi_offset 6, -16
 1748              		.cfi_offset 7, -12
 1749              		.cfi_offset 8, -8
 1750              		.cfi_offset 14, -4
 1751              	.LVL140:
1185:Drivers/STM32F3xx_HAL_Driver/Src/stm32f3xx_hal_rtc_ex.c ****   uint32_t tickstart = 0U;
1186:Drivers/STM32F3xx_HAL_Driver/Src/stm32f3xx_hal_rtc_ex.c **** 
1187:Drivers/STM32F3xx_HAL_Driver/Src/stm32f3xx_hal_rtc_ex.c ****   /* Check the parameters */
1188:Drivers/STM32F3xx_HAL_Driver/Src/stm32f3xx_hal_rtc_ex.c ****   assert_param(IS_RTC_SMOOTH_CALIB_PERIOD(SmoothCalibPeriod));
1189:Drivers/STM32F3xx_HAL_Driver/Src/stm32f3xx_hal_rtc_ex.c ****   assert_param(IS_RTC_SMOOTH_CALIB_PLUS(SmoothCalibPlusPulses));
1190:Drivers/STM32F3xx_HAL_Driver/Src/stm32f3xx_hal_rtc_ex.c ****   assert_param(IS_RTC_SMOOTH_CALIB_MINUS(SmoothCalibMinusPulsesValue));
1191:Drivers/STM32F3xx_HAL_Driver/Src/stm32f3xx_hal_rtc_ex.c **** 
ARM GAS  /var/folders/p7/nwmyw04531jbkqkgv59cx10h0000gn/T//cchGdzVf.s 			page 53


1192:Drivers/STM32F3xx_HAL_Driver/Src/stm32f3xx_hal_rtc_ex.c ****   /* Process Locked */
1193:Drivers/STM32F3xx_HAL_Driver/Src/stm32f3xx_hal_rtc_ex.c ****   __HAL_LOCK(hrtc);
 1752              		.loc 1 1193 0
 1753 0004 047F     		ldrb	r4, [r0, #28]	@ zero_extendqisi2
 1754 0006 012C     		cmp	r4, #1
 1755 0008 37D0     		beq	.L141
 1756 000a 1E46     		mov	r6, r3
 1757 000c 1746     		mov	r7, r2
 1758 000e 0D46     		mov	r5, r1
 1759 0010 0446     		mov	r4, r0
 1760              		.loc 1 1193 0 is_stmt 0 discriminator 2
 1761 0012 0123     		movs	r3, #1
 1762              	.LVL141:
 1763 0014 0377     		strb	r3, [r0, #28]
1194:Drivers/STM32F3xx_HAL_Driver/Src/stm32f3xx_hal_rtc_ex.c **** 
1195:Drivers/STM32F3xx_HAL_Driver/Src/stm32f3xx_hal_rtc_ex.c ****   hrtc->State = HAL_RTC_STATE_BUSY;
 1764              		.loc 1 1195 0 is_stmt 1 discriminator 2
 1765 0016 0223     		movs	r3, #2
 1766 0018 4377     		strb	r3, [r0, #29]
1196:Drivers/STM32F3xx_HAL_Driver/Src/stm32f3xx_hal_rtc_ex.c **** 
1197:Drivers/STM32F3xx_HAL_Driver/Src/stm32f3xx_hal_rtc_ex.c ****   /* Disable the write protection for RTC registers */
1198:Drivers/STM32F3xx_HAL_Driver/Src/stm32f3xx_hal_rtc_ex.c ****   __HAL_RTC_WRITEPROTECTION_DISABLE(hrtc);
 1767              		.loc 1 1198 0 discriminator 2
 1768 001a 0368     		ldr	r3, [r0]
 1769 001c CA22     		movs	r2, #202
 1770              	.LVL142:
 1771 001e 5A62     		str	r2, [r3, #36]
 1772 0020 0368     		ldr	r3, [r0]
 1773 0022 5322     		movs	r2, #83
 1774 0024 5A62     		str	r2, [r3, #36]
1199:Drivers/STM32F3xx_HAL_Driver/Src/stm32f3xx_hal_rtc_ex.c **** 
1200:Drivers/STM32F3xx_HAL_Driver/Src/stm32f3xx_hal_rtc_ex.c ****   /* check if a calibration is pending*/
1201:Drivers/STM32F3xx_HAL_Driver/Src/stm32f3xx_hal_rtc_ex.c ****   if((hrtc->Instance->ISR & RTC_ISR_RECALPF) != RESET)
 1775              		.loc 1 1201 0 discriminator 2
 1776 0026 0368     		ldr	r3, [r0]
 1777 0028 DB68     		ldr	r3, [r3, #12]
 1778 002a 13F4803F 		tst	r3, #65536
 1779 002e 0CD1     		bne	.L143
 1780              	.LVL143:
 1781              	.L138:
1202:Drivers/STM32F3xx_HAL_Driver/Src/stm32f3xx_hal_rtc_ex.c ****   {
1203:Drivers/STM32F3xx_HAL_Driver/Src/stm32f3xx_hal_rtc_ex.c ****     tickstart = HAL_GetTick();
1204:Drivers/STM32F3xx_HAL_Driver/Src/stm32f3xx_hal_rtc_ex.c **** 
1205:Drivers/STM32F3xx_HAL_Driver/Src/stm32f3xx_hal_rtc_ex.c ****     /* check if a calibration is pending*/
1206:Drivers/STM32F3xx_HAL_Driver/Src/stm32f3xx_hal_rtc_ex.c ****     while((hrtc->Instance->ISR & RTC_ISR_RECALPF) != RESET)
1207:Drivers/STM32F3xx_HAL_Driver/Src/stm32f3xx_hal_rtc_ex.c ****     {
1208:Drivers/STM32F3xx_HAL_Driver/Src/stm32f3xx_hal_rtc_ex.c ****       if((HAL_GetTick()-tickstart) > RTC_TIMEOUT_VALUE)
1209:Drivers/STM32F3xx_HAL_Driver/Src/stm32f3xx_hal_rtc_ex.c ****       {
1210:Drivers/STM32F3xx_HAL_Driver/Src/stm32f3xx_hal_rtc_ex.c ****         /* Enable the write protection for RTC registers */
1211:Drivers/STM32F3xx_HAL_Driver/Src/stm32f3xx_hal_rtc_ex.c ****         __HAL_RTC_WRITEPROTECTION_ENABLE(hrtc);
1212:Drivers/STM32F3xx_HAL_Driver/Src/stm32f3xx_hal_rtc_ex.c **** 
1213:Drivers/STM32F3xx_HAL_Driver/Src/stm32f3xx_hal_rtc_ex.c ****         /* Change RTC state */
1214:Drivers/STM32F3xx_HAL_Driver/Src/stm32f3xx_hal_rtc_ex.c ****         hrtc->State = HAL_RTC_STATE_TIMEOUT;
1215:Drivers/STM32F3xx_HAL_Driver/Src/stm32f3xx_hal_rtc_ex.c **** 
1216:Drivers/STM32F3xx_HAL_Driver/Src/stm32f3xx_hal_rtc_ex.c ****         /* Process Unlocked */
1217:Drivers/STM32F3xx_HAL_Driver/Src/stm32f3xx_hal_rtc_ex.c ****         __HAL_UNLOCK(hrtc);
1218:Drivers/STM32F3xx_HAL_Driver/Src/stm32f3xx_hal_rtc_ex.c **** 
ARM GAS  /var/folders/p7/nwmyw04531jbkqkgv59cx10h0000gn/T//cchGdzVf.s 			page 54


1219:Drivers/STM32F3xx_HAL_Driver/Src/stm32f3xx_hal_rtc_ex.c ****         return HAL_TIMEOUT;
1220:Drivers/STM32F3xx_HAL_Driver/Src/stm32f3xx_hal_rtc_ex.c ****       }
1221:Drivers/STM32F3xx_HAL_Driver/Src/stm32f3xx_hal_rtc_ex.c ****     }
1222:Drivers/STM32F3xx_HAL_Driver/Src/stm32f3xx_hal_rtc_ex.c ****   }
1223:Drivers/STM32F3xx_HAL_Driver/Src/stm32f3xx_hal_rtc_ex.c **** 
1224:Drivers/STM32F3xx_HAL_Driver/Src/stm32f3xx_hal_rtc_ex.c ****   /* Configure the Smooth calibration settings */
1225:Drivers/STM32F3xx_HAL_Driver/Src/stm32f3xx_hal_rtc_ex.c ****   hrtc->Instance->CALR = (uint32_t)((uint32_t)SmoothCalibPeriod | (uint32_t)SmoothCalibPlusPulses |
 1782              		.loc 1 1225 0
 1783 0030 2368     		ldr	r3, [r4]
 1784 0032 3D43     		orrs	r5, r5, r7
 1785              	.LVL144:
 1786 0034 3543     		orrs	r5, r5, r6
 1787 0036 DD63     		str	r5, [r3, #60]
1226:Drivers/STM32F3xx_HAL_Driver/Src/stm32f3xx_hal_rtc_ex.c **** 
1227:Drivers/STM32F3xx_HAL_Driver/Src/stm32f3xx_hal_rtc_ex.c ****   /* Enable the write protection for RTC registers */
1228:Drivers/STM32F3xx_HAL_Driver/Src/stm32f3xx_hal_rtc_ex.c ****   __HAL_RTC_WRITEPROTECTION_ENABLE(hrtc);
 1788              		.loc 1 1228 0
 1789 0038 2368     		ldr	r3, [r4]
 1790 003a FF22     		movs	r2, #255
 1791 003c 5A62     		str	r2, [r3, #36]
1229:Drivers/STM32F3xx_HAL_Driver/Src/stm32f3xx_hal_rtc_ex.c **** 
1230:Drivers/STM32F3xx_HAL_Driver/Src/stm32f3xx_hal_rtc_ex.c ****   /* Change RTC state */
1231:Drivers/STM32F3xx_HAL_Driver/Src/stm32f3xx_hal_rtc_ex.c ****   hrtc->State = HAL_RTC_STATE_READY;
 1792              		.loc 1 1231 0
 1793 003e 0123     		movs	r3, #1
 1794 0040 6377     		strb	r3, [r4, #29]
1232:Drivers/STM32F3xx_HAL_Driver/Src/stm32f3xx_hal_rtc_ex.c **** 
1233:Drivers/STM32F3xx_HAL_Driver/Src/stm32f3xx_hal_rtc_ex.c ****   /* Process Unlocked */
1234:Drivers/STM32F3xx_HAL_Driver/Src/stm32f3xx_hal_rtc_ex.c ****   __HAL_UNLOCK(hrtc);
 1795              		.loc 1 1234 0
 1796 0042 0020     		movs	r0, #0
 1797 0044 2077     		strb	r0, [r4, #28]
1235:Drivers/STM32F3xx_HAL_Driver/Src/stm32f3xx_hal_rtc_ex.c **** 
1236:Drivers/STM32F3xx_HAL_Driver/Src/stm32f3xx_hal_rtc_ex.c ****   return HAL_OK;
 1798              		.loc 1 1236 0
 1799 0046 BDE8F081 		pop	{r4, r5, r6, r7, r8, pc}
 1800              	.LVL145:
 1801              	.L143:
1203:Drivers/STM32F3xx_HAL_Driver/Src/stm32f3xx_hal_rtc_ex.c **** 
 1802              		.loc 1 1203 0
 1803 004a FFF7FEFF 		bl	HAL_GetTick
 1804              	.LVL146:
 1805 004e 8046     		mov	r8, r0
 1806              	.LVL147:
 1807              	.L139:
1206:Drivers/STM32F3xx_HAL_Driver/Src/stm32f3xx_hal_rtc_ex.c ****     {
 1808              		.loc 1 1206 0
 1809 0050 2168     		ldr	r1, [r4]
 1810 0052 C968     		ldr	r1, [r1, #12]
 1811 0054 11F4803F 		tst	r1, #65536
 1812 0058 EAD0     		beq	.L138
1208:Drivers/STM32F3xx_HAL_Driver/Src/stm32f3xx_hal_rtc_ex.c ****       {
 1813              		.loc 1 1208 0
 1814 005a FFF7FEFF 		bl	HAL_GetTick
 1815              	.LVL148:
 1816 005e A0EB0800 		sub	r0, r0, r8
 1817 0062 B0F57A7F 		cmp	r0, #1000
ARM GAS  /var/folders/p7/nwmyw04531jbkqkgv59cx10h0000gn/T//cchGdzVf.s 			page 55


 1818 0066 F3D9     		bls	.L139
1211:Drivers/STM32F3xx_HAL_Driver/Src/stm32f3xx_hal_rtc_ex.c **** 
 1819              		.loc 1 1211 0
 1820 0068 2368     		ldr	r3, [r4]
 1821 006a FF22     		movs	r2, #255
 1822 006c 5A62     		str	r2, [r3, #36]
1214:Drivers/STM32F3xx_HAL_Driver/Src/stm32f3xx_hal_rtc_ex.c **** 
 1823              		.loc 1 1214 0
 1824 006e 0320     		movs	r0, #3
 1825 0070 6077     		strb	r0, [r4, #29]
1217:Drivers/STM32F3xx_HAL_Driver/Src/stm32f3xx_hal_rtc_ex.c **** 
 1826              		.loc 1 1217 0
 1827 0072 0023     		movs	r3, #0
 1828 0074 2377     		strb	r3, [r4, #28]
1219:Drivers/STM32F3xx_HAL_Driver/Src/stm32f3xx_hal_rtc_ex.c ****       }
 1829              		.loc 1 1219 0
 1830 0076 BDE8F081 		pop	{r4, r5, r6, r7, r8, pc}
 1831              	.LVL149:
 1832              	.L141:
1193:Drivers/STM32F3xx_HAL_Driver/Src/stm32f3xx_hal_rtc_ex.c **** 
 1833              		.loc 1 1193 0
 1834 007a 0220     		movs	r0, #2
 1835              	.LVL150:
1237:Drivers/STM32F3xx_HAL_Driver/Src/stm32f3xx_hal_rtc_ex.c **** }
 1836              		.loc 1 1237 0
 1837 007c BDE8F081 		pop	{r4, r5, r6, r7, r8, pc}
 1838              		.cfi_endproc
 1839              	.LFE147:
 1841              		.section	.text.HAL_RTCEx_SetSynchroShift,"ax",%progbits
 1842              		.align	1
 1843              		.global	HAL_RTCEx_SetSynchroShift
 1844              		.syntax unified
 1845              		.thumb
 1846              		.thumb_func
 1847              		.fpu fpv4-sp-d16
 1849              	HAL_RTCEx_SetSynchroShift:
 1850              	.LFB148:
1238:Drivers/STM32F3xx_HAL_Driver/Src/stm32f3xx_hal_rtc_ex.c **** 
1239:Drivers/STM32F3xx_HAL_Driver/Src/stm32f3xx_hal_rtc_ex.c **** /**
1240:Drivers/STM32F3xx_HAL_Driver/Src/stm32f3xx_hal_rtc_ex.c ****   * @brief  Configure the Synchronization Shift Control Settings.
1241:Drivers/STM32F3xx_HAL_Driver/Src/stm32f3xx_hal_rtc_ex.c ****   * @note   When REFCKON is set, firmware must not write to Shift control register. 
1242:Drivers/STM32F3xx_HAL_Driver/Src/stm32f3xx_hal_rtc_ex.c ****   * @param  hrtc: RTC handle    
1243:Drivers/STM32F3xx_HAL_Driver/Src/stm32f3xx_hal_rtc_ex.c ****   * @param  ShiftAdd1S: Select to add or not 1 second to the time calendar.
1244:Drivers/STM32F3xx_HAL_Driver/Src/stm32f3xx_hal_rtc_ex.c ****   *          This parameter can be one of the following values :
1245:Drivers/STM32F3xx_HAL_Driver/Src/stm32f3xx_hal_rtc_ex.c ****   *             @arg RTC_SHIFTADD1S_SET: Add one second to the clock calendar. 
1246:Drivers/STM32F3xx_HAL_Driver/Src/stm32f3xx_hal_rtc_ex.c ****   *             @arg RTC_SHIFTADD1S_RESET: No effect.
1247:Drivers/STM32F3xx_HAL_Driver/Src/stm32f3xx_hal_rtc_ex.c ****   * @param  ShiftSubFS: Select the number of Second Fractions to substitute.
1248:Drivers/STM32F3xx_HAL_Driver/Src/stm32f3xx_hal_rtc_ex.c ****   *          This parameter can be one any value from 0 to 0x7FFF.
1249:Drivers/STM32F3xx_HAL_Driver/Src/stm32f3xx_hal_rtc_ex.c ****   * @retval HAL status
1250:Drivers/STM32F3xx_HAL_Driver/Src/stm32f3xx_hal_rtc_ex.c ****   */
1251:Drivers/STM32F3xx_HAL_Driver/Src/stm32f3xx_hal_rtc_ex.c **** HAL_StatusTypeDef HAL_RTCEx_SetSynchroShift(RTC_HandleTypeDef* hrtc, uint32_t ShiftAdd1S, uint32_t 
1252:Drivers/STM32F3xx_HAL_Driver/Src/stm32f3xx_hal_rtc_ex.c **** {
 1851              		.loc 1 1252 0
 1852              		.cfi_startproc
 1853              		@ args = 0, pretend = 0, frame = 0
 1854              		@ frame_needed = 0, uses_anonymous_args = 0
 1855              	.LVL151:
ARM GAS  /var/folders/p7/nwmyw04531jbkqkgv59cx10h0000gn/T//cchGdzVf.s 			page 56


 1856 0000 F8B5     		push	{r3, r4, r5, r6, r7, lr}
 1857              	.LCFI21:
 1858              		.cfi_def_cfa_offset 24
 1859              		.cfi_offset 3, -24
 1860              		.cfi_offset 4, -20
 1861              		.cfi_offset 5, -16
 1862              		.cfi_offset 6, -12
 1863              		.cfi_offset 7, -8
 1864              		.cfi_offset 14, -4
 1865              	.LVL152:
1253:Drivers/STM32F3xx_HAL_Driver/Src/stm32f3xx_hal_rtc_ex.c ****   uint32_t tickstart = 0U;
1254:Drivers/STM32F3xx_HAL_Driver/Src/stm32f3xx_hal_rtc_ex.c **** 
1255:Drivers/STM32F3xx_HAL_Driver/Src/stm32f3xx_hal_rtc_ex.c ****   /* Check the parameters */
1256:Drivers/STM32F3xx_HAL_Driver/Src/stm32f3xx_hal_rtc_ex.c ****   assert_param(IS_RTC_SHIFT_ADD1S(ShiftAdd1S));
1257:Drivers/STM32F3xx_HAL_Driver/Src/stm32f3xx_hal_rtc_ex.c ****   assert_param(IS_RTC_SHIFT_SUBFS(ShiftSubFS));
1258:Drivers/STM32F3xx_HAL_Driver/Src/stm32f3xx_hal_rtc_ex.c **** 
1259:Drivers/STM32F3xx_HAL_Driver/Src/stm32f3xx_hal_rtc_ex.c ****   /* Process Locked */
1260:Drivers/STM32F3xx_HAL_Driver/Src/stm32f3xx_hal_rtc_ex.c ****   __HAL_LOCK(hrtc);
 1866              		.loc 1 1260 0
 1867 0002 037F     		ldrb	r3, [r0, #28]	@ zero_extendqisi2
 1868 0004 012B     		cmp	r3, #1
 1869 0006 01D1     		bne	.L152
 1870 0008 0220     		movs	r0, #2
 1871              	.LVL153:
1261:Drivers/STM32F3xx_HAL_Driver/Src/stm32f3xx_hal_rtc_ex.c **** 
1262:Drivers/STM32F3xx_HAL_Driver/Src/stm32f3xx_hal_rtc_ex.c ****   hrtc->State = HAL_RTC_STATE_BUSY;
1263:Drivers/STM32F3xx_HAL_Driver/Src/stm32f3xx_hal_rtc_ex.c **** 
1264:Drivers/STM32F3xx_HAL_Driver/Src/stm32f3xx_hal_rtc_ex.c ****   /* Disable the write protection for RTC registers */
1265:Drivers/STM32F3xx_HAL_Driver/Src/stm32f3xx_hal_rtc_ex.c ****   __HAL_RTC_WRITEPROTECTION_DISABLE(hrtc);
1266:Drivers/STM32F3xx_HAL_Driver/Src/stm32f3xx_hal_rtc_ex.c **** 
1267:Drivers/STM32F3xx_HAL_Driver/Src/stm32f3xx_hal_rtc_ex.c ****     tickstart = HAL_GetTick();
1268:Drivers/STM32F3xx_HAL_Driver/Src/stm32f3xx_hal_rtc_ex.c **** 
1269:Drivers/STM32F3xx_HAL_Driver/Src/stm32f3xx_hal_rtc_ex.c ****     /* Wait until the shift is completed*/
1270:Drivers/STM32F3xx_HAL_Driver/Src/stm32f3xx_hal_rtc_ex.c ****     while((hrtc->Instance->ISR & RTC_ISR_SHPF) != RESET)
1271:Drivers/STM32F3xx_HAL_Driver/Src/stm32f3xx_hal_rtc_ex.c ****     {
1272:Drivers/STM32F3xx_HAL_Driver/Src/stm32f3xx_hal_rtc_ex.c ****       if((HAL_GetTick()-tickstart) > RTC_TIMEOUT_VALUE)
1273:Drivers/STM32F3xx_HAL_Driver/Src/stm32f3xx_hal_rtc_ex.c ****       {
1274:Drivers/STM32F3xx_HAL_Driver/Src/stm32f3xx_hal_rtc_ex.c ****         /* Enable the write protection for RTC registers */
1275:Drivers/STM32F3xx_HAL_Driver/Src/stm32f3xx_hal_rtc_ex.c ****         __HAL_RTC_WRITEPROTECTION_ENABLE(hrtc);
1276:Drivers/STM32F3xx_HAL_Driver/Src/stm32f3xx_hal_rtc_ex.c **** 
1277:Drivers/STM32F3xx_HAL_Driver/Src/stm32f3xx_hal_rtc_ex.c ****         hrtc->State = HAL_RTC_STATE_TIMEOUT;
1278:Drivers/STM32F3xx_HAL_Driver/Src/stm32f3xx_hal_rtc_ex.c **** 
1279:Drivers/STM32F3xx_HAL_Driver/Src/stm32f3xx_hal_rtc_ex.c ****         /* Process Unlocked */
1280:Drivers/STM32F3xx_HAL_Driver/Src/stm32f3xx_hal_rtc_ex.c ****         __HAL_UNLOCK(hrtc);
1281:Drivers/STM32F3xx_HAL_Driver/Src/stm32f3xx_hal_rtc_ex.c **** 
1282:Drivers/STM32F3xx_HAL_Driver/Src/stm32f3xx_hal_rtc_ex.c ****         return HAL_TIMEOUT;
1283:Drivers/STM32F3xx_HAL_Driver/Src/stm32f3xx_hal_rtc_ex.c ****       }
1284:Drivers/STM32F3xx_HAL_Driver/Src/stm32f3xx_hal_rtc_ex.c ****     }
1285:Drivers/STM32F3xx_HAL_Driver/Src/stm32f3xx_hal_rtc_ex.c **** 
1286:Drivers/STM32F3xx_HAL_Driver/Src/stm32f3xx_hal_rtc_ex.c ****     /* Check if the reference clock detection is disabled */
1287:Drivers/STM32F3xx_HAL_Driver/Src/stm32f3xx_hal_rtc_ex.c ****     if((hrtc->Instance->CR & RTC_CR_REFCKON) == RESET)
1288:Drivers/STM32F3xx_HAL_Driver/Src/stm32f3xx_hal_rtc_ex.c ****     {
1289:Drivers/STM32F3xx_HAL_Driver/Src/stm32f3xx_hal_rtc_ex.c ****       /* Configure the Shift settings */
1290:Drivers/STM32F3xx_HAL_Driver/Src/stm32f3xx_hal_rtc_ex.c ****       hrtc->Instance->SHIFTR = (uint32_t)(uint32_t)(ShiftSubFS) | (uint32_t)(ShiftAdd1S);
1291:Drivers/STM32F3xx_HAL_Driver/Src/stm32f3xx_hal_rtc_ex.c **** 
1292:Drivers/STM32F3xx_HAL_Driver/Src/stm32f3xx_hal_rtc_ex.c ****       /* If  RTC_CR_BYPSHAD bit = 0U, wait for synchro else this check is not needed */
1293:Drivers/STM32F3xx_HAL_Driver/Src/stm32f3xx_hal_rtc_ex.c ****       if((hrtc->Instance->CR & RTC_CR_BYPSHAD) == RESET)
ARM GAS  /var/folders/p7/nwmyw04531jbkqkgv59cx10h0000gn/T//cchGdzVf.s 			page 57


1294:Drivers/STM32F3xx_HAL_Driver/Src/stm32f3xx_hal_rtc_ex.c ****       {
1295:Drivers/STM32F3xx_HAL_Driver/Src/stm32f3xx_hal_rtc_ex.c ****         if(HAL_RTC_WaitForSynchro(hrtc) != HAL_OK)
1296:Drivers/STM32F3xx_HAL_Driver/Src/stm32f3xx_hal_rtc_ex.c ****         {
1297:Drivers/STM32F3xx_HAL_Driver/Src/stm32f3xx_hal_rtc_ex.c ****           /* Enable the write protection for RTC registers */
1298:Drivers/STM32F3xx_HAL_Driver/Src/stm32f3xx_hal_rtc_ex.c ****           __HAL_RTC_WRITEPROTECTION_ENABLE(hrtc);
1299:Drivers/STM32F3xx_HAL_Driver/Src/stm32f3xx_hal_rtc_ex.c **** 
1300:Drivers/STM32F3xx_HAL_Driver/Src/stm32f3xx_hal_rtc_ex.c ****           hrtc->State = HAL_RTC_STATE_ERROR;
1301:Drivers/STM32F3xx_HAL_Driver/Src/stm32f3xx_hal_rtc_ex.c **** 
1302:Drivers/STM32F3xx_HAL_Driver/Src/stm32f3xx_hal_rtc_ex.c ****           /* Process Unlocked */
1303:Drivers/STM32F3xx_HAL_Driver/Src/stm32f3xx_hal_rtc_ex.c ****           __HAL_UNLOCK(hrtc);
1304:Drivers/STM32F3xx_HAL_Driver/Src/stm32f3xx_hal_rtc_ex.c **** 
1305:Drivers/STM32F3xx_HAL_Driver/Src/stm32f3xx_hal_rtc_ex.c ****           return HAL_ERROR;
1306:Drivers/STM32F3xx_HAL_Driver/Src/stm32f3xx_hal_rtc_ex.c ****         }
1307:Drivers/STM32F3xx_HAL_Driver/Src/stm32f3xx_hal_rtc_ex.c ****       }
1308:Drivers/STM32F3xx_HAL_Driver/Src/stm32f3xx_hal_rtc_ex.c ****     }
1309:Drivers/STM32F3xx_HAL_Driver/Src/stm32f3xx_hal_rtc_ex.c ****     else
1310:Drivers/STM32F3xx_HAL_Driver/Src/stm32f3xx_hal_rtc_ex.c ****     {
1311:Drivers/STM32F3xx_HAL_Driver/Src/stm32f3xx_hal_rtc_ex.c ****       /* Enable the write protection for RTC registers */
1312:Drivers/STM32F3xx_HAL_Driver/Src/stm32f3xx_hal_rtc_ex.c ****       __HAL_RTC_WRITEPROTECTION_ENABLE(hrtc);
1313:Drivers/STM32F3xx_HAL_Driver/Src/stm32f3xx_hal_rtc_ex.c **** 
1314:Drivers/STM32F3xx_HAL_Driver/Src/stm32f3xx_hal_rtc_ex.c ****       /* Change RTC state */
1315:Drivers/STM32F3xx_HAL_Driver/Src/stm32f3xx_hal_rtc_ex.c ****       hrtc->State = HAL_RTC_STATE_ERROR;
1316:Drivers/STM32F3xx_HAL_Driver/Src/stm32f3xx_hal_rtc_ex.c **** 
1317:Drivers/STM32F3xx_HAL_Driver/Src/stm32f3xx_hal_rtc_ex.c ****       /* Process Unlocked */
1318:Drivers/STM32F3xx_HAL_Driver/Src/stm32f3xx_hal_rtc_ex.c ****       __HAL_UNLOCK(hrtc);
1319:Drivers/STM32F3xx_HAL_Driver/Src/stm32f3xx_hal_rtc_ex.c **** 
1320:Drivers/STM32F3xx_HAL_Driver/Src/stm32f3xx_hal_rtc_ex.c ****       return HAL_ERROR;
1321:Drivers/STM32F3xx_HAL_Driver/Src/stm32f3xx_hal_rtc_ex.c ****     }
1322:Drivers/STM32F3xx_HAL_Driver/Src/stm32f3xx_hal_rtc_ex.c **** 
1323:Drivers/STM32F3xx_HAL_Driver/Src/stm32f3xx_hal_rtc_ex.c ****   /* Enable the write protection for RTC registers */
1324:Drivers/STM32F3xx_HAL_Driver/Src/stm32f3xx_hal_rtc_ex.c ****   __HAL_RTC_WRITEPROTECTION_ENABLE(hrtc);
1325:Drivers/STM32F3xx_HAL_Driver/Src/stm32f3xx_hal_rtc_ex.c **** 
1326:Drivers/STM32F3xx_HAL_Driver/Src/stm32f3xx_hal_rtc_ex.c ****   /* Change RTC state */
1327:Drivers/STM32F3xx_HAL_Driver/Src/stm32f3xx_hal_rtc_ex.c ****   hrtc->State = HAL_RTC_STATE_READY;
1328:Drivers/STM32F3xx_HAL_Driver/Src/stm32f3xx_hal_rtc_ex.c **** 
1329:Drivers/STM32F3xx_HAL_Driver/Src/stm32f3xx_hal_rtc_ex.c ****   /* Process Unlocked */
1330:Drivers/STM32F3xx_HAL_Driver/Src/stm32f3xx_hal_rtc_ex.c ****   __HAL_UNLOCK(hrtc);
1331:Drivers/STM32F3xx_HAL_Driver/Src/stm32f3xx_hal_rtc_ex.c **** 
1332:Drivers/STM32F3xx_HAL_Driver/Src/stm32f3xx_hal_rtc_ex.c ****   return HAL_OK;
1333:Drivers/STM32F3xx_HAL_Driver/Src/stm32f3xx_hal_rtc_ex.c **** }
 1872              		.loc 1 1333 0
 1873 000a F8BD     		pop	{r3, r4, r5, r6, r7, pc}
 1874              	.LVL154:
 1875              	.L152:
 1876 000c 1646     		mov	r6, r2
 1877 000e 0F46     		mov	r7, r1
 1878 0010 0446     		mov	r4, r0
1260:Drivers/STM32F3xx_HAL_Driver/Src/stm32f3xx_hal_rtc_ex.c **** 
 1879              		.loc 1 1260 0 discriminator 2
 1880 0012 0123     		movs	r3, #1
 1881 0014 0377     		strb	r3, [r0, #28]
1262:Drivers/STM32F3xx_HAL_Driver/Src/stm32f3xx_hal_rtc_ex.c **** 
 1882              		.loc 1 1262 0 discriminator 2
 1883 0016 0223     		movs	r3, #2
 1884 0018 4377     		strb	r3, [r0, #29]
1265:Drivers/STM32F3xx_HAL_Driver/Src/stm32f3xx_hal_rtc_ex.c **** 
 1885              		.loc 1 1265 0 discriminator 2
ARM GAS  /var/folders/p7/nwmyw04531jbkqkgv59cx10h0000gn/T//cchGdzVf.s 			page 58


 1886 001a 0368     		ldr	r3, [r0]
 1887 001c CA22     		movs	r2, #202
 1888              	.LVL155:
 1889 001e 5A62     		str	r2, [r3, #36]
 1890 0020 0368     		ldr	r3, [r0]
 1891 0022 5322     		movs	r2, #83
 1892 0024 5A62     		str	r2, [r3, #36]
1267:Drivers/STM32F3xx_HAL_Driver/Src/stm32f3xx_hal_rtc_ex.c **** 
 1893              		.loc 1 1267 0 discriminator 2
 1894 0026 FFF7FEFF 		bl	HAL_GetTick
 1895              	.LVL156:
 1896 002a 0546     		mov	r5, r0
 1897              	.LVL157:
 1898              	.L146:
1270:Drivers/STM32F3xx_HAL_Driver/Src/stm32f3xx_hal_rtc_ex.c ****     {
 1899              		.loc 1 1270 0
 1900 002c 2368     		ldr	r3, [r4]
 1901 002e D868     		ldr	r0, [r3, #12]
 1902 0030 10F0080F 		tst	r0, #8
 1903 0034 0DD0     		beq	.L153
1272:Drivers/STM32F3xx_HAL_Driver/Src/stm32f3xx_hal_rtc_ex.c ****       {
 1904              		.loc 1 1272 0
 1905 0036 FFF7FEFF 		bl	HAL_GetTick
 1906              	.LVL158:
 1907 003a 401B     		subs	r0, r0, r5
 1908 003c B0F57A7F 		cmp	r0, #1000
 1909 0040 F4D9     		bls	.L146
1275:Drivers/STM32F3xx_HAL_Driver/Src/stm32f3xx_hal_rtc_ex.c **** 
 1910              		.loc 1 1275 0
 1911 0042 2368     		ldr	r3, [r4]
 1912 0044 FF22     		movs	r2, #255
 1913 0046 5A62     		str	r2, [r3, #36]
1277:Drivers/STM32F3xx_HAL_Driver/Src/stm32f3xx_hal_rtc_ex.c **** 
 1914              		.loc 1 1277 0
 1915 0048 0320     		movs	r0, #3
 1916 004a 6077     		strb	r0, [r4, #29]
1280:Drivers/STM32F3xx_HAL_Driver/Src/stm32f3xx_hal_rtc_ex.c **** 
 1917              		.loc 1 1280 0
 1918 004c 0023     		movs	r3, #0
 1919 004e 2377     		strb	r3, [r4, #28]
1282:Drivers/STM32F3xx_HAL_Driver/Src/stm32f3xx_hal_rtc_ex.c ****       }
 1920              		.loc 1 1282 0
 1921 0050 F8BD     		pop	{r3, r4, r5, r6, r7, pc}
 1922              	.LVL159:
 1923              	.L153:
1287:Drivers/STM32F3xx_HAL_Driver/Src/stm32f3xx_hal_rtc_ex.c ****     {
 1924              		.loc 1 1287 0
 1925 0052 9A68     		ldr	r2, [r3, #8]
 1926 0054 12F0100F 		tst	r2, #16
 1927 0058 1CD1     		bne	.L148
1290:Drivers/STM32F3xx_HAL_Driver/Src/stm32f3xx_hal_rtc_ex.c **** 
 1928              		.loc 1 1290 0
 1929 005a 3E43     		orrs	r6, r6, r7
 1930              	.LVL160:
 1931 005c DE62     		str	r6, [r3, #44]
1293:Drivers/STM32F3xx_HAL_Driver/Src/stm32f3xx_hal_rtc_ex.c ****       {
 1932              		.loc 1 1293 0
ARM GAS  /var/folders/p7/nwmyw04531jbkqkgv59cx10h0000gn/T//cchGdzVf.s 			page 59


 1933 005e 2368     		ldr	r3, [r4]
 1934 0060 9B68     		ldr	r3, [r3, #8]
 1935 0062 13F0200F 		tst	r3, #32
 1936 0066 07D0     		beq	.L154
 1937              	.L149:
1324:Drivers/STM32F3xx_HAL_Driver/Src/stm32f3xx_hal_rtc_ex.c **** 
 1938              		.loc 1 1324 0
 1939 0068 2368     		ldr	r3, [r4]
 1940 006a FF22     		movs	r2, #255
 1941 006c 5A62     		str	r2, [r3, #36]
1327:Drivers/STM32F3xx_HAL_Driver/Src/stm32f3xx_hal_rtc_ex.c **** 
 1942              		.loc 1 1327 0
 1943 006e 0123     		movs	r3, #1
 1944 0070 6377     		strb	r3, [r4, #29]
1330:Drivers/STM32F3xx_HAL_Driver/Src/stm32f3xx_hal_rtc_ex.c **** 
 1945              		.loc 1 1330 0
 1946 0072 0020     		movs	r0, #0
 1947 0074 2077     		strb	r0, [r4, #28]
1332:Drivers/STM32F3xx_HAL_Driver/Src/stm32f3xx_hal_rtc_ex.c **** }
 1948              		.loc 1 1332 0
 1949 0076 F8BD     		pop	{r3, r4, r5, r6, r7, pc}
 1950              	.LVL161:
 1951              	.L154:
1295:Drivers/STM32F3xx_HAL_Driver/Src/stm32f3xx_hal_rtc_ex.c ****         {
 1952              		.loc 1 1295 0
 1953 0078 2046     		mov	r0, r4
 1954 007a FFF7FEFF 		bl	HAL_RTC_WaitForSynchro
 1955              	.LVL162:
 1956 007e 0028     		cmp	r0, #0
 1957 0080 F2D0     		beq	.L149
1298:Drivers/STM32F3xx_HAL_Driver/Src/stm32f3xx_hal_rtc_ex.c **** 
 1958              		.loc 1 1298 0
 1959 0082 2368     		ldr	r3, [r4]
 1960 0084 FF22     		movs	r2, #255
 1961 0086 5A62     		str	r2, [r3, #36]
1300:Drivers/STM32F3xx_HAL_Driver/Src/stm32f3xx_hal_rtc_ex.c **** 
 1962              		.loc 1 1300 0
 1963 0088 0423     		movs	r3, #4
 1964 008a 6377     		strb	r3, [r4, #29]
1303:Drivers/STM32F3xx_HAL_Driver/Src/stm32f3xx_hal_rtc_ex.c **** 
 1965              		.loc 1 1303 0
 1966 008c 0023     		movs	r3, #0
 1967 008e 2377     		strb	r3, [r4, #28]
1305:Drivers/STM32F3xx_HAL_Driver/Src/stm32f3xx_hal_rtc_ex.c ****         }
 1968              		.loc 1 1305 0
 1969 0090 0120     		movs	r0, #1
 1970 0092 F8BD     		pop	{r3, r4, r5, r6, r7, pc}
 1971              	.LVL163:
 1972              	.L148:
1312:Drivers/STM32F3xx_HAL_Driver/Src/stm32f3xx_hal_rtc_ex.c **** 
 1973              		.loc 1 1312 0
 1974 0094 FF22     		movs	r2, #255
 1975 0096 5A62     		str	r2, [r3, #36]
1315:Drivers/STM32F3xx_HAL_Driver/Src/stm32f3xx_hal_rtc_ex.c **** 
 1976              		.loc 1 1315 0
 1977 0098 0423     		movs	r3, #4
 1978 009a 6377     		strb	r3, [r4, #29]
ARM GAS  /var/folders/p7/nwmyw04531jbkqkgv59cx10h0000gn/T//cchGdzVf.s 			page 60


1318:Drivers/STM32F3xx_HAL_Driver/Src/stm32f3xx_hal_rtc_ex.c **** 
 1979              		.loc 1 1318 0
 1980 009c 0023     		movs	r3, #0
 1981 009e 2377     		strb	r3, [r4, #28]
1320:Drivers/STM32F3xx_HAL_Driver/Src/stm32f3xx_hal_rtc_ex.c ****     }
 1982              		.loc 1 1320 0
 1983 00a0 0120     		movs	r0, #1
 1984 00a2 F8BD     		pop	{r3, r4, r5, r6, r7, pc}
 1985              		.cfi_endproc
 1986              	.LFE148:
 1988              		.section	.text.HAL_RTCEx_SetCalibrationOutPut,"ax",%progbits
 1989              		.align	1
 1990              		.global	HAL_RTCEx_SetCalibrationOutPut
 1991              		.syntax unified
 1992              		.thumb
 1993              		.thumb_func
 1994              		.fpu fpv4-sp-d16
 1996              	HAL_RTCEx_SetCalibrationOutPut:
 1997              	.LFB149:
1334:Drivers/STM32F3xx_HAL_Driver/Src/stm32f3xx_hal_rtc_ex.c **** 
1335:Drivers/STM32F3xx_HAL_Driver/Src/stm32f3xx_hal_rtc_ex.c **** /**
1336:Drivers/STM32F3xx_HAL_Driver/Src/stm32f3xx_hal_rtc_ex.c ****   * @brief  Configure the Calibration Pinout (RTC_CALIB) Selection (1Hz or 512Hz).
1337:Drivers/STM32F3xx_HAL_Driver/Src/stm32f3xx_hal_rtc_ex.c ****   * @param  hrtc: RTC handle
1338:Drivers/STM32F3xx_HAL_Driver/Src/stm32f3xx_hal_rtc_ex.c ****   * @param  CalibOutput: Select the Calibration output Selection .
1339:Drivers/STM32F3xx_HAL_Driver/Src/stm32f3xx_hal_rtc_ex.c ****   *          This parameter can be one of the following values:
1340:Drivers/STM32F3xx_HAL_Driver/Src/stm32f3xx_hal_rtc_ex.c ****   *             @arg RTC_CALIBOUTPUT_512HZ: A signal has a regular waveform at 512Hz. 
1341:Drivers/STM32F3xx_HAL_Driver/Src/stm32f3xx_hal_rtc_ex.c ****   *             @arg RTC_CALIBOUTPUT_1HZ: A signal has a regular waveform at 1Hz.
1342:Drivers/STM32F3xx_HAL_Driver/Src/stm32f3xx_hal_rtc_ex.c ****   * @retval HAL status
1343:Drivers/STM32F3xx_HAL_Driver/Src/stm32f3xx_hal_rtc_ex.c ****   */
1344:Drivers/STM32F3xx_HAL_Driver/Src/stm32f3xx_hal_rtc_ex.c **** HAL_StatusTypeDef HAL_RTCEx_SetCalibrationOutPut(RTC_HandleTypeDef* hrtc, uint32_t CalibOutput)
1345:Drivers/STM32F3xx_HAL_Driver/Src/stm32f3xx_hal_rtc_ex.c **** {
 1998              		.loc 1 1345 0
 1999              		.cfi_startproc
 2000              		@ args = 0, pretend = 0, frame = 0
 2001              		@ frame_needed = 0, uses_anonymous_args = 0
 2002              		@ link register save eliminated.
 2003              	.LVL164:
1346:Drivers/STM32F3xx_HAL_Driver/Src/stm32f3xx_hal_rtc_ex.c ****   /* Check the parameters */
1347:Drivers/STM32F3xx_HAL_Driver/Src/stm32f3xx_hal_rtc_ex.c ****   assert_param(IS_RTC_CALIB_OUTPUT(CalibOutput));
1348:Drivers/STM32F3xx_HAL_Driver/Src/stm32f3xx_hal_rtc_ex.c **** 
1349:Drivers/STM32F3xx_HAL_Driver/Src/stm32f3xx_hal_rtc_ex.c ****   /* Process Locked */
1350:Drivers/STM32F3xx_HAL_Driver/Src/stm32f3xx_hal_rtc_ex.c ****   __HAL_LOCK(hrtc);
 2004              		.loc 1 1350 0
 2005 0000 037F     		ldrb	r3, [r0, #28]	@ zero_extendqisi2
 2006 0002 012B     		cmp	r3, #1
 2007 0004 22D0     		beq	.L157
1345:Drivers/STM32F3xx_HAL_Driver/Src/stm32f3xx_hal_rtc_ex.c ****   /* Check the parameters */
 2008              		.loc 1 1345 0 discriminator 2
 2009 0006 10B4     		push	{r4}
 2010              	.LCFI22:
 2011              		.cfi_def_cfa_offset 4
 2012              		.cfi_offset 4, -4
 2013              		.loc 1 1350 0 discriminator 2
 2014 0008 0122     		movs	r2, #1
 2015 000a 0277     		strb	r2, [r0, #28]
1351:Drivers/STM32F3xx_HAL_Driver/Src/stm32f3xx_hal_rtc_ex.c **** 
1352:Drivers/STM32F3xx_HAL_Driver/Src/stm32f3xx_hal_rtc_ex.c ****   hrtc->State = HAL_RTC_STATE_BUSY;
ARM GAS  /var/folders/p7/nwmyw04531jbkqkgv59cx10h0000gn/T//cchGdzVf.s 			page 61


 2016              		.loc 1 1352 0 discriminator 2
 2017 000c 0223     		movs	r3, #2
 2018 000e 4377     		strb	r3, [r0, #29]
1353:Drivers/STM32F3xx_HAL_Driver/Src/stm32f3xx_hal_rtc_ex.c **** 
1354:Drivers/STM32F3xx_HAL_Driver/Src/stm32f3xx_hal_rtc_ex.c ****   /* Disable the write protection for RTC registers */
1355:Drivers/STM32F3xx_HAL_Driver/Src/stm32f3xx_hal_rtc_ex.c ****   __HAL_RTC_WRITEPROTECTION_DISABLE(hrtc);
 2019              		.loc 1 1355 0 discriminator 2
 2020 0010 0368     		ldr	r3, [r0]
 2021 0012 CA24     		movs	r4, #202
 2022 0014 5C62     		str	r4, [r3, #36]
 2023 0016 0368     		ldr	r3, [r0]
 2024 0018 5324     		movs	r4, #83
 2025 001a 5C62     		str	r4, [r3, #36]
1356:Drivers/STM32F3xx_HAL_Driver/Src/stm32f3xx_hal_rtc_ex.c **** 
1357:Drivers/STM32F3xx_HAL_Driver/Src/stm32f3xx_hal_rtc_ex.c ****   /* Clear flags before config */
1358:Drivers/STM32F3xx_HAL_Driver/Src/stm32f3xx_hal_rtc_ex.c ****   hrtc->Instance->CR &= (uint32_t)~RTC_CR_COSEL;
 2026              		.loc 1 1358 0 discriminator 2
 2027 001c 0468     		ldr	r4, [r0]
 2028 001e A368     		ldr	r3, [r4, #8]
 2029 0020 23F40023 		bic	r3, r3, #524288
 2030 0024 A360     		str	r3, [r4, #8]
1359:Drivers/STM32F3xx_HAL_Driver/Src/stm32f3xx_hal_rtc_ex.c **** 
1360:Drivers/STM32F3xx_HAL_Driver/Src/stm32f3xx_hal_rtc_ex.c ****   /* Configure the RTC_CR register */
1361:Drivers/STM32F3xx_HAL_Driver/Src/stm32f3xx_hal_rtc_ex.c ****   hrtc->Instance->CR |= (uint32_t)CalibOutput;
 2031              		.loc 1 1361 0 discriminator 2
 2032 0026 0468     		ldr	r4, [r0]
 2033 0028 A368     		ldr	r3, [r4, #8]
 2034 002a 1943     		orrs	r1, r1, r3
 2035              	.LVL165:
 2036 002c A160     		str	r1, [r4, #8]
1362:Drivers/STM32F3xx_HAL_Driver/Src/stm32f3xx_hal_rtc_ex.c **** 
1363:Drivers/STM32F3xx_HAL_Driver/Src/stm32f3xx_hal_rtc_ex.c ****   __HAL_RTC_CALIBRATION_OUTPUT_ENABLE(hrtc);
 2037              		.loc 1 1363 0 discriminator 2
 2038 002e 0168     		ldr	r1, [r0]
 2039 0030 8B68     		ldr	r3, [r1, #8]
 2040 0032 43F40003 		orr	r3, r3, #8388608
 2041 0036 8B60     		str	r3, [r1, #8]
1364:Drivers/STM32F3xx_HAL_Driver/Src/stm32f3xx_hal_rtc_ex.c **** 
1365:Drivers/STM32F3xx_HAL_Driver/Src/stm32f3xx_hal_rtc_ex.c ****   /* Enable the write protection for RTC registers */
1366:Drivers/STM32F3xx_HAL_Driver/Src/stm32f3xx_hal_rtc_ex.c ****   __HAL_RTC_WRITEPROTECTION_ENABLE(hrtc);
 2042              		.loc 1 1366 0 discriminator 2
 2043 0038 0368     		ldr	r3, [r0]
 2044 003a FF21     		movs	r1, #255
 2045 003c 5962     		str	r1, [r3, #36]
1367:Drivers/STM32F3xx_HAL_Driver/Src/stm32f3xx_hal_rtc_ex.c **** 
1368:Drivers/STM32F3xx_HAL_Driver/Src/stm32f3xx_hal_rtc_ex.c ****   /* Change RTC state */
1369:Drivers/STM32F3xx_HAL_Driver/Src/stm32f3xx_hal_rtc_ex.c ****   hrtc->State = HAL_RTC_STATE_READY;
 2046              		.loc 1 1369 0 discriminator 2
 2047 003e 4277     		strb	r2, [r0, #29]
1370:Drivers/STM32F3xx_HAL_Driver/Src/stm32f3xx_hal_rtc_ex.c **** 
1371:Drivers/STM32F3xx_HAL_Driver/Src/stm32f3xx_hal_rtc_ex.c ****   /* Process Unlocked */
1372:Drivers/STM32F3xx_HAL_Driver/Src/stm32f3xx_hal_rtc_ex.c ****   __HAL_UNLOCK(hrtc);
 2048              		.loc 1 1372 0 discriminator 2
 2049 0040 0023     		movs	r3, #0
 2050 0042 0377     		strb	r3, [r0, #28]
1373:Drivers/STM32F3xx_HAL_Driver/Src/stm32f3xx_hal_rtc_ex.c **** 
1374:Drivers/STM32F3xx_HAL_Driver/Src/stm32f3xx_hal_rtc_ex.c ****   return HAL_OK;
ARM GAS  /var/folders/p7/nwmyw04531jbkqkgv59cx10h0000gn/T//cchGdzVf.s 			page 62


 2051              		.loc 1 1374 0 discriminator 2
 2052 0044 1846     		mov	r0, r3
 2053              	.LVL166:
1375:Drivers/STM32F3xx_HAL_Driver/Src/stm32f3xx_hal_rtc_ex.c **** }
 2054              		.loc 1 1375 0 discriminator 2
 2055 0046 5DF8044B 		ldr	r4, [sp], #4
 2056              	.LCFI23:
 2057              		.cfi_restore 4
 2058              		.cfi_def_cfa_offset 0
 2059 004a 7047     		bx	lr
 2060              	.LVL167:
 2061              	.L157:
1350:Drivers/STM32F3xx_HAL_Driver/Src/stm32f3xx_hal_rtc_ex.c **** 
 2062              		.loc 1 1350 0
 2063 004c 0220     		movs	r0, #2
 2064              	.LVL168:
 2065 004e 7047     		bx	lr
 2066              		.cfi_endproc
 2067              	.LFE149:
 2069              		.section	.text.HAL_RTCEx_DeactivateCalibrationOutPut,"ax",%progbits
 2070              		.align	1
 2071              		.global	HAL_RTCEx_DeactivateCalibrationOutPut
 2072              		.syntax unified
 2073              		.thumb
 2074              		.thumb_func
 2075              		.fpu fpv4-sp-d16
 2077              	HAL_RTCEx_DeactivateCalibrationOutPut:
 2078              	.LFB150:
1376:Drivers/STM32F3xx_HAL_Driver/Src/stm32f3xx_hal_rtc_ex.c **** 
1377:Drivers/STM32F3xx_HAL_Driver/Src/stm32f3xx_hal_rtc_ex.c **** /**
1378:Drivers/STM32F3xx_HAL_Driver/Src/stm32f3xx_hal_rtc_ex.c ****   * @brief  Deactivate the Calibration Pinout (RTC_CALIB) Selection (1Hz or 512Hz).
1379:Drivers/STM32F3xx_HAL_Driver/Src/stm32f3xx_hal_rtc_ex.c ****   * @param  hrtc: RTC handle
1380:Drivers/STM32F3xx_HAL_Driver/Src/stm32f3xx_hal_rtc_ex.c ****   * @retval HAL status
1381:Drivers/STM32F3xx_HAL_Driver/Src/stm32f3xx_hal_rtc_ex.c ****   */
1382:Drivers/STM32F3xx_HAL_Driver/Src/stm32f3xx_hal_rtc_ex.c **** HAL_StatusTypeDef HAL_RTCEx_DeactivateCalibrationOutPut(RTC_HandleTypeDef* hrtc)
1383:Drivers/STM32F3xx_HAL_Driver/Src/stm32f3xx_hal_rtc_ex.c **** {
 2079              		.loc 1 1383 0
 2080              		.cfi_startproc
 2081              		@ args = 0, pretend = 0, frame = 0
 2082              		@ frame_needed = 0, uses_anonymous_args = 0
 2083              		@ link register save eliminated.
 2084              	.LVL169:
1384:Drivers/STM32F3xx_HAL_Driver/Src/stm32f3xx_hal_rtc_ex.c ****   /* Process Locked */
1385:Drivers/STM32F3xx_HAL_Driver/Src/stm32f3xx_hal_rtc_ex.c ****   __HAL_LOCK(hrtc);
 2085              		.loc 1 1385 0
 2086 0000 037F     		ldrb	r3, [r0, #28]	@ zero_extendqisi2
 2087 0002 012B     		cmp	r3, #1
 2088 0004 16D0     		beq	.L164
 2089              		.loc 1 1385 0 is_stmt 0 discriminator 2
 2090 0006 0122     		movs	r2, #1
 2091 0008 0277     		strb	r2, [r0, #28]
1386:Drivers/STM32F3xx_HAL_Driver/Src/stm32f3xx_hal_rtc_ex.c **** 
1387:Drivers/STM32F3xx_HAL_Driver/Src/stm32f3xx_hal_rtc_ex.c ****   hrtc->State = HAL_RTC_STATE_BUSY;
 2092              		.loc 1 1387 0 is_stmt 1 discriminator 2
 2093 000a 0223     		movs	r3, #2
 2094 000c 4377     		strb	r3, [r0, #29]
1388:Drivers/STM32F3xx_HAL_Driver/Src/stm32f3xx_hal_rtc_ex.c **** 
ARM GAS  /var/folders/p7/nwmyw04531jbkqkgv59cx10h0000gn/T//cchGdzVf.s 			page 63


1389:Drivers/STM32F3xx_HAL_Driver/Src/stm32f3xx_hal_rtc_ex.c ****   /* Disable the write protection for RTC registers */
1390:Drivers/STM32F3xx_HAL_Driver/Src/stm32f3xx_hal_rtc_ex.c ****   __HAL_RTC_WRITEPROTECTION_DISABLE(hrtc);
 2095              		.loc 1 1390 0 discriminator 2
 2096 000e 0368     		ldr	r3, [r0]
 2097 0010 CA21     		movs	r1, #202
 2098 0012 5962     		str	r1, [r3, #36]
 2099 0014 0368     		ldr	r3, [r0]
 2100 0016 5321     		movs	r1, #83
 2101 0018 5962     		str	r1, [r3, #36]
1391:Drivers/STM32F3xx_HAL_Driver/Src/stm32f3xx_hal_rtc_ex.c **** 
1392:Drivers/STM32F3xx_HAL_Driver/Src/stm32f3xx_hal_rtc_ex.c ****   __HAL_RTC_CALIBRATION_OUTPUT_DISABLE(hrtc);
 2102              		.loc 1 1392 0 discriminator 2
 2103 001a 0168     		ldr	r1, [r0]
 2104 001c 8B68     		ldr	r3, [r1, #8]
 2105 001e 23F40003 		bic	r3, r3, #8388608
 2106 0022 8B60     		str	r3, [r1, #8]
1393:Drivers/STM32F3xx_HAL_Driver/Src/stm32f3xx_hal_rtc_ex.c **** 
1394:Drivers/STM32F3xx_HAL_Driver/Src/stm32f3xx_hal_rtc_ex.c ****   /* Enable the write protection for RTC registers */
1395:Drivers/STM32F3xx_HAL_Driver/Src/stm32f3xx_hal_rtc_ex.c ****   __HAL_RTC_WRITEPROTECTION_ENABLE(hrtc);
 2107              		.loc 1 1395 0 discriminator 2
 2108 0024 0368     		ldr	r3, [r0]
 2109 0026 FF21     		movs	r1, #255
 2110 0028 5962     		str	r1, [r3, #36]
1396:Drivers/STM32F3xx_HAL_Driver/Src/stm32f3xx_hal_rtc_ex.c **** 
1397:Drivers/STM32F3xx_HAL_Driver/Src/stm32f3xx_hal_rtc_ex.c ****   /* Change RTC state */
1398:Drivers/STM32F3xx_HAL_Driver/Src/stm32f3xx_hal_rtc_ex.c ****   hrtc->State = HAL_RTC_STATE_READY;
 2111              		.loc 1 1398 0 discriminator 2
 2112 002a 4277     		strb	r2, [r0, #29]
1399:Drivers/STM32F3xx_HAL_Driver/Src/stm32f3xx_hal_rtc_ex.c **** 
1400:Drivers/STM32F3xx_HAL_Driver/Src/stm32f3xx_hal_rtc_ex.c ****   /* Process Unlocked */
1401:Drivers/STM32F3xx_HAL_Driver/Src/stm32f3xx_hal_rtc_ex.c ****   __HAL_UNLOCK(hrtc);
 2113              		.loc 1 1401 0 discriminator 2
 2114 002c 0023     		movs	r3, #0
 2115 002e 0377     		strb	r3, [r0, #28]
1402:Drivers/STM32F3xx_HAL_Driver/Src/stm32f3xx_hal_rtc_ex.c **** 
1403:Drivers/STM32F3xx_HAL_Driver/Src/stm32f3xx_hal_rtc_ex.c ****   return HAL_OK;
 2116              		.loc 1 1403 0 discriminator 2
 2117 0030 1846     		mov	r0, r3
 2118              	.LVL170:
 2119 0032 7047     		bx	lr
 2120              	.LVL171:
 2121              	.L164:
1385:Drivers/STM32F3xx_HAL_Driver/Src/stm32f3xx_hal_rtc_ex.c **** 
 2122              		.loc 1 1385 0
 2123 0034 0220     		movs	r0, #2
 2124              	.LVL172:
1404:Drivers/STM32F3xx_HAL_Driver/Src/stm32f3xx_hal_rtc_ex.c **** }
 2125              		.loc 1 1404 0
 2126 0036 7047     		bx	lr
 2127              		.cfi_endproc
 2128              	.LFE150:
 2130              		.section	.text.HAL_RTCEx_SetRefClock,"ax",%progbits
 2131              		.align	1
 2132              		.global	HAL_RTCEx_SetRefClock
 2133              		.syntax unified
 2134              		.thumb
 2135              		.thumb_func
ARM GAS  /var/folders/p7/nwmyw04531jbkqkgv59cx10h0000gn/T//cchGdzVf.s 			page 64


 2136              		.fpu fpv4-sp-d16
 2138              	HAL_RTCEx_SetRefClock:
 2139              	.LFB151:
1405:Drivers/STM32F3xx_HAL_Driver/Src/stm32f3xx_hal_rtc_ex.c **** 
1406:Drivers/STM32F3xx_HAL_Driver/Src/stm32f3xx_hal_rtc_ex.c **** /**
1407:Drivers/STM32F3xx_HAL_Driver/Src/stm32f3xx_hal_rtc_ex.c ****   * @brief  Enable the RTC reference clock detection.
1408:Drivers/STM32F3xx_HAL_Driver/Src/stm32f3xx_hal_rtc_ex.c ****   * @param  hrtc: RTC handle
1409:Drivers/STM32F3xx_HAL_Driver/Src/stm32f3xx_hal_rtc_ex.c ****   * @retval HAL status
1410:Drivers/STM32F3xx_HAL_Driver/Src/stm32f3xx_hal_rtc_ex.c ****   */
1411:Drivers/STM32F3xx_HAL_Driver/Src/stm32f3xx_hal_rtc_ex.c **** HAL_StatusTypeDef HAL_RTCEx_SetRefClock(RTC_HandleTypeDef* hrtc)
1412:Drivers/STM32F3xx_HAL_Driver/Src/stm32f3xx_hal_rtc_ex.c **** {
 2140              		.loc 1 1412 0
 2141              		.cfi_startproc
 2142              		@ args = 0, pretend = 0, frame = 0
 2143              		@ frame_needed = 0, uses_anonymous_args = 0
 2144              	.LVL173:
1413:Drivers/STM32F3xx_HAL_Driver/Src/stm32f3xx_hal_rtc_ex.c ****   /* Process Locked */
1414:Drivers/STM32F3xx_HAL_Driver/Src/stm32f3xx_hal_rtc_ex.c ****   __HAL_LOCK(hrtc);
 2145              		.loc 1 1414 0
 2146 0000 037F     		ldrb	r3, [r0, #28]	@ zero_extendqisi2
 2147 0002 012B     		cmp	r3, #1
 2148 0004 02D1     		bne	.L173
 2149 0006 0223     		movs	r3, #2
1415:Drivers/STM32F3xx_HAL_Driver/Src/stm32f3xx_hal_rtc_ex.c **** 
1416:Drivers/STM32F3xx_HAL_Driver/Src/stm32f3xx_hal_rtc_ex.c ****   hrtc->State = HAL_RTC_STATE_BUSY;
1417:Drivers/STM32F3xx_HAL_Driver/Src/stm32f3xx_hal_rtc_ex.c **** 
1418:Drivers/STM32F3xx_HAL_Driver/Src/stm32f3xx_hal_rtc_ex.c ****   /* Disable the write protection for RTC registers */
1419:Drivers/STM32F3xx_HAL_Driver/Src/stm32f3xx_hal_rtc_ex.c ****   __HAL_RTC_WRITEPROTECTION_DISABLE(hrtc);
1420:Drivers/STM32F3xx_HAL_Driver/Src/stm32f3xx_hal_rtc_ex.c **** 
1421:Drivers/STM32F3xx_HAL_Driver/Src/stm32f3xx_hal_rtc_ex.c ****   /* Set Initialization mode */
1422:Drivers/STM32F3xx_HAL_Driver/Src/stm32f3xx_hal_rtc_ex.c ****   if(RTC_EnterInitMode(hrtc) != HAL_OK)
1423:Drivers/STM32F3xx_HAL_Driver/Src/stm32f3xx_hal_rtc_ex.c ****   {
1424:Drivers/STM32F3xx_HAL_Driver/Src/stm32f3xx_hal_rtc_ex.c ****     /* Enable the write protection for RTC registers */
1425:Drivers/STM32F3xx_HAL_Driver/Src/stm32f3xx_hal_rtc_ex.c ****     __HAL_RTC_WRITEPROTECTION_ENABLE(hrtc);
1426:Drivers/STM32F3xx_HAL_Driver/Src/stm32f3xx_hal_rtc_ex.c **** 
1427:Drivers/STM32F3xx_HAL_Driver/Src/stm32f3xx_hal_rtc_ex.c ****     /* Set RTC state*/
1428:Drivers/STM32F3xx_HAL_Driver/Src/stm32f3xx_hal_rtc_ex.c ****     hrtc->State = HAL_RTC_STATE_ERROR;
1429:Drivers/STM32F3xx_HAL_Driver/Src/stm32f3xx_hal_rtc_ex.c **** 
1430:Drivers/STM32F3xx_HAL_Driver/Src/stm32f3xx_hal_rtc_ex.c ****     /* Process Unlocked */
1431:Drivers/STM32F3xx_HAL_Driver/Src/stm32f3xx_hal_rtc_ex.c ****     __HAL_UNLOCK(hrtc);
1432:Drivers/STM32F3xx_HAL_Driver/Src/stm32f3xx_hal_rtc_ex.c **** 
1433:Drivers/STM32F3xx_HAL_Driver/Src/stm32f3xx_hal_rtc_ex.c ****     return HAL_ERROR;
1434:Drivers/STM32F3xx_HAL_Driver/Src/stm32f3xx_hal_rtc_ex.c ****   }
1435:Drivers/STM32F3xx_HAL_Driver/Src/stm32f3xx_hal_rtc_ex.c ****   else
1436:Drivers/STM32F3xx_HAL_Driver/Src/stm32f3xx_hal_rtc_ex.c ****   {
1437:Drivers/STM32F3xx_HAL_Driver/Src/stm32f3xx_hal_rtc_ex.c ****     __HAL_RTC_CLOCKREF_DETECTION_ENABLE(hrtc);
1438:Drivers/STM32F3xx_HAL_Driver/Src/stm32f3xx_hal_rtc_ex.c **** 
1439:Drivers/STM32F3xx_HAL_Driver/Src/stm32f3xx_hal_rtc_ex.c ****     /* Exit Initialization mode */
1440:Drivers/STM32F3xx_HAL_Driver/Src/stm32f3xx_hal_rtc_ex.c ****     hrtc->Instance->ISR &= (uint32_t)~RTC_ISR_INIT;
1441:Drivers/STM32F3xx_HAL_Driver/Src/stm32f3xx_hal_rtc_ex.c ****   }
1442:Drivers/STM32F3xx_HAL_Driver/Src/stm32f3xx_hal_rtc_ex.c **** 
1443:Drivers/STM32F3xx_HAL_Driver/Src/stm32f3xx_hal_rtc_ex.c ****   /* Enable the write protection for RTC registers */
1444:Drivers/STM32F3xx_HAL_Driver/Src/stm32f3xx_hal_rtc_ex.c ****   __HAL_RTC_WRITEPROTECTION_ENABLE(hrtc);
1445:Drivers/STM32F3xx_HAL_Driver/Src/stm32f3xx_hal_rtc_ex.c **** 
1446:Drivers/STM32F3xx_HAL_Driver/Src/stm32f3xx_hal_rtc_ex.c ****    /* Change RTC state */
1447:Drivers/STM32F3xx_HAL_Driver/Src/stm32f3xx_hal_rtc_ex.c ****   hrtc->State = HAL_RTC_STATE_READY;
1448:Drivers/STM32F3xx_HAL_Driver/Src/stm32f3xx_hal_rtc_ex.c **** 
ARM GAS  /var/folders/p7/nwmyw04531jbkqkgv59cx10h0000gn/T//cchGdzVf.s 			page 65


1449:Drivers/STM32F3xx_HAL_Driver/Src/stm32f3xx_hal_rtc_ex.c ****   /* Process Unlocked */
1450:Drivers/STM32F3xx_HAL_Driver/Src/stm32f3xx_hal_rtc_ex.c ****   __HAL_UNLOCK(hrtc);
1451:Drivers/STM32F3xx_HAL_Driver/Src/stm32f3xx_hal_rtc_ex.c **** 
1452:Drivers/STM32F3xx_HAL_Driver/Src/stm32f3xx_hal_rtc_ex.c ****   return HAL_OK;
1453:Drivers/STM32F3xx_HAL_Driver/Src/stm32f3xx_hal_rtc_ex.c **** }
 2150              		.loc 1 1453 0
 2151 0008 1846     		mov	r0, r3
 2152              	.LVL174:
 2153 000a 7047     		bx	lr
 2154              	.LVL175:
 2155              	.L173:
1412:Drivers/STM32F3xx_HAL_Driver/Src/stm32f3xx_hal_rtc_ex.c ****   /* Process Locked */
 2156              		.loc 1 1412 0 discriminator 2
 2157 000c 10B5     		push	{r4, lr}
 2158              	.LCFI24:
 2159              		.cfi_def_cfa_offset 8
 2160              		.cfi_offset 4, -8
 2161              		.cfi_offset 14, -4
 2162 000e 0446     		mov	r4, r0
1414:Drivers/STM32F3xx_HAL_Driver/Src/stm32f3xx_hal_rtc_ex.c **** 
 2163              		.loc 1 1414 0 discriminator 2
 2164 0010 0123     		movs	r3, #1
 2165 0012 0377     		strb	r3, [r0, #28]
1416:Drivers/STM32F3xx_HAL_Driver/Src/stm32f3xx_hal_rtc_ex.c **** 
 2166              		.loc 1 1416 0 discriminator 2
 2167 0014 0223     		movs	r3, #2
 2168 0016 4377     		strb	r3, [r0, #29]
1419:Drivers/STM32F3xx_HAL_Driver/Src/stm32f3xx_hal_rtc_ex.c **** 
 2169              		.loc 1 1419 0 discriminator 2
 2170 0018 0368     		ldr	r3, [r0]
 2171 001a CA22     		movs	r2, #202
 2172 001c 5A62     		str	r2, [r3, #36]
 2173 001e 0368     		ldr	r3, [r0]
 2174 0020 5322     		movs	r2, #83
 2175 0022 5A62     		str	r2, [r3, #36]
1422:Drivers/STM32F3xx_HAL_Driver/Src/stm32f3xx_hal_rtc_ex.c ****   {
 2176              		.loc 1 1422 0 discriminator 2
 2177 0024 FFF7FEFF 		bl	RTC_EnterInitMode
 2178              	.LVL176:
 2179 0028 0346     		mov	r3, r0
 2180 002a 90B9     		cbnz	r0, .L174
1437:Drivers/STM32F3xx_HAL_Driver/Src/stm32f3xx_hal_rtc_ex.c **** 
 2181              		.loc 1 1437 0
 2182 002c 2168     		ldr	r1, [r4]
 2183 002e 8A68     		ldr	r2, [r1, #8]
 2184 0030 42F01002 		orr	r2, r2, #16
 2185 0034 8A60     		str	r2, [r1, #8]
1440:Drivers/STM32F3xx_HAL_Driver/Src/stm32f3xx_hal_rtc_ex.c ****   }
 2186              		.loc 1 1440 0
 2187 0036 2168     		ldr	r1, [r4]
 2188 0038 CA68     		ldr	r2, [r1, #12]
 2189 003a 22F08002 		bic	r2, r2, #128
 2190 003e CA60     		str	r2, [r1, #12]
1444:Drivers/STM32F3xx_HAL_Driver/Src/stm32f3xx_hal_rtc_ex.c **** 
 2191              		.loc 1 1444 0
 2192 0040 2268     		ldr	r2, [r4]
 2193 0042 FF21     		movs	r1, #255
ARM GAS  /var/folders/p7/nwmyw04531jbkqkgv59cx10h0000gn/T//cchGdzVf.s 			page 66


 2194 0044 5162     		str	r1, [r2, #36]
1447:Drivers/STM32F3xx_HAL_Driver/Src/stm32f3xx_hal_rtc_ex.c **** 
 2195              		.loc 1 1447 0
 2196 0046 0122     		movs	r2, #1
 2197 0048 6277     		strb	r2, [r4, #29]
1450:Drivers/STM32F3xx_HAL_Driver/Src/stm32f3xx_hal_rtc_ex.c **** 
 2198              		.loc 1 1450 0
 2199 004a 0022     		movs	r2, #0
 2200 004c 2277     		strb	r2, [r4, #28]
 2201              	.L166:
 2202              		.loc 1 1453 0
 2203 004e 1846     		mov	r0, r3
 2204 0050 10BD     		pop	{r4, pc}
 2205              	.LVL177:
 2206              	.L174:
1425:Drivers/STM32F3xx_HAL_Driver/Src/stm32f3xx_hal_rtc_ex.c **** 
 2207              		.loc 1 1425 0
 2208 0052 2368     		ldr	r3, [r4]
 2209 0054 FF22     		movs	r2, #255
 2210 0056 5A62     		str	r2, [r3, #36]
1428:Drivers/STM32F3xx_HAL_Driver/Src/stm32f3xx_hal_rtc_ex.c **** 
 2211              		.loc 1 1428 0
 2212 0058 0423     		movs	r3, #4
 2213 005a 6377     		strb	r3, [r4, #29]
1431:Drivers/STM32F3xx_HAL_Driver/Src/stm32f3xx_hal_rtc_ex.c **** 
 2214              		.loc 1 1431 0
 2215 005c 0023     		movs	r3, #0
 2216 005e 2377     		strb	r3, [r4, #28]
1433:Drivers/STM32F3xx_HAL_Driver/Src/stm32f3xx_hal_rtc_ex.c ****   }
 2217              		.loc 1 1433 0
 2218 0060 0123     		movs	r3, #1
 2219 0062 F4E7     		b	.L166
 2220              		.cfi_endproc
 2221              	.LFE151:
 2223              		.section	.text.HAL_RTCEx_DeactivateRefClock,"ax",%progbits
 2224              		.align	1
 2225              		.global	HAL_RTCEx_DeactivateRefClock
 2226              		.syntax unified
 2227              		.thumb
 2228              		.thumb_func
 2229              		.fpu fpv4-sp-d16
 2231              	HAL_RTCEx_DeactivateRefClock:
 2232              	.LFB152:
1454:Drivers/STM32F3xx_HAL_Driver/Src/stm32f3xx_hal_rtc_ex.c **** 
1455:Drivers/STM32F3xx_HAL_Driver/Src/stm32f3xx_hal_rtc_ex.c **** /**
1456:Drivers/STM32F3xx_HAL_Driver/Src/stm32f3xx_hal_rtc_ex.c ****   * @brief  Disable the RTC reference clock detection.
1457:Drivers/STM32F3xx_HAL_Driver/Src/stm32f3xx_hal_rtc_ex.c ****   * @param  hrtc: RTC handle
1458:Drivers/STM32F3xx_HAL_Driver/Src/stm32f3xx_hal_rtc_ex.c ****   * @retval HAL status
1459:Drivers/STM32F3xx_HAL_Driver/Src/stm32f3xx_hal_rtc_ex.c ****   */
1460:Drivers/STM32F3xx_HAL_Driver/Src/stm32f3xx_hal_rtc_ex.c **** HAL_StatusTypeDef HAL_RTCEx_DeactivateRefClock(RTC_HandleTypeDef* hrtc)
1461:Drivers/STM32F3xx_HAL_Driver/Src/stm32f3xx_hal_rtc_ex.c **** {
 2233              		.loc 1 1461 0
 2234              		.cfi_startproc
 2235              		@ args = 0, pretend = 0, frame = 0
 2236              		@ frame_needed = 0, uses_anonymous_args = 0
 2237              	.LVL178:
1462:Drivers/STM32F3xx_HAL_Driver/Src/stm32f3xx_hal_rtc_ex.c ****   /* Process Locked */
ARM GAS  /var/folders/p7/nwmyw04531jbkqkgv59cx10h0000gn/T//cchGdzVf.s 			page 67


1463:Drivers/STM32F3xx_HAL_Driver/Src/stm32f3xx_hal_rtc_ex.c ****   __HAL_LOCK(hrtc);
 2238              		.loc 1 1463 0
 2239 0000 037F     		ldrb	r3, [r0, #28]	@ zero_extendqisi2
 2240 0002 012B     		cmp	r3, #1
 2241 0004 02D1     		bne	.L183
 2242 0006 0223     		movs	r3, #2
1464:Drivers/STM32F3xx_HAL_Driver/Src/stm32f3xx_hal_rtc_ex.c **** 
1465:Drivers/STM32F3xx_HAL_Driver/Src/stm32f3xx_hal_rtc_ex.c ****   hrtc->State = HAL_RTC_STATE_BUSY;
1466:Drivers/STM32F3xx_HAL_Driver/Src/stm32f3xx_hal_rtc_ex.c **** 
1467:Drivers/STM32F3xx_HAL_Driver/Src/stm32f3xx_hal_rtc_ex.c ****   /* Disable the write protection for RTC registers */
1468:Drivers/STM32F3xx_HAL_Driver/Src/stm32f3xx_hal_rtc_ex.c ****   __HAL_RTC_WRITEPROTECTION_DISABLE(hrtc);
1469:Drivers/STM32F3xx_HAL_Driver/Src/stm32f3xx_hal_rtc_ex.c **** 
1470:Drivers/STM32F3xx_HAL_Driver/Src/stm32f3xx_hal_rtc_ex.c ****   /* Set Initialization mode */
1471:Drivers/STM32F3xx_HAL_Driver/Src/stm32f3xx_hal_rtc_ex.c ****   if(RTC_EnterInitMode(hrtc) != HAL_OK)
1472:Drivers/STM32F3xx_HAL_Driver/Src/stm32f3xx_hal_rtc_ex.c ****   {
1473:Drivers/STM32F3xx_HAL_Driver/Src/stm32f3xx_hal_rtc_ex.c ****     /* Enable the write protection for RTC registers */
1474:Drivers/STM32F3xx_HAL_Driver/Src/stm32f3xx_hal_rtc_ex.c ****     __HAL_RTC_WRITEPROTECTION_ENABLE(hrtc);
1475:Drivers/STM32F3xx_HAL_Driver/Src/stm32f3xx_hal_rtc_ex.c **** 
1476:Drivers/STM32F3xx_HAL_Driver/Src/stm32f3xx_hal_rtc_ex.c ****     /* Set RTC state*/
1477:Drivers/STM32F3xx_HAL_Driver/Src/stm32f3xx_hal_rtc_ex.c ****     hrtc->State = HAL_RTC_STATE_ERROR;
1478:Drivers/STM32F3xx_HAL_Driver/Src/stm32f3xx_hal_rtc_ex.c **** 
1479:Drivers/STM32F3xx_HAL_Driver/Src/stm32f3xx_hal_rtc_ex.c ****     /* Process Unlocked */
1480:Drivers/STM32F3xx_HAL_Driver/Src/stm32f3xx_hal_rtc_ex.c ****     __HAL_UNLOCK(hrtc);
1481:Drivers/STM32F3xx_HAL_Driver/Src/stm32f3xx_hal_rtc_ex.c **** 
1482:Drivers/STM32F3xx_HAL_Driver/Src/stm32f3xx_hal_rtc_ex.c ****     return HAL_ERROR;
1483:Drivers/STM32F3xx_HAL_Driver/Src/stm32f3xx_hal_rtc_ex.c ****   }
1484:Drivers/STM32F3xx_HAL_Driver/Src/stm32f3xx_hal_rtc_ex.c ****   else
1485:Drivers/STM32F3xx_HAL_Driver/Src/stm32f3xx_hal_rtc_ex.c ****   {
1486:Drivers/STM32F3xx_HAL_Driver/Src/stm32f3xx_hal_rtc_ex.c ****     __HAL_RTC_CLOCKREF_DETECTION_DISABLE(hrtc);
1487:Drivers/STM32F3xx_HAL_Driver/Src/stm32f3xx_hal_rtc_ex.c **** 
1488:Drivers/STM32F3xx_HAL_Driver/Src/stm32f3xx_hal_rtc_ex.c ****     /* Exit Initialization mode */
1489:Drivers/STM32F3xx_HAL_Driver/Src/stm32f3xx_hal_rtc_ex.c ****     hrtc->Instance->ISR &= (uint32_t)~RTC_ISR_INIT;
1490:Drivers/STM32F3xx_HAL_Driver/Src/stm32f3xx_hal_rtc_ex.c ****   }
1491:Drivers/STM32F3xx_HAL_Driver/Src/stm32f3xx_hal_rtc_ex.c **** 
1492:Drivers/STM32F3xx_HAL_Driver/Src/stm32f3xx_hal_rtc_ex.c ****   /* Enable the write protection for RTC registers */
1493:Drivers/STM32F3xx_HAL_Driver/Src/stm32f3xx_hal_rtc_ex.c ****   __HAL_RTC_WRITEPROTECTION_ENABLE(hrtc);
1494:Drivers/STM32F3xx_HAL_Driver/Src/stm32f3xx_hal_rtc_ex.c **** 
1495:Drivers/STM32F3xx_HAL_Driver/Src/stm32f3xx_hal_rtc_ex.c ****   /* Change RTC state */
1496:Drivers/STM32F3xx_HAL_Driver/Src/stm32f3xx_hal_rtc_ex.c ****   hrtc->State = HAL_RTC_STATE_READY;
1497:Drivers/STM32F3xx_HAL_Driver/Src/stm32f3xx_hal_rtc_ex.c **** 
1498:Drivers/STM32F3xx_HAL_Driver/Src/stm32f3xx_hal_rtc_ex.c ****   /* Process Unlocked */
1499:Drivers/STM32F3xx_HAL_Driver/Src/stm32f3xx_hal_rtc_ex.c ****   __HAL_UNLOCK(hrtc);
1500:Drivers/STM32F3xx_HAL_Driver/Src/stm32f3xx_hal_rtc_ex.c **** 
1501:Drivers/STM32F3xx_HAL_Driver/Src/stm32f3xx_hal_rtc_ex.c ****   return HAL_OK;
1502:Drivers/STM32F3xx_HAL_Driver/Src/stm32f3xx_hal_rtc_ex.c **** }
 2243              		.loc 1 1502 0
 2244 0008 1846     		mov	r0, r3
 2245              	.LVL179:
 2246 000a 7047     		bx	lr
 2247              	.LVL180:
 2248              	.L183:
1461:Drivers/STM32F3xx_HAL_Driver/Src/stm32f3xx_hal_rtc_ex.c ****   /* Process Locked */
 2249              		.loc 1 1461 0 discriminator 2
 2250 000c 10B5     		push	{r4, lr}
 2251              	.LCFI25:
 2252              		.cfi_def_cfa_offset 8
 2253              		.cfi_offset 4, -8
ARM GAS  /var/folders/p7/nwmyw04531jbkqkgv59cx10h0000gn/T//cchGdzVf.s 			page 68


 2254              		.cfi_offset 14, -4
 2255 000e 0446     		mov	r4, r0
1463:Drivers/STM32F3xx_HAL_Driver/Src/stm32f3xx_hal_rtc_ex.c **** 
 2256              		.loc 1 1463 0 discriminator 2
 2257 0010 0123     		movs	r3, #1
 2258 0012 0377     		strb	r3, [r0, #28]
1465:Drivers/STM32F3xx_HAL_Driver/Src/stm32f3xx_hal_rtc_ex.c **** 
 2259              		.loc 1 1465 0 discriminator 2
 2260 0014 0223     		movs	r3, #2
 2261 0016 4377     		strb	r3, [r0, #29]
1468:Drivers/STM32F3xx_HAL_Driver/Src/stm32f3xx_hal_rtc_ex.c **** 
 2262              		.loc 1 1468 0 discriminator 2
 2263 0018 0368     		ldr	r3, [r0]
 2264 001a CA22     		movs	r2, #202
 2265 001c 5A62     		str	r2, [r3, #36]
 2266 001e 0368     		ldr	r3, [r0]
 2267 0020 5322     		movs	r2, #83
 2268 0022 5A62     		str	r2, [r3, #36]
1471:Drivers/STM32F3xx_HAL_Driver/Src/stm32f3xx_hal_rtc_ex.c ****   {
 2269              		.loc 1 1471 0 discriminator 2
 2270 0024 FFF7FEFF 		bl	RTC_EnterInitMode
 2271              	.LVL181:
 2272 0028 0346     		mov	r3, r0
 2273 002a 90B9     		cbnz	r0, .L184
1486:Drivers/STM32F3xx_HAL_Driver/Src/stm32f3xx_hal_rtc_ex.c **** 
 2274              		.loc 1 1486 0
 2275 002c 2168     		ldr	r1, [r4]
 2276 002e 8A68     		ldr	r2, [r1, #8]
 2277 0030 22F01002 		bic	r2, r2, #16
 2278 0034 8A60     		str	r2, [r1, #8]
1489:Drivers/STM32F3xx_HAL_Driver/Src/stm32f3xx_hal_rtc_ex.c ****   }
 2279              		.loc 1 1489 0
 2280 0036 2168     		ldr	r1, [r4]
 2281 0038 CA68     		ldr	r2, [r1, #12]
 2282 003a 22F08002 		bic	r2, r2, #128
 2283 003e CA60     		str	r2, [r1, #12]
1493:Drivers/STM32F3xx_HAL_Driver/Src/stm32f3xx_hal_rtc_ex.c **** 
 2284              		.loc 1 1493 0
 2285 0040 2268     		ldr	r2, [r4]
 2286 0042 FF21     		movs	r1, #255
 2287 0044 5162     		str	r1, [r2, #36]
1496:Drivers/STM32F3xx_HAL_Driver/Src/stm32f3xx_hal_rtc_ex.c **** 
 2288              		.loc 1 1496 0
 2289 0046 0122     		movs	r2, #1
 2290 0048 6277     		strb	r2, [r4, #29]
1499:Drivers/STM32F3xx_HAL_Driver/Src/stm32f3xx_hal_rtc_ex.c **** 
 2291              		.loc 1 1499 0
 2292 004a 0022     		movs	r2, #0
 2293 004c 2277     		strb	r2, [r4, #28]
 2294              	.L176:
 2295              		.loc 1 1502 0
 2296 004e 1846     		mov	r0, r3
 2297 0050 10BD     		pop	{r4, pc}
 2298              	.LVL182:
 2299              	.L184:
1474:Drivers/STM32F3xx_HAL_Driver/Src/stm32f3xx_hal_rtc_ex.c **** 
 2300              		.loc 1 1474 0
ARM GAS  /var/folders/p7/nwmyw04531jbkqkgv59cx10h0000gn/T//cchGdzVf.s 			page 69


 2301 0052 2368     		ldr	r3, [r4]
 2302 0054 FF22     		movs	r2, #255
 2303 0056 5A62     		str	r2, [r3, #36]
1477:Drivers/STM32F3xx_HAL_Driver/Src/stm32f3xx_hal_rtc_ex.c **** 
 2304              		.loc 1 1477 0
 2305 0058 0423     		movs	r3, #4
 2306 005a 6377     		strb	r3, [r4, #29]
1480:Drivers/STM32F3xx_HAL_Driver/Src/stm32f3xx_hal_rtc_ex.c **** 
 2307              		.loc 1 1480 0
 2308 005c 0023     		movs	r3, #0
 2309 005e 2377     		strb	r3, [r4, #28]
1482:Drivers/STM32F3xx_HAL_Driver/Src/stm32f3xx_hal_rtc_ex.c ****   }
 2310              		.loc 1 1482 0
 2311 0060 0123     		movs	r3, #1
 2312 0062 F4E7     		b	.L176
 2313              		.cfi_endproc
 2314              	.LFE152:
 2316              		.section	.text.HAL_RTCEx_EnableBypassShadow,"ax",%progbits
 2317              		.align	1
 2318              		.global	HAL_RTCEx_EnableBypassShadow
 2319              		.syntax unified
 2320              		.thumb
 2321              		.thumb_func
 2322              		.fpu fpv4-sp-d16
 2324              	HAL_RTCEx_EnableBypassShadow:
 2325              	.LFB153:
1503:Drivers/STM32F3xx_HAL_Driver/Src/stm32f3xx_hal_rtc_ex.c **** 
1504:Drivers/STM32F3xx_HAL_Driver/Src/stm32f3xx_hal_rtc_ex.c **** /**
1505:Drivers/STM32F3xx_HAL_Driver/Src/stm32f3xx_hal_rtc_ex.c ****   * @brief  Enable the Bypass Shadow feature.
1506:Drivers/STM32F3xx_HAL_Driver/Src/stm32f3xx_hal_rtc_ex.c ****   * @param  hrtc: RTC handle
1507:Drivers/STM32F3xx_HAL_Driver/Src/stm32f3xx_hal_rtc_ex.c ****   * @note   When the Bypass Shadow is enabled the calendar value are taken 
1508:Drivers/STM32F3xx_HAL_Driver/Src/stm32f3xx_hal_rtc_ex.c ****   *         directly from the Calendar counter.
1509:Drivers/STM32F3xx_HAL_Driver/Src/stm32f3xx_hal_rtc_ex.c ****   * @retval HAL status
1510:Drivers/STM32F3xx_HAL_Driver/Src/stm32f3xx_hal_rtc_ex.c ****   */
1511:Drivers/STM32F3xx_HAL_Driver/Src/stm32f3xx_hal_rtc_ex.c **** HAL_StatusTypeDef HAL_RTCEx_EnableBypassShadow(RTC_HandleTypeDef* hrtc)
1512:Drivers/STM32F3xx_HAL_Driver/Src/stm32f3xx_hal_rtc_ex.c **** {
 2326              		.loc 1 1512 0
 2327              		.cfi_startproc
 2328              		@ args = 0, pretend = 0, frame = 0
 2329              		@ frame_needed = 0, uses_anonymous_args = 0
 2330              		@ link register save eliminated.
 2331              	.LVL183:
1513:Drivers/STM32F3xx_HAL_Driver/Src/stm32f3xx_hal_rtc_ex.c ****   /* Process Locked */
1514:Drivers/STM32F3xx_HAL_Driver/Src/stm32f3xx_hal_rtc_ex.c ****   __HAL_LOCK(hrtc);
 2332              		.loc 1 1514 0
 2333 0000 037F     		ldrb	r3, [r0, #28]	@ zero_extendqisi2
 2334 0002 012B     		cmp	r3, #1
 2335 0004 16D0     		beq	.L187
 2336              		.loc 1 1514 0 is_stmt 0 discriminator 2
 2337 0006 0122     		movs	r2, #1
 2338 0008 0277     		strb	r2, [r0, #28]
1515:Drivers/STM32F3xx_HAL_Driver/Src/stm32f3xx_hal_rtc_ex.c **** 
1516:Drivers/STM32F3xx_HAL_Driver/Src/stm32f3xx_hal_rtc_ex.c ****   hrtc->State = HAL_RTC_STATE_BUSY;
 2339              		.loc 1 1516 0 is_stmt 1 discriminator 2
 2340 000a 0223     		movs	r3, #2
 2341 000c 4377     		strb	r3, [r0, #29]
1517:Drivers/STM32F3xx_HAL_Driver/Src/stm32f3xx_hal_rtc_ex.c **** 
ARM GAS  /var/folders/p7/nwmyw04531jbkqkgv59cx10h0000gn/T//cchGdzVf.s 			page 70


1518:Drivers/STM32F3xx_HAL_Driver/Src/stm32f3xx_hal_rtc_ex.c ****   /* Disable the write protection for RTC registers */
1519:Drivers/STM32F3xx_HAL_Driver/Src/stm32f3xx_hal_rtc_ex.c ****   __HAL_RTC_WRITEPROTECTION_DISABLE(hrtc);
 2342              		.loc 1 1519 0 discriminator 2
 2343 000e 0368     		ldr	r3, [r0]
 2344 0010 CA21     		movs	r1, #202
 2345 0012 5962     		str	r1, [r3, #36]
 2346 0014 0368     		ldr	r3, [r0]
 2347 0016 5321     		movs	r1, #83
 2348 0018 5962     		str	r1, [r3, #36]
1520:Drivers/STM32F3xx_HAL_Driver/Src/stm32f3xx_hal_rtc_ex.c **** 
1521:Drivers/STM32F3xx_HAL_Driver/Src/stm32f3xx_hal_rtc_ex.c ****   /* Set the BYPSHAD bit */
1522:Drivers/STM32F3xx_HAL_Driver/Src/stm32f3xx_hal_rtc_ex.c ****   hrtc->Instance->CR |= (uint8_t)RTC_CR_BYPSHAD;
 2349              		.loc 1 1522 0 discriminator 2
 2350 001a 0168     		ldr	r1, [r0]
 2351 001c 8B68     		ldr	r3, [r1, #8]
 2352 001e 43F02003 		orr	r3, r3, #32
 2353 0022 8B60     		str	r3, [r1, #8]
1523:Drivers/STM32F3xx_HAL_Driver/Src/stm32f3xx_hal_rtc_ex.c **** 
1524:Drivers/STM32F3xx_HAL_Driver/Src/stm32f3xx_hal_rtc_ex.c ****   /* Enable the write protection for RTC registers */
1525:Drivers/STM32F3xx_HAL_Driver/Src/stm32f3xx_hal_rtc_ex.c ****   __HAL_RTC_WRITEPROTECTION_ENABLE(hrtc);
 2354              		.loc 1 1525 0 discriminator 2
 2355 0024 0368     		ldr	r3, [r0]
 2356 0026 FF21     		movs	r1, #255
 2357 0028 5962     		str	r1, [r3, #36]
1526:Drivers/STM32F3xx_HAL_Driver/Src/stm32f3xx_hal_rtc_ex.c **** 
1527:Drivers/STM32F3xx_HAL_Driver/Src/stm32f3xx_hal_rtc_ex.c ****   /* Change RTC state */
